(dp1
V
(dp2
V
(dp3
V
(dp4
V
(dp5
VCyclopteridae(cyclopt.)
p6
(dp7
VEumicrotremus
p8
(lp9
Vphrynoides
p10
aVderjugini
p11
aVandriashevi
p12
aVspinosus
p13
aVorbis
p14
assVClariidae
p15
(dp16
VClarias
p17
(lp18
Vbatrachus
p19
assVCottidae(psychrolutidae)
p20
(dp21
VCottunculus
p22
(lp23
Vmicrops
p24
assVMelanocetidae
p25
(dp26
VMelanocetus
p27
(lp28
Vjohnsoni
p29
assVClupeidaeengraulinae
p30
(dp31
VSetipinna
p32
(lp33
Vtenuifilis
p34
aVtaty
p35
assssVMyxini
p36
(dp37
VMyxiniformes
p38
(dp39
VMyxinidae
p40
(dp41
VEptatretus
p42
(lp43
Vlopheliae
p44
assssVActinopteri
p45
(dp46
VLophiiformes
p47
(dp48
VOgcocephalidae
p49
(dp50
VOgcocephalus
p51
(lp52
Vdarwini
p53
aVcubifrons
p54
asssVSalmoniformes
p55
(dp56
VSalmonidae
p57
(dp58
VOncorhynchus
p59
(lp60
Vmykiss
p61
asssVOsteoglossiformes
p62
(dp63
VMormyridae
p64
(dp65
VMormyrus
p66
(lp67
Vrume
p68
asVBrevimyrus
p69
(lp70
Vniger
p71
assVOsteoglossidae
p72
(dp73
VOsteoglossum
p74
(lp75
Vbicirrhosum
p76
assVNotopteridae
p77
(dp78
VNotopterus
p79
(lp80
Vnotopterus
p81
asssVGadiformes
p82
(dp83
VMerlucciidae
p84
(dp85
VMerluccius
p86
(lp87
Vsenegalensis
p88
assVMacrouridae
p89
(dp90
VAlbatrossia
p91
(lp92
Vpectoralis
p93
asVNezumia
p94
(lp95
Vliolepis
p96
asVCoryphaenoides
p97
(lp98
V
aVlongifilis
p99
aVfilifer
p100
aVcinereus
p101
aVacrolepis
p102
assVMelanonidae
p103
(dp104
VMelanonus
p105
(lp106
Vzugmayeri
p107
assssssVAnimalia
p108
(dp109
V
(dp110
V
(dp111
V
(dp112
VChauliodontidae
p113
(dp114
VChauliodus
p115
(lp116
Vsloani
p117
asssssVArthropoda
p118
(dp119
VCrustacea
p120
(dp121
VMacrura(nephropsidea)
p122
(dp123
VNephropsidae
p124
(dp125
VHomarus
p126
(lp127
Vamericanus
p128
asssssVChordates
p129
(dp130
sVChordata
p131
(dp132
V
(dp133
V
(dp134
VMuraenidae
p135
(dp136
VGymnothorax
p137
(lp138
Vchilospilus
p139
assVHelogeneidae
p140
(dp141
VHelogenes
p142
(lp143
Vmarmoratus
p144
assVTorpedinidae
p145
(dp146
VNarcine
p147
(lp148
Vwestaustraliensis
p149
assVHiodontidae
p150
(dp151
VHiodon
p152
(lp153
Valosoides
p154
assVPercopsidae
p155
(dp156
VPercopsis
p157
(lp158
Vomiscomaycus
p159
assssVSarcopterygii
p160
(dp161
VLepidosireniformes
p162
(dp163
VLepidosirenidae
p164
(dp165
VLepidosiren
p166
(lp167
Vparadoxa
p168
assssVActinopterygii
p169
(dp170
V
(dp171
sVPercopsiformes
p172
(dp173
VAmblyopsidae
p174
(dp175
VForbesichthys
p176
(lp177
Vagassizii
p178
asVChologaster
p179
(lp180
Vcornuta
p181
asVTyphlichthys
p182
(lp183
Vsubterraneus
p184
asssVGobiesociformes
p185
(dp186
VGobiesocidae
p187
(dp188
VPherallodiscus
p189
(lp190
Vfunebris
p191
asVAcyrtops
p192
(lp193
Vberyllinus
p194
asVArcos
p195
(lp196
Vmacrophthalmus
p197
aVerythrops
p198
aVpoecilophthalmos
p199
aVnudus
p200
asVCochleoceps
p201
(lp202
Vviridis
p203
aVspatula
p204
aVbassensis
p205
asVAspasmichthys
p206
(lp207
Vciconiae
p208
asVTomicodon
p209
(lp210
Vcryptus
p211
aVrupestris
p212
aVzebra
p213
aVfasciatus
p214
asVTrachelochismus
p215
(lp216
Vmelobesia
p217
asVDerilissus
p218
(lp219
Valtifrons
p220
aVnanus
p221
asVDellichthys
p222
(lp223
Vmorelandi
p224
asVDiscotrema
p225
(lp226
Vcrinophilum
p227
asVParvicrepis
p228
(lp229
Vparvipinnis
p230
asVCreocele
p231
(lp232
Vcardinalis
p233
asVLepadichthys
p234
(lp235
Vlineatus
p236
aVfrenatus
p237
aVbolini
p238
asVGymnoscyphus
p239
(lp240
Vascitus
p241
asVAspasmogaster
p242
(lp243
Vcostata
p244
aVtasmaniensis
p245
aVliorhyncha
p246
asVAcyrtus
p247
(lp248
Vartius
p249
aVrubiginosus
p250
asVPosidonichthys
p251
(lp252
Vhutchinsi
p253
asVDiplecogaster
p254
(lp255
Vbimaculata
p256
asVAspasmodes
p257
(lp258
Vbriggsi
p259
asVGouania
p260
(lp261
Vwilldenowi
p262
asVGobiesox
p263
(lp264
Vnigripinnis
p265
aVstrumosus
p266
aVfulvus
p267
aVmultitentaculus
p268
aVpinniger
p269
aVmarmoratus
p270
asVAlabes
p271
(lp272
Vhoesei
p273
asVDiademichthys
p274
(lp275
Vlineatus
p276
asVRimicola
p277
(lp278
Vmuscarum
p279
asssVPerciformes
p280
(dp281
VTripterygiidae
p282
(dp283
VNotoclinops
p284
(lp285
Vsegmentatus
p286
asVEnneanectes
p287
(lp288
Vmacrops
p289
aVreticulatus
p290
aVcarminalis
p291
asVNorfolkia
p292
(lp293
Vbrachylepis
p294
asVHelcogramma
p295
(lp296
Vdecurrens 
p297
asVAxoclinus
p298
(lp299
Vstoreyae
p300
aVnigricaudus
p301
asVHelcogrammoides
p302
(lp303
Vchilensis
p304
asVEnneapterygius
p305
(lp306
Vetheostoma 
p307
asVCrocodilichthys
p308
(lp309
Vgracilis
p310
assVAmmodytidae
p311
(dp312
VAmmodytes
p313
(lp314
Vpersonatus
p315
assVBathymasteridae
p316
(dp317
VBathymaster
p318
(lp319
Vleurolepis
p320
assVSparidae
p321
(dp322
VLagodon
p323
(lp324
Vrhomboides
p325
assVCichlidae
p326
(dp327
VLabeotropheus
p328
(lp329
Vtrewavasae
p330
asVLabidochromis
p331
(lp332
Vcaeruleus
p333
asVLamprologus
p334
(lp335
Vtigripictilis
p336
assVChaenopsidae
p337
(dp338
VProtemblemaria
p339
(lp340
Vperla
p341
aVbicirrus
p342
asVAcanthemblemaria
p343
(lp344
Vhancocki
p345
aVexilispinus
p346
aVcrockeri
p347
aVmaria
p348
aVbalanorum
p349
aVrivasi
p350
aVchaplini
p351
asVCoralliozetus
p352
(lp353
Vcardonae
p354
asVNeoclinus
p355
(lp356
Vtoshimaensis
p357
aVstephensae
p358
aVlacunicola
p359
aVbryope
p360
aVuninotatus
p361
aVblanchardi
p362
asVHemiemblemaria
p363
(lp364
Vsimulus
p365
asVChaenopsis
p366
(lp367
Valepidota
p368
aVcoheni
p369
asVStathmonotus
p370
(lp371
Vsinuscalifornici
p372
asVMccoskerichthys
p373
(lp374
Vsandae
p375
asVEmblemariopsis
p376
(lp377
Vrandalli
p378
asVEkemblemaria
p379
(lp380
Vnigra
p381
asVEmblemaria
p382
(lp383
Vatlantica
p384
aVdiphyodontis
p385
aVpandionis
p386
aVwalkeri
p387
aVnivipes
p388
assVBlenniidae
p389
(dp390
VParablennius
p391
(lp392
Vyatabei
p393
asVAndamia
p394
(lp395
Vtetradactylus
p396
asVMeiacanthus
p397
(lp398
Vatrodorsalis
p399
aVnigrolineatus
p400
aVkamoharai
p401
asVAntennablennius
p402
(lp403
Vbifilum
p404
asVHirculops
p405
(lp406
Vcornifer
p407
asVEcsenius
p408
(lp409
Vnamiyei
p410
asVOmobranchus
p411
(lp412
Vpunctatus
p413
asVSalarias
p414
(lp415
Vfasciatus
p416
asVLupinoblennius
p417
(lp418
Vvinctus
p419
asVPlagiotremus
p420
(lp421
Vtapeinosoma
p422
aVrhinorhynchos
p423
asVHypleurochilus
p424
(lp425
Vpseudoaequipinnis
p426
aVspringeri
p427
asVPetroscirtes
p428
(lp429
Vmitratus
p430
asVHypsoblennius
p431
(lp432
Vbrevipinnis
p433
aVrobustus
p434
aVstriatus
p435
aVgilberti
p436
aVjenkinsi
p437
asVRhabdoblennius
p438
(lp439
Vnitidus
p440
asVXiphasia
p441
(lp442
Vmatsubarai
p443
asVAtrosalarias
p444
(lp445
Vfuscus
p446
asVAspidontus
p447
(lp448
Vtaeniatus
p449
assVGobiidae
p450
(dp451
VRisor
p452
(lp453
Vruber
p454
asVGobiopterus
p455
(lp456
Vchuno
p457
asVSicydium
p458
(lp459
Vplumieri
p460
asVGillichthys
p461
(lp462
Vmirabilis
p463
assVSerranidae
p464
(dp465
VMirolabrichthys
p466
(lp467
Vdispar
p468
asVEpinephelus
p469
(lp470
Vnigritus
p471
assVAnarhichadidae
p472
(dp473
VAnarhichas
p474
(lp475
Vorientalis
p476
asVAnarrhichthys
p477
(lp478
Vocellatus
p479
assVZaproridae
p480
(dp481
VZaprora
p482
(lp483
Vsilenus
p484
assVGrammatidae
p485
(dp486
VGramma
p487
(lp488
Vloreto
p489
assVZoarcidae
p490
(dp491
VBothrocara
p492
(lp493
Vnyx
p494
aVbrunneum
p495
assVDactyloscopidae
p496
(dp497
VHeteristius
p498
(lp499
Vcinctus
p500
asVGillellus
p501
(lp502
Vsearcheri
p503
asVDactyloscopus
p504
(lp505
Vpectoralis
p506
asVPlatygillellus
p507
(lp508
Vrubrocinctus
p509
assVCryptacanthodidae
p510
(dp511
VCryptacanthodes
p512
(lp513
Vgiganteus
p514
assVTrichodontidae
p515
(dp516
VTrichodon
p517
(lp518
Vtrichodon
p519
assVLabrisomidae
p520
(dp521
VLabrisomus
p522
(lp523
Vnuchipinnis
p524
asVParaclinus
p525
(lp526
Vwalkeri
p527
aVintegripinnis
p528
aValtivelis
p529
aVmonophthalmus
p530
aVsini
p531
asVMalacoctenus
p532
(lp533
Vboehlkei
p534
aVebisui
p535
aVhubbsi
p536
aVtriangulatus
p537
aVmargaritae
p538
aVzonogaster
p539
aVzonifer
p540
asVXenomedea
p541
(lp542
Vrhodopyga
p543
asVDialommus
p544
(lp545
Vfuscus
p546
asVExerpes
p547
(lp548
Vasper
p549
asVStarksia
p550
(lp551
Vspinipenis
p552
aVfulva
p553
assVClinidae
p554
(dp555
VHeteroclinus
p556
(lp557
Vwhiteleggii
p558
asVHeterostichus
p559
(lp560
Vrostratus
p561
asVCristiceps
p562
(lp563
Vaustralis
p564
asVClinus
p565
(lp566
Vcottoides
p567
asVClimacoporus
p568
(lp569
Vnavalis
p570
asVPavoclinus
p571
(lp572
Vgraminis
p573
assVEmbiotocidae
p574
(dp575
VZalembius
p576
(lp577
Vrosaceus
p578
asVCymatogaster
p579
(lp580
Vaggregata
p581
asVEmbiotoca
p582
(lp583
Vjacksoni
p584
aVlateralis
p585
asVHysterocarpus
p586
(lp587
Vtraskii
p588
asVBrachyistius
p589
(lp590
Vfrenatus
p591
asVHyperprosopon
p592
(lp593
Vanale
p594
aVargenteum
p595
asVPhanerodon
p596
(lp597
Vfurcatus
p598
asVAmphistichus
p599
(lp600
Vkoelzi
p601
aVargenteus
p602
aVrhodoterus
p603
asVMicrometrus
p604
(lp605
Vminimus
p606
aVaurora
p607
asVRhacochilus
p608
(lp609
Vtoxotes
p610
aVvacca
p611
asVDitrema
p612
(lp613
Vtemminckii
p614
asVNeoditrema
p615
(lp616
Vransonnetii
p617
asVHypsurus
p618
(lp619
Vcaryi
p620
asssVGymnotiformes
p621
(dp622
VSternopygidae
p623
(dp624
VSternopygus
p625
(lp626
Varenatus
p627
aVpejeraton
p628
asVArcholaemus
p629
(lp630
Vblax
p631
asVRhabdolichops
p632
(lp633
Vcaviceps
p634
aVeastwardi
p635
aVzareti
p636
aVelectrogrammus
p637
asVEigenmannia
p638
(lp639
Vmacrops
p640
aVvirescens
p641
assVApteronotidae
p642
(dp643
VApteronotus
p644
(lp645
Vmacrostomus
p646
asVCompsaraia
p647
(lp648
Vsamueli
p649
asVSternarchorhynchus
p650
(lp651
Vcramptoni
p652
asVMagosternarchus
p653
(lp654
Vraptor
p655
asssVEsociformes
p656
(dp657
VEsocidae
p658
(dp659
VEsox
p660
(lp661
Vamericanus
p662
asssVClupeiformes
p663
(dp664
VEngraulidae
p665
(dp666
VAmazonsprattus
p667
(lp668
Vscintilla
p669
asVEngraulis
p670
(lp671
Vmordax
p672
aVjaponicus
p673
asVEncrasicholina
p674
(lp675
Vpurpurea
p676
aVpunctifer
p677
aVheteroloba
p678
asVThryssa
p679
(lp680
Vdussumieri
p681
aVsetirostris
p682
aVhamiltonii
p683
aVspinidens
p684
aVkammalensis
p685
aVbaelama
p686
asVAnchoa
p687
(lp688
Vmitchilli
p689
aVhepsetus
p690
asVStolephorus
p691
(lp692
Vwaitei
p693
aVchinensis
p694
aVbrachycephalus
p695
aVindicus
p696
aVnelsoni
p697
assVPristigasteridae
p698
(dp699
VIlisha
p700
(lp701
Vmelastoma
p702
asVOpisthopterus
p703
(lp704
Vtardoore
p705
assVClupeidae
p706
(dp707
VClupea
p708
(lp709
Vpallasii
p710
asVEscualosa
p711
(lp712
Vthoracata
p713
asVAmblygaster
p714
(lp715
V
aVsp.
p716
aVsirm
p717
asVHerklotsichthys
p718
(lp719
Vcastelnaui
p720
aVdispilonotus
p721
asVSardinella
p722
(lp723
Valbella
p724
asVNematalosa
p725
(lp726
Vcome
p727
aVnasus
p728
asVAnodontostoma
p729
(lp730
Vchacunda
p731
asVSardinops
p732
(lp733
Vsagax
p734
asVBrevoortia
p735
(lp736
Vtyrannus
p737
asVOpisthonema
p738
(lp739
Vlibertate
p740
asVClupeichthys
p741
(lp742
Vaesarnensis
p743
asVDorosoma
p744
(lp745
Vcepedianum
p746
asVAlosa
p747
(lp748
Vpseudoharengus
p749
aVaestivalis
p750
asVDussumieria
p751
(lp752
Vacuta
p753
asssVScorpaeniformes
p754
(dp755
VAnoplopomatidae
p756
(dp757
VAnoplopoma
p758
(lp759
Vfimbria
p760
asVErilepis
p761
(lp762
Vzonifer
p763
assVAbyssocottidae
p764
(dp765
VAsprocottus
p766
(lp767
Vherzensteini
p768
asVAbyssocottus
p769
(lp770
Vkorotneffi
p771
assVRhamphocottidae
p772
(dp773
VRhamphocottus
p774
(lp775
Vrichardsonii
p776
assVScorpaenidae
p777
(dp778
VSebastolobus
p779
(lp780
Valascanus
p781
assVNormanichthyidae
p782
(dp783
VNormanichthys
p784
(lp785
Vcrockeri
p786
assVLiparidae
p787
(dp788
VCrystallias
p789
(lp790
Vmatsushimae
p791
asVRhinoliparis
p792
(lp793
Vbarbulifer
p794
aVattenuatus
p795
asVAcantholiparis
p796
(lp797
Vopercularis
p798
asVCrystallichthys
p799
(lp800
Vcyclospilus
p801
asVCareproctus
p802
(lp803
Vfaunus
p804
aVstaufferi
p805
aVovigerus
p806
aVrastrinus
p807
aVcypselurus
p808
aVostentum
p809
aVsimus
p810
aVabbreviatus
p811
aVcurilanus
p812
aVectenes
p813
aVfurcellus
p814
aVgilberti
p815
aVbowersianus
p816
aVcanus
p817
aVlycopersicus
p818
aVzachirus
p819
aVseraphimae
p820
aVnelsoni
p821
aVcomus
p822
aVacanthodes
p823
aVphasma
p824
aVmelanurus
p825
aVcolletti
p826
aVkamikawai
p827
asVParaliparis
p828
(lp829
Vbullacephalus
p830
aVpenicillus
p831
aVulochir
p832
aVpaucidens
p833
aVgrandis
p834
aVdactylosus
p835
aVrosaceus
p836
aVcephalus
p837
aVholomelas
p838
aVmento
p839
aVpectoralis
p840
aValbeolus
p841
aVadustus
p842
asVLiparis
p843
(lp844
Vflorae
p845
aVdennyi
p846
aVrutteri
p847
aVbristolensis
p848
aVtunicatus
p849
aVfabricii
p850
aVmarmoratus
p851
aVtessellatus
p852
aVcyclopus
p853
aVfucensis
p854
aVmiostomus
p855
aVmucosus
p856
aVpulchellus
p857
aVgibbus
p858
asVLopholiparis
p859
(lp860
Vflerxi
p861
asVNectoliparis
p862
(lp863
Vpelagicus
p864
asVElassodiscus
p865
(lp866
Vtremebundus
p867
aVcaudatus
p868
asVPrognatholiparis
p869
(lp870
Vptychomandibularis
p871
asVGyrinichthys
p872
(lp873
Vminytremus
p874
asVPolypera
p875
(lp876
Vsimushirae
p877
aVgreeni
p878
asVAllocareproctus
p879
(lp880
Vjordani
p881
aVtanix
p882
aVunangas
p883
aVungak
p884
aVkallaion
p885
asVLipariscus
p886
(lp887
Vnanus
p888
aVcallyodon
p889
aVcurilensis
p890
aVbrashnikovi
p891
asVPalmoliparis
p892
(lp893
Vbeckeri
p894
assVPlatycephalidae
p895
(dp896
VElates
p897
(lp898
Vransonnettii
p899
asVGrammoplites
p900
(lp901
Vscaber
p902
assVHemitripteridae
p903
(dp904
VBlepsias
p905
(lp906
Vcirrhosus
p907
aVbilobus
p908
asVHemitripterus
p909
(lp910
Vamericanus
p911
aVbolini
p912
asVNautichthys
p913
(lp914
Voculofasciatus
p915
aVpribilovius
p916
assVComephoridae
p917
(dp918
VComephorus
p919
(lp920
Vdybowskii
p921
assVHexagrammidae
p922
(dp923
VOxylebius
p924
(lp925
Vpictus
p926
asVPleurogrammus
p927
(lp928
Vmonopterygius
p929
asVHexagrammos
p930
(lp931
Vdecagrammus
p932
aVstelleri
p933
aVoctogrammus
p934
aVlagocephalus
p935
asVZaniolepis
p936
(lp937
Vlatipinnis
p938
aVfrenata
p939
asVOphiodon
p940
(lp941
Velongatus
p942
assVTriglidae
p943
(dp944
VPrionotus
p945
(lp946
Vlongispinosus
p947
aVmartis
p948
aVstearnsi
p949
aVophryas
p950
asVBellator
p951
(lp952
Vmilitaris
p953
assVCottidae
p954
(dp955
VOligocottus
p956
(lp957
Vmaculosus
p958
aVsnyderi
p959
asVEnophrys
p960
(lp961
Vtaurina
p962
aVlucasi
p963
aVbison
p964
aVdiceraus
p965
asVAtopocottus
p966
(lp967
Vtribranchius
p968
asVStlengis
p969
(lp970
Vdistoechus
p971
aVosensis
p972
asVFurcina
p973
(lp974
Vosimae
p975
aVishikawae
p976
asVOcynectes
p977
(lp978
Vmodestus
p979
asVThyriscus
p980
(lp981
Vanoplus
p982
asVTriglops
p983
(lp984
Vdorothy
p985
aVforficatus
p986
aVjordani
p987
aVmacellus
p988
aVscepticus
p989
aVmurrayi
p990
aVmetopias
p991
aVxenostethus
p992
aVpingelii
p993
asVCottocomephorus
p994
(lp995
Vgrewingkii
p996
asVRastrinus
p997
(lp998
Vscutiger
p999
asVVellitor
p1000
(lp1001
Vminutus
p1002
aVcentropomus
p1003
asVPseudoblennius
p1004
(lp1005
Vmarmoratus
p1006
asVChitonotus
p1007
(lp1008
Vpugetensis
p1009
asVZesticelus
p1010
(lp1011
Vprofundorum
p1012
asVCottiusculus
p1013
(lp1014
Vgonez
p1015
asVCottus
p1016
(lp1017
Vasper
p1018
aVchatahoochee
p1019
aVhypselurus
p1020
aVcognatus
p1021
aVgobio
p1022
aVgreenei
p1023
aVricei
p1024
aVhangiongensis
p1025
aVpoecilopus
p1026
aVimmaculatus
p1027
aVpitensis
p1028
aVspinulosus
p1029
aVextensus
p1030
aVklamathensis
p1031
aVperplexus
p1032
aVtenuis
p1033
aVbaileyi
p1034
aVcarolinae
p1035
aVamblystomopsis
p1036
aVgulosus
p1037
aVasperrimus
p1038
aVbairdii
p1039
aVhubbsi
p1040
aVechinatus
p1041
aVbeldingii
p1042
aVrhotheus
p1043
aValeuticus
p1044
aVprinceps
p1045
aVpollux
p1046
aVmarginatus
p1047
aVleiopomus
p1048
aVbendirei
p1049
aVconfusus
p1050
aVspecus
p1051
asVPhasmatocottus
p1052
(lp1053
Vctenopterygius
p1054
asVBolinia
p1055
(lp1056
Veuryptera
p1057
asVIcelinus
p1058
(lp1059
Vpietschi
p1060
aVborealis
p1061
aVcavifrons
p1062
aVquadriseriatus
p1063
aVfilamentosus
p1064
aVoculatus
p1065
aVtenuis
p1066
aVburchami
p1067
asVAscelichthys
p1068
(lp1069
Vrhodorus
p1070
asVStelgistrum
p1071
(lp1072
Vstejnegeri
p1073
aVberingianum
p1074
asVScorpaenichthys
p1075
(lp1076
Vmarmoratus
p1077
asVRadulinopsis
p1078
(lp1079
Vderjavini
p1080
asVParicelinus
p1081
(lp1082
Vhopliticus
p1083
asVBero
p1084
(lp1085
Velegans
p1086
asVMicrocottus
p1087
(lp1088
Vsellaris
p1089
asVParacottus
p1090
(lp1091
Vknerii
p1092
asVAsemichthys
p1093
(lp1094
Vtaylori
p1095
asVTrichocottus
p1096
(lp1097
Vbrashnikovi
p1098
asVRadulinus
p1099
(lp1100
Vvinculus
p1101
aVboleoides
p1102
aVasprellus
p1103
asVHemilepidotus
p1104
(lp1105
Vhemilepidotus
p1106
aVjordani
p1107
aVpapilio
p1108
aVzapus
p1109
aVspinosus
p1110
asVIcelus
p1111
(lp1112
Vbicornis
p1113
aVspatula
p1114
aVstenosomus
p1115
aVochotensis
p1116
aVspiniger
p1117
aVuncinalis
p1118
aVcanaliculatus
p1119
aVeuryops
p1120
asVMyoxocephalus
p1121
(lp1122
Vpolyacanthocephalus
p1123
aVniger
p1124
aVscorpius
p1125
aVscorpioides
p1126
aVquadricornis
p1127
aVstelleri
p1128
aVjaok
p1129
aVthompsonii
p1130
asVRicuzenius
p1131
(lp1132
Vnudithorax
p1133
aVpinetorum
p1134
asVSigmistes
p1135
(lp1136
Vsmithi
p1137
asVSynchirus
p1138
(lp1139
Vgilli
p1140
asVJordania
p1141
(lp1142
Vzonope
p1143
asVArtedius
p1144
(lp1145
Vfenestralis
p1146
aVharringtoni
p1147
aVlateralis
p1148
aVnotospilotus
p1149
asVArchistes
p1150
(lp1151
Vbiseriatus
p1152
asVGymnocanthus
p1153
(lp1154
Vtricuspis
p1155
aVpistilliger
p1156
aVintermedius
p1157
aVgaleatus
p1158
aVdetrisus
p1159
asVRuscarius
p1160
(lp1161
Vmeanyi
p1162
asVLeiocottus
p1163
(lp1164
Vhirundo
p1165
asVLeptocottus
p1166
(lp1167
Varmatus
p1168
asVPhallocottus
p1169
(lp1170
Vobtusus
p1171
asVMegalocottus
p1172
(lp1173
Vplatycephalus
p1174
asVArtediellus
p1175
(lp1176
Vcamchaticus
p1177
aVpacificus
p1178
aVmiacanthus
p1179
aVfuscimentus
p1180
aVneyelovi
p1181
aVochotensis
p1182
aVdydymovi
p1183
aVgomojunovi
p1184
aVuncinatus
p1185
aVscaber
p1186
asVPorocottus
p1187
(lp1188
Vallisi
p1189
aVcamtschaticus
p1190
assVPsychrolutidae
p1191
(dp1192
VEurymen
p1193
(lp1194
Vgyrinus
p1195
asVPsychrolutes
p1196
(lp1197
Vparadoxus
p1198
aVphrictus
p1199
aVsigalutes
p1200
asVDasycottus
p1201
(lp1202
Vsetiger
p1203
asVMalacocottus
p1204
(lp1205
Vzonurus
p1206
aVkincaidi
p1207
assVCyclopteridae
p1208
(dp1209
VAptocyclus
p1210
(lp1211
Vventricosus
p1212
assVAgonidae
p1213
(dp1214
VBathyagonus
p1215
(lp1216
Vpentacanthus
p1217
aVnigripinnis
p1218
asVAgonomalus
p1219
(lp1220
Vmozinoi
p1221
aVproboscidalis
p1222
asVBothragonus
p1223
(lp1224
Voccidentalis
p1225
aVswani
p1226
asVAspidophoroides
p1227
(lp1228
Vmonopterygius
p1229
aVolrikii
p1230
asVStellerina
p1231
(lp1232
Vxyosterna
p1233
asVPodothecus
p1234
(lp1235
Vveternus
p1236
aVaccipenserinus
p1237
asVAgonopsis
p1238
(lp1239
Vchiloensis
p1240
aVvulsa
p1241
aVsterletus
p1242
asVHypsagonus
p1243
(lp1244
Vquadricornis
p1245
aVcorniger
p1246
asVSarritor
p1247
(lp1248
Vleptorhynchus
p1249
aVfrenatus
p1250
asVXeneretmus
p1251
(lp1252
Vleiops
p1253
aVtriacanthus
p1254
aVlatifrons
p1255
aVritteri
p1256
asVOdontopyxis
p1257
(lp1258
Vtrispinosa
p1259
asVLeptagonus
p1260
(lp1261
Vdecagonus
p1262
asVAgonus
p1263
(lp1264
Vcataphractus
p1265
asVBrachyopsis
p1266
(lp1267
Vsegaliensis
p1268
asVPercis
p1269
(lp1270
Vjaponica
p1271
asVAnoplagonus
p1272
(lp1273
Vinermis
p1274
asVOccella
p1275
(lp1276
Vdodecaedron
p1277
asssVElopiformes
p1278
(dp1279
VElopidae
p1280
(dp1281
VElops
p1282
(lp1283
Vsaurus
p1284
asssVAnguilliformes
p1285
(dp1286
VCongridae
p1287
(dp1288
VHeteroconger
p1289
(lp1290
Vlongissimus
p1291
assVAnguillidae
p1292
(dp1293
VAnguilla
p1294
(lp1295
Vrostrata
p1296
asssVAphredoderiformes
p1297
(dp1298
sVAulopiformes
p1299
(dp1300
VIpnopidae
p1301
(dp1302
VBathypterois
p1303
(lp1304
Vquadrifilis
p1305
asssVBatrachoidiformes
p1306
(dp1307
VBatrachoididae
p1308
(dp1309
VAphos
p1310
(lp1311
Vporosus
p1312
asVPerulibatrachus
p1313
(lp1314
Vrossignoli
p1315
asVHalophryne
p1316
(lp1317
Vocellatus
p1318
aVdiemensis
p1319
asVThalassophryne
p1320
(lp1321
Vamazonica
p1322
aVnattereri
p1323
aVmaculosa
p1324
asVDaector
p1325
(lp1326
Vreticulata
p1327
aVdowi
p1328
asVBarchatus
p1329
(lp1330
Vindicus
p1331
aVcirrhosus
p1332
asVTriathalassothia
p1333
(lp1334
Vargentina
p1335
asVChatrabus
p1336
(lp1337
Vmelanurus
p1338
asVOpsanus
p1339
(lp1340
Vpardus
p1341
aVphobetron
p1342
aVbeta
p1343
asVAmphichthys
p1344
(lp1345
Vcryptocentrus
p1346
asVAllenbatrachus
p1347
(lp1348
Vreticulatus
p1349
asVColletteichthys
p1350
(lp1351
Vdussumieri
p1352
aVoccidentalis
p1353
asVPorichthys
p1354
(lp1355
Vbathoiketes
p1356
aVgreenei
p1357
aVpauciradiatus
p1358
aVporosissimus
p1359
aVmargaritatus
p1360
aVplectrodon
p1361
asVVladichthys
p1362
(lp1363
Vgloverensis
p1364
asVBifax
p1365
(lp1366
Vlacinia
p1367
asVBatrachomoeus
p1368
(lp1369
Vdubius
p1370
aVtrispinosus
p1371
asVSanopus
p1372
(lp1373
Vreticulatus
p1374
aVastrifer
p1375
aVgreenfieldorum
p1376
asssVCypriniformes
p1377
(dp1378
VNemacheilidae
p1379
(dp1380
VPhysoschistura
p1381
(lp1382
Vpseudobrunneana
p1383
asVTraccatichthys
p1384
(lp1385
Vpulcher
p1386
asVNeonoemacheilus
p1387
(lp1388
Vlabeosus
p1389
asVSchistura
p1390
(lp1391
Vaurantiaca
p1392
asVTuberoschistura
p1393
(lp1394
Vbaenzigeri
p1395
asVNemacheilus
p1396
(lp1397
Vpallidus
p1398
aVmasyae
p1399
assVCatostomidae
p1400
(dp1401
VMinytrema
p1402
(lp1403
Vmelanops
p1404
asVMoxostoma
p1405
(lp1406
Vpoecilurum
p1407
asVCarpiodes
p1408
(lp1409
Vcarpio
p1410
aVcyprinus
p1411
assVSerpenticobitidae
p1412
(dp1413
VSerpenticobitis
p1414
(lp1415
Vzonata
p1416
assVPsilorhynchidae
p1417
(dp1418
VPsilorhynchus
p1419
(lp1420
Vsucatio
p1421
assVBotiidae
p1422
(dp1423
VChromobotia
p1424
(lp1425
Vmacracanthus
p1426
assVCyprinidae
p1427
(dp1428
VMeda
p1429
(lp1430
Vfulgida
p1431
asVCosmochilus
p1432
(lp1433
Vharmandi
p1434
asVBarbus
p1435
(lp1436
Vaspilus
p1437
aVditinensis
p1438
aVanema
p1439
aVdialonensis
p1440
aVbigornei
p1441
aVeburneensis
p1442
aVfoutensis
p1443
aVcallipterus
p1444
aVmagdalenae
p1445
aVapleurogramma
p1446
aVaspius
p1447
aVcamptacanthus
p1448
aVsp.
p1449
aVmacrops
p1450
aVperince
p1451
aVsublineatus
p1452
aVtiekoroi
p1453
aVmawambiensis
p1454
aVfasciolatus
p1455
aVtrispilos
p1456
aVbifrenatus
p1457
aVtrimaculatus
p1458
aVmultilineatus
p1459
aVkerstenii
p1460
aVholotaenia
p1461
aVneumayeri
p1462
aVpoechii
p1463
aVmartorelli
p1464
aVablabes
p1465
aVneefi
p1466
aVatromaculatus
p1467
aVpunctitaeniatus
p1468
aVlineomaculatus
p1469
aVbrevidorsalis
p1470
aVguineensis
p1471
aVpaludinosus
p1472
aVeutaenia
p1473
aVatkinsoni
p1474
aVradiatus
p1475
aVwaageni
p1476
aVguildi
p1477
aVviviparus
p1478
aVvittatus
p1479
aVraimbaulti
p1480
aVoligolepis
p1481
aVniokoloensis
p1482
aVasper
p1483
aVtrispilopleura
p1484
aVafrovernayi
p1485
aVtrispilomimus
p1486
aVguirali
p1487
aVafer
p1488
aVbarotseensis
p1489
aVmacinensis
p1490
aVcastrasibutum
p1491
aVchlorotaenia
p1492
aVjae
p1493
aVhuguenyi
p1494
aVpobeguini
p1495
aVanoplus
p1496
aVunitaeniatus
p1497
aVarcislongae
p1498
aVspurrelli
p1499
aVinaequalis
p1500
aVnigeriensis
p1501
aVcf. macrops
p1502
aVcallensis
p1503
aVbynni
p1504
aVafrohamiltoni
p1505
aVzanzibaricus
p1506
aValtus
p1507
aVbarbus
p1508
aVconcharius
p1509
aVmiolepis
p1510
aVgurneyi
p1511
aVhumilis
p1512
aVnigrofasciatus
p1513
aVwerneri
p1514
aVtitius
p1515
aVluteus
p1516
aVaeneus
p1517
aVburchelli
p1518
aVlujae
p1519
aVtrevelyani
p1520
aVmacrotaenia
p1521
aVstigmatopygus
p1522
aVeveretti
p1523
aVspp.
p1524
aVmeridionalis
p1525
aVkessleri
p1526
aVlaticeps
p1527
aVsp. 1
p1528
aVinnocens
p1529
aVcyclolepis
p1530
aVnatalensis
p1531
aVoxyrhynchus
p1532
aVmattozi
p1533
asVNeolissochilus
p1534
(lp1535
Vsoroides
p1536
asVMicrodevario
p1537
(lp1538
Vkubotai
p1539
asVLabeo
p1540
(lp1541
Vlongipinnis
p1542
aVlineatus
p1543
aVnasus
p1544
aVparvus
p1545
aVlukulae
p1546
asVDionda
p1547
(lp1548
Vdiaboli
p1549
aVmelanops
p1550
aVepiscopa
p1551
aVserena
p1552
aVargentosa
p1553
aVnigrotaeniata
p1554
asVPseudobarbus
p1555
(lp1556
Vafer
p1557
aVphlegethon
p1558
aVasper
p1559
asVSemotilus
p1560
(lp1561
Vatromaculatus
p1562
aVcorporalis
p1563
aVthoreauianus
p1564
asVPimephales
p1565
(lp1566
Vvigilax
p1567
aVnotatus
p1568
aVtenellus
p1569
aVpromelas
p1570
asVErimystax
p1571
(lp1572
Vharryi
p1573
aVinsignis
p1574
aVdissimilis
p1575
asVOsteochilus
p1576
(lp1577
Vmelanopleurus
p1578
asVHypophthalmichthys
p1579
(lp1580
Vnobilis
p1581
asVTampichthys
p1582
(lp1583
Vipni
p1584
asVCampostoma
p1585
(lp1586
Vpullum
p1587
aVanomalum
p1588
aVoligolepis
p1589
aVspadiceum
p1590
aVornatum
p1591
aVpauciradii
p1592
asVSnyderichthys
p1593
(lp1594
Vcopei
p1595
asVCouesius
p1596
(lp1597
Vplumbeus
p1598
asVMargariscus
p1599
(lp1600
Vmargarita
p1601
asVMylocheilus
p1602
(lp1603
Vcaurinus
p1604
asVPlatygobio
p1605
(lp1606
Vgracilis
p1607
asVGila
p1608
(lp1609
Vcoerulea 
p1610
asVChrosomus
p1611
(lp1612
Verythrogaster
p1613
aVeos
p1614
aVoreas
p1615
aVsaylori
p1616
asVRichardsonius
p1617
(lp1618
Vegregius
p1619
asVNocomis
p1620
(lp1621
Vasper
p1622
aVraneyi
p1623
aVbiguttatus
p1624
aVleptocephalus
p1625
aVmicropogon
p1626
aVeffusus
p1627
asVMylopharodon
p1628
(lp1629
Vconocephalus
p1630
asVRhinichthys
p1631
(lp1632
Vcataractae
p1633
aVevermanni
p1634
asVYuriria
p1635
(lp1636
Valta
p1637
asVRaiamas
p1638
(lp1639
Vsenegalensis
p1640
asVPogonichthys
p1641
(lp1642
Vciscoides
p1643
asVAcrocheilus
p1644
(lp1645
Valutaceus
p1646
asVLepidomeda
p1647
(lp1648
Valbivallis
p1649
aVmollispinis
p1650
asVCyprinella
p1651
(lp1652
Vlepida
p1653
aVlutrensis
p1654
aVcamura
p1655
aVgalactura
p1656
aVspiloptera
p1657
aVcallistia
p1658
aVxaenurus
p1659
aVvenusta
p1660
aVleedsi
p1661
aVwhipplei
p1662
aVnivea
p1663
aVformosa
p1664
aVmonacha
p1665
aVproserpina
p1666
aVanalostana
p1667
aVlabrosa
p1668
aVvenusta cercostigma
p1669
aVtrichroistia
p1670
asVGarra
p1671
(lp1672
Vfuliginosa
p1673
asVCandidia
p1674
(lp1675
Vbarbata
p1676
asVLuxilus
p1677
(lp1678
Vchrysocephalus
p1679
aVcoccogenis
p1680
aVcerasinus
p1681
aVcardinalis
p1682
aVzonatus
p1683
aValbeolus
p1684
aVcornutus
p1685
aVpilsbryi
p1686
asVPhoxinus
p1687
(lp1688
Vsemotilus
p1689
asVAlgansea
p1690
(lp1691
Vlacustris
p1692
aVtincella
p1693
aVrubescens
p1694
aVaphanea
p1695
aVmonticola
p1696
asVLavinia
p1697
(lp1698
Vexilicauda
p1699
asVHybopsis
p1700
(lp1701
Vlineapunctata
p1702
aVwinchelli
p1703
asVAztecula
p1704
(lp1705
Vsallaei
p1706
asVLythrurus
p1707
(lp1708
Vfasciolaris
p1709
aVardens
p1710
aVbellus
p1711
aVfumeus
p1712
aVmatutinus
p1713
asVCodoma
p1714
(lp1715
Vornata
p1716
asVPuntius
p1717
(lp1718
Vterio
p1719
asVRelictus
p1720
(lp1721
Vsolitarius
p1722
asVExoglossum
p1723
(lp1724
Vlaurae
p1725
aVmaxillingua
p1726
asVClinostomus
p1727
(lp1728
Velongatus
p1729
asVLabeobarbus
p1730
(lp1731
Vmawambiensis
p1732
aVhabereri
p1733
aVwurtzi
p1734
aVpetitjeani
p1735
aVsacratus
p1736
aVcaudovittatus
p1737
aVbatesii
p1738
aVpolylepis
p1739
aVmarequensis
p1740
asVClypeobarbus
p1741
(lp1742
Vpleuropholis
p1743
aVhypsolepis
p1744
aVcongicus
p1745
asVPtychocheilus
p1746
(lp1747
Vumpquae
p1748
aVgrandis
p1749
asVNotropis
p1750
(lp1751
VNotropis 
p1752
aVrubricroceus 
p1753
aVbuccula 
p1754
aVhypsilepis
p1755
asVHybognathus
p1756
(lp1757
Vhayi
p1758
aVplacitus
p1759
aVhankinsoni
p1760
aVregius
p1761
aVargyritis
p1762
asVPhenacobius
p1763
(lp1764
Vmirabilis
p1765
aVcatostomus
p1766
asVEremichthys
p1767
(lp1768
Vacros
p1769
asVHenicorhynchus
p1770
(lp1771
Vlobatus
p1772
asVMacrhybopsis
p1773
(lp1774
Vstoreriana
p1775
aVaustralis
p1776
assVCobitidae
p1777
(dp1778
VSectoria
p1779
(lp1780
Vatriceps
p1781
asVAcantopsis
p1782
(lp1783
Vsp
p1784
asVSabanejewia
p1785
(lp1786
Vlarvata
p1787
assVBarbuccidae
p1788
(dp1789
VBarbucca
p1790
(lp1791
Vdiabolica
p1792
assVBalitoridae
p1793
(dp1794
VBalitora
p1795
(lp1796
Vbrucei
p1797
aVburmanica
p1798
asVSewellia
p1799
(lp1800
Velongata
p1801
asVSinogastromyzon
p1802
(lp1803
Vpuliensis
p1804
asVBeaufortia
p1805
(lp1806
Vkweichowensis
p1807
asVBalitoropsis
p1808
(lp1809
Vophiolepis
p1810
aVzollingeri
p1811
asVPseudohomaloptera
p1812
(lp1813
Vsexmaculata
p1814
asVHomalopterula
p1815
(lp1816
Vripleyi
p1817
aVgymnogaster
p1818
asVHomalopteroides
p1819
(lp1820
Vnebulosus
p1821
aVsmithi
p1822
aVrupicola
p1823
aVweberi
p1824
aVavii
p1825
aVwassinkii
p1826
asVFormosania
p1827
(lp1828
Vlacustre
p1829
asVNeohomaloptera
p1830
(lp1831
Vjohorensis
p1832
aV johorensis
p1833
asVBarbatula
p1834
(lp1835
Vbarbatula
p1836
asVYaoshania
p1837
(lp1838
Vpachychilus
p1839
asVHemimyzon
p1840
(lp1841
Vformosanus
p1842
asVGastromyzon
p1843
(lp1844
Vborneensis
p1845
asssVSiluriformes
p1846
(dp1847
VAuchenipteridae
p1848
(dp1849
VTrachycorystes
p1850
(lp1851
Vporosus
p1852
assVIctaluridae
p1853
(dp1854
VAmeiurus
p1855
(lp1856
Vmelas
p1857
asVTrogloglanis
p1858
(lp1859
Vpattersoni
p1860
asVSatan
p1861
(lp1862
Veurystomus
p1863
asVPylodictis
p1864
(lp1865
Volivaris
p1866
asVNoturus
p1867
(lp1868
Vnocturnus
p1869
aVflavus
p1870
aVphaeus
p1871
asVIctalurus
p1872
(lp1873
Vpunctatus
p1874
assVTrichomycteridae
p1875
(dp1876
VTrichomycterus
p1877
(lp1878
V
aVareolatus
p1879
aVguianense
p1880
assVPimelodidae
p1881
(dp1882
VPimelodus
p1883
(lp1884
Vblochii
p1885
assVBagridae
p1886
(dp1887
VMystus
p1888
(lp1889
Varmatus
p1890
assVCallichthyidae
p1891
(dp1892
VCorydoras
p1893
(lp1894
Vsp.
p1895
assVAriidae
p1896
(dp1897
VBagre
p1898
(lp1899
Vmarinus
p1900
assVSisoridae
p1901
(dp1902
VBagarius
p1903
(lp1904
Vbagarius
p1905
asVMyersglanis
p1906
(lp1907
Vblythii
p1908
asVPseudolaguvia
p1909
(lp1910
Vkapuri
p1911
assVAspredinidae
p1912
(dp1913
VBunocephalus
p1914
(lp1915
Vcoracoideus
p1916
assVHeptapteridae
p1917
(dp1918
VRhamdia
p1919
(lp1920
Vquelen
p1921
assVHeteropneustidae
p1922
(dp1923
VHeteropneustes
p1924
(lp1925
Vfossilis
p1926
asssVOsmeriformes
p1927
(dp1928
VOsmeridae
p1929
(dp1930
VHypomesus
p1931
(lp1932
Vpretiosus
p1933
aVnipponensis
p1934
asssVStomiiformes
p1935
(dp1936
VGonostomatidae
p1937
(dp1938
VGonostoma
p1939
(lp1940
Velongatum
p1941
assVSternoptychidae
p1942
(dp1943
VSternoptyx
p1944
(lp1945
Vobscura
p1946
aVdiaphana
p1947
aVpseudobscura
p1948
asVPolyipnus
p1949
(lp1950
Vindicus
p1951
asVArgyropelecus
p1952
(lp1953
Vlychnus
p1954
aVolfersii
p1955
aVsladeni
p1956
aVaffinis
p1957
assVStomiidae
p1958
(dp1959
VStomias
p1960
(lp1961
Vatriventer
p1962
asVEustomias
p1963
(lp1964
Vbifilis
p1965
asssVGasterosteiformes
p1966
(dp1967
VSyngnathidae
p1968
(dp1969
VHippocampus
p1970
(lp1971
Vbargibanti
p1972
asssVPolypteriformes
p1973
(dp1974
VPolypteridae
p1975
(dp1976
VPolypterus
p1977
(lp1978
Vsenegalus
p1979
asssVCyprinodontiformes
p1980
(dp1981
VPoeciliidae
p1982
(dp1983
VPoecilia
p1984
(lp1985
Vreticulata
p1986
asssVMugiliformes
p1987
(dp1988
VMugilidae
p1989
(dp1990
VMugil
p1991
(lp1992
Vcephalus
p1993
asssVPleuronectiformes
p1994
(dp1995
VAchiridae
p1996
(dp1997
VTrinectes
p1998
(lp1999
Vmaculatus
p2000
aVfimbriatus
p2001
aVfonsecensis
p2002
aVfluviatilis
p2003
asVHypoclinemus
p2004
(lp2005
Vmentalis
p2006
asVAchirus
p2007
(lp2008
Vscutum
p2009
aVlineatus
p2010
asVGymnachirus
p2011
(lp2012
Vmelas
p2013
assVPleuronectidae
p2014
(dp2015
VParophrys
p2016
(lp2017
Vvetulus
p2018
asssVLepisosteiformes
p2019
(dp2020
VLepisosteidae
p2021
(dp2022
VLepisosteus
p2023
(lp2024
Vplatyrhincus
p2025
aVoculatus
p2026
asssVAtheriniformes
p2027
(dp2028
VAtherinopsidae
p2029
(dp2030
VLabidesthes
p2031
(lp2032
Vsicculus
p2033
aVvanhyningi
p2034
asVMenidia
p2035
(lp2036
Vberyllina
p2037
asssVPolymixiiformes
p2038
(dp2039
VPolymixiidae
p2040
(dp2041
VPolymixia
p2042
(lp2043
Vlowei
p2044
asssVAngulliformes
p2045
(dp2046
VNettastomatidae
p2047
(dp2048
VSaurenchelys
p2049
(lp2050
Vcognita
p2051
assVOphichthidae
p2052
(dp2053
VOphichthus
p2054
(lp2055
Vrex
p2056
asVApterichtus
p2057
(lp2058
Vkendalli
p2059
asssVTetraodontiformes
p2060
(dp2061
VDiodontidae
p2062
(dp2063
VDiodon
p2064
(lp2065
Vhystrix
p2066
assVOstraiontidae
p2067
(dp2068
VAcanthostracion
p2069
(lp2070
Vquadricornis
p2071
assVTetraodontidae
p2072
(dp2073
VLagocephalus
p2074
(lp2075
Vlaevigatus
p2076
aVlagocephalus
p2077
aVsceleratus
p2078
aVinermis
p2079
aVlunaris
p2080
aVguentheri
p2081
asVTakifugu
p2082
(lp2083
Voblongus
p2084
asVColomesus
p2085
(lp2086
Vpsittacus
p2087
aVtocantinensis
p2088
asVPelagocephalus
p2089
(lp2090
Vmarki
p2091
asVTylerius
p2092
(lp2093
Vspinosissimus
p2094
asVTetraodon
p2095
(lp2096
Vfluviatilis
p2097
aVmiurus
p2098
aVerythrotaenia
p2099
aVpustulatus
p2100
aVlineatus
p2101
asVCarinotetraodon
p2102
(lp2103
Vlorteti
p2104
asVArothron
p2105
(lp2106
Vmanilensis
p2107
aVhispidus
p2108
aVnigropunctatus
p2109
aVmeleagris
p2110
aVimmaculatus
p2111
aVdiadematus
p2112
aVmappa
p2113
asVLeiodon
p2114
(lp2115
Vcutcutia
p2116
asVAuriglobus
p2117
(lp2118
Vsilus
p2119
aVmodestus
p2120
asVSphoeroides
p2121
(lp2122
Vlobatus
p2123
aVtestudineus
p2124
aVmaculatus
p2125
aVpachygaster
p2126
aVparvus
p2127
aVnephelus
p2128
aVspengleri
p2129
aVdorsalis
p2130
aVlispus
p2131
asVCanthigaster
p2132
(lp2133
Vfigueiredoi
p2134
aVrostrata
p2135
aVsolandri
p2136
aVpunctatissima
p2137
aVcoronata
p2138
aVvalentini
p2139
aVjactator
p2140
aVbennetti
p2141
aVamboinensis
p2142
aVsmithae
p2143
aVcompressa
p2144
aVpapua
p2145
asVPao
p2146
(lp2147
Vleiurus
p2148
aVcambodgiensis
p2149
aVsuvattii
p2150
assVBalitoridae:balitorinae
p2151
(dp2152
VHomaloptera
p2153
(lp2154
Vrupicola
p2155
aVmontana
p2156
aVsexmaculata
p2157
aVstephensoni
p2158
aVgymnogaster
p2159
aVocellata
p2160
assVBalistidae
p2161
(dp2162
VOxymonacanthus
p2163
(lp2164
Vlongirostris
p2165
asVSufflamen
p2166
(lp2167
Vchrysopterum
p2168
asVCanthidermis
p2169
(lp2170
Vmacrolepis
p2171
asVBalistapus
p2172
(lp2173
Vundulatus
p2174
asVBalistes
p2175
(lp2176
VBalistes
p2177
aVchrysopterus
p2178
aVpolylepis
p2179
asVMelichthys
p2180
(lp2181
Vniger
p2182
asVOdonus
p2183
(lp2184
Vniger
p2185
asVPervagor
p2186
(lp2187
Vspilosoma
p2188
aVjanthinosoma
p2189
asVRhinecanthus
p2190
(lp2191
Vaculeatus
p2192
aVverrucosus
p2193
assVTriacanthodidae
p2194
(dp2195
VTydemania
p2196
(lp2197
Vnavigatoris
p2198
assVMolidae
p2199
(dp2200
VRanzania
p2201
(lp2202
Vlaevis
p2203
assVMonacanthidae
p2204
(dp2205
VCantherhines
p2206
(lp2207
Vsandwichiensis
p2208
aVpardalis
p2209
asVMonacanthus
p2210
(lp2211
Vciliatus
p2212
asVAcreichthys
p2213
(lp2214
Vtomentosus
p2215
asVStephanolepis
p2216
(lp2217
Vhispidus
p2218
aVtomentosus
p2219
aVdiaspros
p2220
asVAlutera
p2221
(lp2222
Vscripta
p2223
asssVBeryciformes
p2224
(dp2225
VAnoplogastridae
p2226
(dp2227
VAnoplogaster
p2228
(lp2229
Vcornuta
p2230
asssVOphidiiformes
p2231
(dp2232
VOphidiidae
p2233
(dp2234
VPorogadus
p2235
(lp2236
Vmiles
p2237
asVBassozetus
p2238
(lp2239
Vzenkevitchi
p2240
asssVBeloniformes
p2241
(dp2242
VHemiramphidae
p2243
(dp2244
VDermogenys
p2245
(lp2246
Vbruneiensis
p2247
assVBelonidae
p2248
(dp2249
VPetalichthys
p2250
(lp2251
Vcapensis
p2252
asVBelonion
p2253
(lp2254
Vapodion
p2255
aVdibranchodon
p2256
asVPseudotylosurus
p2257
(lp2258
Vangusticeps
p2259
asVStrongylura
p2260
(lp2261
Vfluviatilis
p2262
aVkrefftii
p2263
asssVCharaciformes
p2264
(dp2265
VProchilodontidae
p2266
(dp2267
VProchilodus
p2268
(lp2269
Vnigricans
p2270
assVGasteropelecidae
p2271
(dp2272
VThoracocharax
p2273
(lp2274
Vstellatus
p2275
assVCynodontidae
p2276
(dp2277
VCynodon
p2278
(lp2279
Vgibbus
p2280
assVSerrasalmidae
p2281
(dp2282
VMylesinus
p2283
(lp2284
Vpaucisquamatus
p2285
asVAcnodon
p2286
(lp2287
Vnormani
p2288
asVOssubtus
p2289
(lp2290
Vxinguense
p2291
asVMyloplus
p2292
(lp2293
Vrhomboidalis
p2294
aVrubripinnis
p2295
asVCatoprion
p2296
(lp2297
Vmento
p2298
asVMyleus
p2299
(lp2300
Vrubripinnis
p2301
aVrhomboidalis
p2302
aVschomburgkii
p2303
aVsetiger
p2304
aVtorquatus
p2305
aVlevis
p2306
aVasterias
p2307
asVSerrasalmus
p2308
(lp2309
Vmanueli
p2310
aVmedinai
p2311
aVeigenmanni
p2312
aVmaculatus
p2313
aVspilopleura
p2314
aVirritans
p2315
aVbrandtii
p2316
aVrhombeus
p2317
aVelongatus
p2318
aVmarginatus
p2319
asVPygopristis
p2320
(lp2321
Vdenticulata
p2322
asVPygocentrus
p2323
(lp2324
Vnattereri
p2325
aVpiraya
p2326
aVcariba
p2327
assVTriportheidae
p2328
(dp2329
VTriportheus
p2330
(lp2331
Velongatus
p2332
assVChalceidae
p2333
(dp2334
VChalceus
p2335
(lp2336
Vmacrolepidotus
p2337
assVCharacidae
p2338
(dp2339
VRhaphiodon
p2340
(lp2341
Vvulpinus
p2342
asVPristobrycon
p2343
(lp2344
Vcalmoni
p2345
aVstriolatus
p2346
asVAstyanax
p2347
(lp2348
Vmexicanus
p2349
asVMylossoma
p2350
(lp2351
Vduriventre
p2352
asVExodon
p2353
(lp2354
Vparadoxus
p2355
asVMetynnis
p2356
(lp2357
Vhypsauchen
p2358
aVluna
p2359
aValtidorsalis
p2360
asVColossoma
p2361
(lp2362
Vmacropomum
p2363
asVRoeboides
p2364
(lp2365
Vdayi
p2366
aVoccidentalis
p2367
aVbouchellei
p2368
aVguatemalensis
p2369
aVmyersii
p2370
aVaffinis
p2371
asVAgoniates
p2372
(lp2373
V
aVsp.
p2374
asVPiaractus
p2375
(lp2376
Vbrachypomus
p2377
assVAnostomidae
p2378
(dp2379
VPseudanos
p2380
(lp2381
Vtrimaculatus
p2382
aVgracilis
p2383
aVirinae
p2384
asVLeporellus
p2385
(lp2386
Vvittatus
p2387
asVHypomasticus
p2388
(lp2389
Vmegalepis
p2390
asVLaemolyta
p2391
(lp2392
Vgarmani
p2393
asVPetulanos
p2394
(lp2395
Vspiloclistron
p2396
asVLeporinus
p2397
(lp2398
Vfasciatus
p2399
aVortomaculatus
p2400
aVnigrotaeniatus
p2401
aVagassizii
p2402
aVtrifasciatus
p2403
aVtaeniatus
p2404
asVRhytiodus
p2405
(lp2406
Vlauzannei
p2407
asVSynaptolaemus
p2408
(lp2409
Vcingulatus
p2410
asVAnostomus
p2411
(lp2412
Vanostomus
p2413
aVternetzi
p2414
assssVOsteichthyes
p2415
(dp2416
VAmiiformes
p2417
(dp2418
VAmiidae
p2419
(dp2420
VAmia
p2421
(lp2422
Vcalva
p2423
asssVCrossopterygii
p2424
(dp2425
VPanderichthyidae?
p2426
(dp2427
VTiktaalik
p2428
(lp2429
Vroseae
p2430
assssVChondrichthyes
p2431
(dp2432
VTorpediniformes
p2433
(dp2434
VNarcinidae
p2435
(dp2436
VDiplobatis
p2437
(lp2438
Vpictus
p2439
asVNarke
p2440
(lp2441
Vdipterygia
p2442
asssVLamniformes
p2443
(dp2444
VLamnidae
p2445
(dp2446
VCarcharocles
p2447
(lp2448
Vauriculatus
p2449
aVmegalodon
p2450
asssVSqualiformes
p2451
(dp2452
VEtmopteridae
p2453
(dp2454
VEtmopterus
p2455
(lp2456
Vvirens
p2457
asssVEugeneodontida
p2458
(dp2459
VEdestidae
p2460
(dp2461
VEdestus
p2462
(lp2463
Vheinrichi
p2464
assssVElasmobranchii
p2465
(dp2466
VMyliobatiformes
p2467
(dp2468
VUrolophidae
p2469
(dp2470
VUrotrygon
p2471
(lp2472
Vnana
p2473
aVrogersi
p2474
aVchilensis
p2475
aVsimulatrix
p2476
aVvenezuelae
p2477
aVaspidura
p2478
asVUrobatis
p2479
(lp2480
Vtumbesensis
p2481
aVhalleri
p2482
asVUrolophus
p2483
(lp2484
Vcruciatus
p2485
assVDasyatidae
p2486
(dp2487
VHimantura
p2488
(lp2489
Vimbricata
p2490
aVwalga
p2491
asVTaeniura
p2492
(lp2493
Vlymma
p2494
asVNeotrygon
p2495
(lp2496
Vkuhlii
p2497
asVDasyatis
p2498
(lp2499
Vakajei
p2500
aVzugei
p2501
aVguttata
p2502
aVamericana
p2503
asssVRajiformes
p2504
(dp2505
VPotamotrygonidae
p2506
(dp2507
VPotamotrygon
p2508
(lp2509
Vsp
p2510
asssVPristiformes
p2511
(dp2512
VPristidae
p2513
(dp2514
VPristis
p2515
(lp2516
Vpectinata
p2517
asssVCtenacanthiformes
p2518
(dp2519
VCtenacanthidae
p2520
(dp2521
VCarcharopsis
p2522
(lp2523
Vwortheni
p2524
assssVTherapsida
p2525
(dp2526
VCynodontia
p2527
(dp2528
VThrinaxodontidae
p2529
(dp2530
VThrinaxodon
p2531
(lp2532
Vsp.
p2533
assssVOsteichthys
p2534
(dp2535
VSynbranchiformes
p2536
(dp2537
VMastacembelidae
p2538
(dp2539
VMastacembelus
p2540
(lp2541
Vsimbi
p2542
aVcrassus
p2543
aVaviceps
p2544
assssVReptilia
p2545
(dp2546
V
(dp2547
VAnkylosauridae
p2548
(dp2549
VAnkylosaurus
p2550
(lp2551
Vmagniventris
p2552
assVMegalosauridae
p2553
(dp2554
VMegalosaurus
p2555
(lp2556
Vbucklandii
p2557
asVEustreptospondylus
p2558
(lp2559
Voxoniensis
p2560
asssVTestudinata
p2561
(dp2562
VPelomedusidae
p2563
(dp2564
VPelomedusa
p2565
(lp2566
Vsubrufa
p2567
asssVProsauropoda
p2568
(dp2569
V
(dp2570
VMassospondylus
p2571
(lp2572
Vcarinatus
p2573
asssVOrnithischia
p2574
(dp2575
VPachycephalosauridae
p2576
(dp2577
VStegoceras
p2578
(lp2579
Vvalidum
p2580
assVHadrosauridae
p2581
(dp2582
VEdmontosaurus
p2583
(lp2584
Vannectens
p2585
asVTelmatosaurus
p2586
(lp2587
Vtranssylvanicus
p2588
asssVSerpentes
p2589
(dp2590
VUropeltidae
p2591
(dp2592
VUropeltis
p2593
(lp2594
Vmelanogaster
p2595
asVPlectrurus
p2596
(lp2597
Vperroteti
p2598
assVAtractaspidae
p2599
(dp2600
VAtractaspis
p2601
(lp2602
Vbibroni
p2603
aVaterrima
p2604
aVbibronii
p2605
assVAcrochordidae
p2606
(dp2607
VAcrochordus
p2608
(lp2609
Vgranulatus
p2610
assVAtractaspididae
p2611
(dp2612
VHomoroselaps
p2613
(lp2614
Vlacteus
p2615
asVMacrelaps
p2616
(lp2617
Vmicrolepidotus
p2618
asVXenocalamus
p2619
(lp2620
Vbicolor
p2621
asVPolemon
p2622
(lp2623
Vchristyi
p2624
asssVSquamata
p2625
(dp2626
VElapidae
p2627
(dp2628
VDendroaspis
p2629
(lp2630
Vjamesoni
p2631
aVangusticeps
p2632
asVMicrurus
p2633
(lp2634
Vnigrocinctus
p2635
asVNaja
p2636
(lp2637
Vmossambica
p2638
aVnigricollis
p2639
assVAgamidae
p2640
(dp2641
VBronchocela
p2642
(lp2643
Vcristatella
p2644
asVSitana
p2645
(lp2646
Vponticeriana
p2647
asVLyriocephalus
p2648
(lp2649
Vscutatus
p2650
asVDiporiphora
p2651
(lp2652
Vwinneckei
p2653
asVUromastyx
p2654
(lp2655
Vsp.
p2656
asVCalotes
p2657
(lp2658
Vmystaceus
p2659
asVJapalura
p2660
(lp2661
Vpolygonata
p2662
asVCeratophora
p2663
(lp2664
Vstoddartii
p2665
asVIntellagama
p2666
(lp2667
Vlesueurii
p2668
asVAgama
p2669
(lp2670
Vplaniceps
p2671
asVDraco
p2672
(lp2673
Vblanfordii
p2674
aVdussumieri
p2675
aVmaculatus
p2676
aVmelanopogon
p2677
aVspilopterus
p2678
assVEublepharidae
p2679
(dp2680
VGoniurosaurus
p2681
(lp2682
Vlichtenfelderi
p2683
asVHemitheconyx
p2684
(lp2685
Vcaudicinctus
p2686
assVTyphlopidae
p2687
(dp2688
VAnilios
p2689
(lp2690
Vgrypus
p2691
aVleptosoma
p2692
aVaustralis
p2693
aVsp.
p2694
assVPhrynosomatidae
p2695
(dp2696
VSceloporus
p2697
(lp2698
Vmagister
p2699
asVUma
p2700
(lp2701
Vscoparia
p2702
assVXenodontinae
p2703
(dp2704
VSibon
p2705
(lp2706
Vdimidiatus
p2707
asVPsomophis
p2708
(lp2709
Vgenimaculatus
p2710
assVDibamidae
p2711
(dp2712
VDibamus
p2713
(lp2714
Vbogadeki
p2715
assVCorytophanidae
p2716
(dp2717
VLaemanctus
p2718
(lp2719
Vlongipes
p2720
asVCorytophanes
p2721
(lp2722
Vpercarinatus
p2723
assVLacertidae
p2724
(dp2725
VAcanthodactylus
p2726
(lp2727
Verythrurus
p2728
asVTakydromus
p2729
(lp2730
Vsexlineatus
p2731
assVDiplodactylidae
p2732
(dp2733
VBavayia
p2734
(lp2735
Vrobusta
p2736
asVCrenadactylus
p2737
(lp2738
Vocellatus
p2739
asVOedodera
p2740
(lp2741
Vmarmorata
p2742
asVCorrelophus
p2743
(lp2744
Vciliatus
p2745
assVIguanidae
p2746
(dp2747
VGambelia
p2748
(lp2749
Vsila
p2750
asVBrachylophus
p2751
(lp2752
Vvitiensis
p2753
asVConolophus
p2754
(lp2755
Vsubcristatus
p2756
asVCtenosaura
p2757
(lp2758
Vhemilopha
p2759
asVAnolis
p2760
(lp2761
Vcristitellus
p2762
aVcarolinensis
p2763
aVporcatus
p2764
asVCrotaphytus
p2765
(lp2766
Vbicinctores
p2767
aVcollaris
p2768
asVBasiliscus
p2769
(lp2770
Vbasiliscus
p2771
aVvittatus
p2772
aVplumifrons
p2773
asVSauromalus
p2774
(lp2775
Vater
p2776
aVobesus
p2777
asVPhymaturus
p2778
(lp2779
Vpalluma
p2780
asVAmblyrhynchus
p2781
(lp2782
Vcristatus
p2783
asVIguana
p2784
(lp2785
Viguana
p2786
assVXenosauridae
p2787
(dp2788
VXenosaurus
p2789
(lp2790
Vrectocollaris
p2791
asVShinisaurus
p2792
(lp2793
Vcrocodilurus
p2794
assVDipsadidae
p2795
(dp2796
VCubophis
p2797
(lp2798
Vcantherigerus
p2799
aVvudii
p2800
asVOxyrhopus
p2801
(lp2802
Vguibei
p2803
asVOmoadiphas
p2804
(lp2805
Vaurula
p2806
assVHelodermatidae
p2807
(dp2808
VHeloderma
p2809
(lp2810
Vsuspectum
p2811
aVhorridum
p2812
assVColubrinae
p2813
(dp2814
VMastigodryas
p2815
(lp2816
Vmelanolomus
p2817
asVThelotornis
p2818
(lp2819
Vkirtlandii
p2820
asVOxybelis
p2821
(lp2822
Vaeneus
p2823
aVargenteus
p2824
asVElaphe
p2825
(lp2826
Vvulpina
p2827
aVobsoleta
p2828
aVtriaspis
p2829
aVradiata
p2830
asVSpilotes
p2831
(lp2832
Vpullatus
p2833
assVTropidurinae
p2834
(dp2835
VPlica
p2836
(lp2837
Vumbra
p2838
assVTropiduridae
p2839
(dp2840
VMicrolophus
p2841
(lp2842
Vperuvianus
p2843
asVLeiocephalus
p2844
(lp2845
Vinaguae
p2846
assVMosasauridae
p2847
(dp2848
VPlatecarpus
p2849
(lp2850
Vtympaniticus
p2851
assVLanthanotidae
p2852
(dp2853
VLanthanotus
p2854
(lp2855
Vborneensis
p2856
assVCarphodactylidae
p2857
(dp2858
VNephrurus
p2859
(lp2860
Vasper
p2861
asVPhyllurus
p2862
(lp2863
Vplaturus
p2864
assVTeiidae
p2865
(dp2866
VDracaena
p2867
(lp2868
Vguianensis
p2869
asVKentropyx
p2870
(lp2871
Vpelviceps
p2872
asVTeius
p2873
(lp2874
Vteyou
p2875
asVTupinambis
p2876
(lp2877
Vrufescens
p2878
asVDicrodon
p2879
(lp2880
Vguttulatum
p2881
asVCnemidophorus
p2882
(lp2883
Vmurinus
p2884
assVLamprophiinae
p2885
(dp2886
VSibynophis
p2887
(lp2888
Vcollaris
p2889
asVAparallactus
p2890
(lp2891
Vniger
p2892
aVmodestus
p2893
assVVaranidae
p2894
(dp2895
VVaranus
p2896
(lp2897
Volivaceus
p2898
aVniloticus
p2899
aVrudicollis
p2900
aVvarius
p2901
aVprasinus
p2902
assVScincidae
p2903
(dp2904
VTrachylepis
p2905
(lp2906
Vlaevis
p2907
aVsulcata
p2908
aVgonwouoi
p2909
aVacutilabrus
p2910
asVTiliqua
p2911
(lp2912
Vrugosa
p2913
asVAcontias
p2914
(lp2915
Vmeleagris
p2916
asVLerista
p2917
(lp2918
Vbipes
p2919
asVCorucia
p2920
(lp2921
Vzebrata
p2922
asVEgernia
p2923
(lp2924
Vstokesii
p2925
aVstriolata
p2926
aVwhitii
p2927
aVcunninghami
p2928
assVColubridae
p2929
(dp2930
VGyalopion
p2931
(lp2932
Vcanum
p2933
asVTrimorphodon
p2934
(lp2935
Vvilkinsonii
p2936
asVConopsis
p2937
(lp2938
Vbiserialis
p2939
asVLeptophis
p2940
(lp2941
Vdepressirostris
p2942
aVahaetulla
p2943
aVdiplotropis
p2944
aVmexicanus
p2945
asVXenopholis
p2946
(lp2947
Vscalaris
p2948
asVHeterodon
p2949
(lp2950
Vplatirhinos
p2951
asVHypsiglena
p2952
(lp2953
Vaffinis
p2954
asVClelia
p2955
(lp2956
Vclelia
p2957
asVErpeton
p2958
(lp2959
Vtentaculatum
p2960
asVDrymobius
p2961
(lp2962
Vchloroticus
p2963
asVProsymna
p2964
(lp2965
Vambigua
p2966
aVstuhlmanni 
p2967
aVbivitata
p2968
aVruspoli
p2969
aVsundevalli
p2970
aVvisseri
p2971
aVlineata
p2972
asVLiophidium
p2973
(lp2974
Vapperti
p2975
aVrhodogaster
p2976
aVtorquatum
p2977
asVTantilla
p2978
(lp2979
Vvermiformis
p2980
aVschistosa
p2981
aVcucullata
p2982
aVrelicta
p2983
aVmoesta
p2984
aVhobartsmithi
p2985
aVgracilis
p2986
aVcoronata
p2987
aVbocourti
p2988
aVatriceps
p2989
aVcalamarina
p2990
aVnigriceps
p2991
aVwilcoxi
p2992
asVImantodes
p2993
(lp2994
Vcenchoa
p2995
asVTaeniophallus
p2996
(lp2997
Voccipitalis
p2998
asVDasypeltis
p2999
(lp3000
Vscabra
p3001
asVOrthriophis
p3002
(lp3003
Vtaeniurus
p3004
asVLamprophis
p3005
(lp3006
Vfuliginosus
p3007
asVAhaetulla
p3008
(lp3009
Vnasuta
p3010
asVDromicodryas
p3011
(lp3012
Vquadrilineatus
p3013
asVFicimia
p3014
(lp3015
Vpublia
p3016
asVLampropeltis
p3017
(lp3018
Vpyromelana
p3019
asVDispholidus
p3020
(lp3021
Vtypus
p3022
asVMasticophis
p3023
(lp3024
Vflagellum
p3025
aVlateralis
p3026
aVbilineatus
p3027
asVPsammodynastes
p3028
(lp3029
Vpulverulentus
p3030
asVLeioheterodon
p3031
(lp3032
Vgeayi
p3033
aVmodestus
p3034
asVIthycyphus
p3035
(lp3036
Voursi
p3037
asVDipsas
p3038
(lp3039
Vcatesbyi
p3040
asVDrymarchon
p3041
(lp3042
Vmelanurus
p3043
aVcorais
p3044
asVAparallactus
p3045
(lp3046
Vcapensis 
p3047
aVlineatus
p3048
asVAmblyodipsas
p3049
(lp3050
Vpolylepis
p3051
assVGekkonidae
p3052
(dp3053
VDixonius
p3054
(lp3055
Vsiamensis
p3056
asVGeckolepis
p3057
(lp3058
Vhumbloti
p3059
aVmaculata
p3060
aVmegalepis
p3061
asVChondrodactylus
p3062
(lp3063
Vangulifer
p3064
asVStenodactylus
p3065
(lp3066
Varabicus
p3067
asVTropiocolotes
p3068
(lp3069
Vtripolitanus
p3070
asVUnknown
p3071
(lp3072
Vsp.
p3073
asVCyrtodactylus
p3074
(lp3075
Vfraenatus
p3076
asVUroplatus
p3077
(lp3078
Vebenaui
p3079
aVphantasticus
p3080
aVfimbriatus
p3081
asVPachydactylus
p3082
(lp3083
V
aVscutatus
p3084
asVPristurus
p3085
(lp3086
Vcrucifer
p3087
asVHemidactylus
p3088
(lp3089
Vturcicus
p3090
aVlavadeserticus
p3091
asVTeratoscincus
p3092
(lp3093
Vprzewalskii 
p3094
asVRhoptropus
p3095
(lp3096
V
aVbarnardi
p3097
aVboltoni
p3098
asVCyrtopodion
p3099
(lp3100
Vheterocercus
p3101
assVSphaerodactylidae
p3102
(dp3103
VLepidoblepharis
p3104
(lp3105
Vsanctaemartae
p3106
asVPseudogonatodes
p3107
(lp3108
Vbarbouri
p3109
asVSphaerodactylus
p3110
(lp3111
Vcaicosensis
p3112
asVSaurodactylus
p3113
(lp3114
Vmauritanicus
p3115
assVChamaeleonidae
p3116
(dp3117
VKinyongia
p3118
(lp3119
Vtavetana
p3120
aVtenue
p3121
aVtenuis
p3122
aVmatschiei
p3123
asVChamaeleo
p3124
(lp3125
Vzeylanicus
p3126
aVafricanus
p3127
aVcalcaricarens
p3128
aVnamaquensis
p3129
asVTrioceros
p3130
(lp3131
Vfeae
p3132
aVrudis
p3133
aVsternfeldi
p3134
aVserratus
p3135
asVFurcifer
p3136
(lp3137
Voustaleti
p3138
aVbifidus
p3139
aVbalteatus
p3140
aVrhinoceratus
p3141
asVCalumma
p3142
(lp3143
Vparsonii
p3144
aVtigris
p3145
asVRieppeleon
p3146
(lp3147
Vbrevicaudatus
p3148
asVBrookesia
p3149
(lp3150
Vsuperciliaris
p3151
aVperarmata
p3152
asVRhampholeon
p3153
(lp3154
Vbrevicaudatus
p3155
asVBradypodion
p3156
(lp3157
Vpumilum
p3158
aVdracomontanum
p3159
aVsetaroi
p3160
aVoccidentale
p3161
aVgutturale
p3162
aVventrale
p3163
assVPhyllodactylidae
p3164
(dp3165
VTarentola
p3166
(lp3167
Vmauritanica 
p3168
asVThecadactylus
p3169
(lp3170
Vrapicauda
p3171
assVBoidae
p3172
(dp3173
VTitanoboa
p3174
(lp3175
Vcerrejonensis
p3176
asVBoa
p3177
(lp3178
Vconstrictor
p3179
asVEunectes
p3180
(lp3181
Vmurinus
p3182
assVViperidae
p3183
(dp3184
VAtheris
p3185
(lp3186
Vceratophora
p3187
asVGloydius
p3188
(lp3189
Vussuriensis
p3190
asVCrotalus
p3191
(lp3192
Vdurissus
p3193
aVviridis
p3194
asVLachesis
p3195
(lp3196
Vstenophrys
p3197
asVAzemiops
p3198
(lp3199
Vfeae
p3200
asVBothrops
p3201
(lp3202
Vsp
p3203
aVatrox
p3204
aVmoojeni
p3205
aVasper
p3206
asVAgkistrodon
p3207
(lp3208
Vcaliginosus
p3209
asVCerastes
p3210
(lp3211
Vcerastes
p3212
assVGerrhosauridae
p3213
(dp3214
VGerrhosaurus
p3215
(lp3216
Vmajor
p3217
aVvalidus
p3218
assVIguaninae
p3219
(dp3220
VCyclura
p3221
(lp3222
Vcornuta
p3223
aVpinguis
p3224
assVRhineuridae
p3225
(dp3226
VRhineura
p3227
(lp3228
Vfloridana
p3229
assVGekkoninae
p3230
(dp3231
VGekko
p3232
(lp3233
Vgecko
p3234
aVsmithii
p3235
assVCordylidae
p3236
(dp3237
VSmaug
p3238
(lp3239
Vgiganteus
p3240
aVwarreni
p3241
aVdepressus
p3242
aVbarbertonensis
p3243
asVPlatysaurus
p3244
(lp3245
Vguttatus
p3246
asVCordylus
p3247
(lp3248
Vmarunguensis
p3249
aVangolensis
p3250
aVnamakuiyus
p3251
aVcordylus
p3252
assVAnguidae
p3253
(dp3254
VElgaria
p3255
(lp3256
Vcoerulea
p3257
aVpanamintina
p3258
aVmulticarinata
p3259
asssVCrocodylia
p3260
(dp3261
VCrocodylidae
p3262
(dp3263
VCrocodylus
p3264
(lp3265
Vjohnsoni
p3266
aVsiamensis
p3267
aVmindorensis
p3268
assVGavialidae
p3269
(dp3270
VTomistoma
p3271
(lp3272
Vschlegelii
p3273
asVGavialis
p3274
(lp3275
Vgangeticus
p3276
assVAlligatoridae
p3277
(dp3278
VAlligator
p3279
(lp3280
Vmississippiensis
p3281
asVPaleosuchus
p3282
(lp3283
Vtrigonatus
p3284
asssVSaurischia
p3285
(dp3286
VGrallatoridae
p3287
(dp3288
VGrallator
p3289
(lp3290
Vsp.
p3291
asssVEosuchia
p3292
(dp3293
VGoniopholididae
p3294
(dp3295
VDakotasuchus
p3296
(lp3297
Vkingi
p3298
assV
(dp3299
VOrovenator
p3300
(lp3301
Vmayorum
p3302
asVTriopticus
p3303
(lp3304
Vprimus
p3305
assVParasuchidae
p3306
(dp3307
VWannia
p3308
(lp3309
Vscurriensis
p3310
asssVSauria
p3311
(dp3312
sVTestudines
p3313
(dp3314
VEmydidae
p3315
(dp3316
VTrachemys
p3317
(lp3318
Vinflata
p3319
assVChelidae
p3320
(dp3321
VPhrynops
p3322
(lp3323
Vhilarii
p3324
assVGeoemydidae
p3325
(dp3326
VMelanochelys
p3327
(lp3328
Vtrijuga
p3329
asVCuora
p3330
(lp3331
Vflavomarginata
p3332
aVamboinensis
p3333
assVKinosternidae
p3334
(dp3335
VKinosternon
p3336
(lp3337
Vhirtipes
p3338
aVintegrum
p3339
assVChelydridae
p3340
(dp3341
VMacrochelys
p3342
(lp3343
Vtemminckii
p3344
asVChelydra
p3345
(lp3346
Vserpentina
p3347
asssVRhynchocephalia
p3348
(dp3349
VSphenodontidae
p3350
(dp3351
VSphenodon
p3352
(lp3353
Vpunctatus
p3354
assssVMammalia
p3355
(dp3356
V
(dp3357
V
(dp3358
VWidanelfarasia
p3359
(lp3360
Vbowni
p3361
assVAdapisoriculidae
p3362
(dp3363
VAfrodon
p3364
(lp3365
Vgheerbranti
p3366
asVBustylus
p3367
(lp3368
Vmarandati
p3369
assVSudamericidae
p3370
(dp3371
VVintana
p3372
(lp3373
Vsertichi
p3374
assVPtolemaiidae
p3375
(dp3376
VPtolemaia
p3377
(lp3378
Vgrangeri
p3379
asssVInsectivora
p3380
(dp3381
VApatemyidae
p3382
(dp3383
VApatemys
p3384
(lp3385
Vchardini
p3386
asVLabidolemur
p3387
(lp3388
Vkayi
p3389
assVDormaaliidae
p3390
(dp3391
VTalpavoides
p3392
(lp3393
Vdartoni
p3394
asVScenopagus
p3395
(lp3396
Vsp.
p3397
asVCrypholestes
p3398
(lp3399
Vvaughni
p3400
asssVDocodonta
p3401
(dp3402
VDocodontidae
p3403
(dp3404
VKrusatodon
p3405
(lp3406
Vkirtlingtonensis
p3407
asssVPholidota
p3408
(dp3409
VManidae
p3410
(dp3411
VManis
p3412
(lp3413
Vsp.
p3414
asssVRodentia
p3415
(dp3416
V
(dp3417
VTexomys
p3418
(lp3419
Vstewarti
p3420
aVsp. 
p3421
asVMubhammys
p3422
(lp3423
Vvadumensis
p3424
asVBirkamys
p3425
(lp3426
Vkorai
p3427
assVMuridae
p3428
(dp3429
VMicromys
p3430
(lp3431
Vminutus
p3432
asVMus
p3433
(lp3434
Vmusculus
p3435
asVApomys
p3436
(lp3437
Vmicrodon
p3438
asVMeriones
p3439
(lp3440
Vhurrianae
p3441
asVAkodon
p3442
(lp3443
Vaffinis
p3444
asVPhloeomys
p3445
(lp3446
Vcumingi
p3447
asVGerbillus
p3448
(lp3449
Vcheesmani
p3450
aVnanus
p3451
asVRattus
p3452
(lp3453
Vturkestanicus
p3454
aVpyctoris
p3455
asVRhizomys
p3456
(lp3457
Vsumatrensis
p3458
asVNesokia
p3459
(lp3460
Vindica
p3461
asVPsammomys
p3462
(lp3463
Vobesus
p3464
asVPrionomys
p3465
(lp3466
Vbatesi
p3467
asVAcomys
p3468
(lp3469
Vcahirinus
p3470
asVTatera
p3471
(lp3472
Vindica
p3473
assVNesomyidae
p3474
(dp3475
VCricetomys
p3476
(lp3477
Vgambianus
p3478
assVCaviidae
p3479
(dp3480
VProdolichotis
p3481
(lp3482
Vpridiana
p3483
asVPhugatherium
p3484
(lp3485
Vdichroplax
p3486
assVCuniculidae
p3487
(dp3488
VCuniculus
p3489
(lp3490
Vpaca
p3491
assVReithroparamyidae
p3492
(dp3493
VReithroparamys
p3494
(lp3495
Vsp.
p3496
assVAlagomyidae
p3497
(dp3498
VAlagomys
p3499
(lp3500
Vrusselli
p3501
aVdashzevegi
p3502
aVsp.
p3503
assVErethizontidae
p3504
(dp3505
VCoendou
p3506
(lp3507
Vprehensilis
p3508
asVErethizon
p3509
(lp3510
Vdorsatum
p3511
assVIschyromyidae
p3512
(dp3513
VAcritoparamys
p3514
(lp3515
Vatavus
p3516
aVatwateri
p3517
asVMicroparamys
p3518
(lp3519
Vcheradius
p3520
asVParamys
p3521
(lp3522
Vdelicatus
p3523
asVIschyromys
p3524
(lp3525
Vtypus
p3526
assVSciuridae
p3527
(dp3528
VDremomys
p3529
(lp3530
Vrufigenis
p3531
asVHeliosciurus
p3532
(lp3533
Vrufobrachium
p3534
asVSpermophilus
p3535
(lp3536
Vsp.
p3537
asVHylopetes
p3538
(lp3539
Vspadiceus
p3540
asVTamiasciurus
p3541
(lp3542
Vdouglasii
p3543
asVGlaucomys
p3544
(lp3545
Vvolans
p3546
asVLariscus
p3547
(lp3548
Vinsignis
p3549
asVPetinomys
p3550
(lp3551
Vsetosus
p3552
asVProtoxerus
p3553
(lp3554
Vstangeri
p3555
asVParaxerus
p3556
(lp3557
Vcepapi
p3558
asVCallosciurus
p3559
(lp3560
Vsp
p3561
asVEutamias
p3562
(lp3563
Vminimus
p3564
asVPetaurista
p3565
(lp3566
Vpetaurista
p3567
asVFunisciurus
p3568
(lp3569
Vpyrropus
p3570
asVRatufa
p3571
(lp3572
Vaffinis
p3573
asVRhinosciurus
p3574
(lp3575
Vlaticaudatus
p3576
asVSciurus
p3577
(lp3578
Vcarolinensis
p3579
aVgranatensis
p3580
aVsp.
p3581
asVAeromys
p3582
(lp3583
Vtephromelas
p3584
assVCricetidae
p3585
(dp3586
VOtotylomys
p3587
(lp3588
Vphyllotis
p3589
asVNyctomys
p3590
(lp3591
Vsumichrasti
p3592
asVCopemys
p3593
(lp3594
Vlindsayi
p3595
asVPeromyscus
p3596
(lp3597
Vgossypinus
p3598
aVpulverulenus
p3599
aVleucopus
p3600
asVMyodes
p3601
(lp3602
Vgapperi
p3603
asVOchrotomys
p3604
(lp3605
Vnuttalli
p3606
asVOnychomys
p3607
(lp3608
Vtorridus
p3609
asVAlticola
p3610
(lp3611
Vargentatus
p3612
asVNeofiber
p3613
(lp3614
Valleni
p3615
asVBaiomys
p3616
(lp3617
Vtaylori
p3618
asVNeotoma
p3619
(lp3620
Valbigula
p3621
aVcinerea
p3622
aVfloridana
p3623
asVLemmus
p3624
(lp3625
Vtrimucronatus
p3626
asVNectomys
p3627
(lp3628
Vsquamipes
p3629
asVSynaptomys
p3630
(lp3631
Vcooperi
p3632
asVMesocricetus
p3633
(lp3634
Vauratus
p3635
asVPodomys
p3636
(lp3637
Vfloridanus
p3638
asVMicrotus
p3639
(lp3640
Vochrogaster
p3641
aVmontanus
p3642
aVpinetorum
p3643
asVHyperacrius
p3644
(lp3645
Vfertilis
p3646
asVReithrodontomys
p3647
(lp3648
Vhumulis
p3649
aVmegalotis
p3650
assVDipodidae
p3651
(dp3652
VZapus
p3653
(lp3654
Vhudsonius
p3655
asVNapaeozapus
p3656
(lp3657
Vinsignis
p3658
asVAllactaga
p3659
(lp3660
Vmajor
p3661
assVUnidentified
p3662
(dp3663
VRodent
p3664
(lp3665
Vsp.
p3666
assVAplodontidae
p3667
(dp3668
VAplodontia
p3669
(lp3670
Vrufa
p3671
asVCedromus
p3672
(lp3673
Vwilsoni
p3674
assVHeteromyidae
p3675
(dp3676
VChaetodipus
p3677
(lp3678
Vintermedius
p3679
asVDipodomys
p3680
(lp3681
Vordii
p3682
aVspectabilis
p3683
aVmerriami
p3684
asVHeteromys
p3685
(lp3686
Vdesmarestianus
p3687
assVNementchamyidae
p3688
(dp3689
VKabirmys
p3690
(lp3691
Vqarunensis
p3692
asssVNotoungulata
p3693
(dp3694
VInteratheriidae
p3695
(dp3696
VMiocochilius
p3697
(lp3698
Vanomopodus
p3699
asssVScandentia
p3700
(dp3701
VTupaiidae
p3702
(dp3703
VUrogale
p3704
(lp3705
Veveretti
p3706
asVTupaia
p3707
(lp3708
Vglis
p3709
aVminor
p3710
aVmontana
p3711
aVsp. (cf. glis)
p3712
aVbelangeri
p3713
aVsp.
p3714
aVtana
p3715
aVpalawanensis
p3716
asVDendrogale
p3717
(lp3718
Vminor
p3719
aVmelanura
p3720
aVmurina
p3721
assVPtilocercidae
p3722
(dp3723
VPtilocercus
p3724
(lp3725
Vlowii
p3726
asssVPilosa
p3727
(dp3728
VMegatheriidae
p3729
(dp3730
VEremotherium
p3731
(lp3732
Veomigrans
p3733
assVBradypodidae
p3734
(dp3735
VBradypus
p3736
(lp3737
Vvariegatus
p3738
aVtridactylus 
p3739
assVMegalonychidae
p3740
(dp3741
VCholoepus
p3742
(lp3743
Vsp.
p3744
aVdidactylus 
p3745
aVhoffmanni
p3746
asVMegalonyx
p3747
(lp3748
Vjeffersoni
p3749
aVleptostomus
p3750
asVAcratocnus
p3751
(lp3752
Vye
p3753
asVNeocnus
p3754
(lp3755
Vcomes
p3756
aVdousman
p3757
asVParocnus
p3758
(lp3759
Vserus
p3760
asssVHyracoidea
p3761
(dp3762
VPliohyracidae
p3763
(dp3764
VThyrohyrax
p3765
(lp3766
Vmeyeri
p3767
aVdomorictus
p3768
aVlitholagus
p3769
asVSaghatherium
p3770
(lp3771
Vbowni
p3772
aVantiquum
p3773
assVProcaviidae
p3774
(dp3775
VProcavia
p3776
(lp3777
Vtransvaalensis
p3778
aVantiqua
p3779
aVsp.
p3780
aVcapensis
p3781
asssVUnplaced
p3782
(dp3783
VPeradectidae
p3784
(dp3785
VMimoperadectes
p3786
(lp3787
Vlabrus
p3788
asVPeradectes
p3789
(lp3790
Vprotinnominatus
p3791
asssVMicrobiotheria
p3792
(dp3793
VMicrobiotheriidae
p3794
(dp3795
VDromiciops
p3796
(lp3797
Vgliroides
p3798
asssVCimolesta
p3799
(dp3800
VPalaeoryctidae
p3801
(dp3802
VDidelphodus
p3803
(lp3804
Vabsarokae
p3805
aVsp.
p3806
asVEoryctes
p3807
(lp3808
Vmelanus
p3809
asssVPaucituberculata
p3810
(dp3811
VCaenolestidae
p3812
(dp3813
VRhyncholestes
p3814
(lp3815
Vraphanurus
p3816
asVLestoros
p3817
(lp3818
Vinca
p3819
asVPalaeothentes
p3820
(lp3821
Vminutus
p3822
asssVPerissodactyla
p3823
(dp3824
VHyrachyidae
p3825
(dp3826
VHyrachyus
p3827
(lp3828
Vmodestus
p3829
assVEquidae
p3830
(dp3831
VAnchitherium
p3832
(lp3833
Vclarencei
p3834
asVNeohipparion
p3835
(lp3836
Veurystyle
p3837
aVtrampasense
p3838
asVNannippus
p3839
(lp3840
Vpeninsulatus
p3841
aVaztecus
p3842
asVDinohippus
p3843
(lp3844
Vmexicanus
p3845
asVArchaeohippus
p3846
(lp3847
Vblackbergi
p3848
asVMesohippus
p3849
(lp3850
Vbairdi
p3851
aVsp.
p3852
asVPropalaeotherium
p3853
(lp3854
Visselanum
p3855
asVParahippus
p3856
(lp3857
Vleonensis
p3858
aVbarbouri
p3859
asVEurygnathohippus
p3860
(lp3861
Vcornelianus
p3862
asVSifrhippus
p3863
(lp3864
Vsandrae
p3865
asVCalippus
p3866
(lp3867
Vcerasinus
p3868
aVelachistus
p3869
asVEquus
p3870
(lp3871
Vsimplicidens
p3872
assVPalaeotheriidae
p3873
(dp3874
VMetanchilophus
p3875
(lp3876
Vcastrensis
p3877
asVPalaeotherium
p3878
(lp3879
Vlautricense
p3880
aVcurtum
p3881
aVmagnum
p3882
aVsp.
p3883
asVPlagiolophus
p3884
(lp3885
Vannectens
p3886
aVminor
p3887
assVTapiridae
p3888
(dp3889
VTapirus
p3890
(lp3891
Vhaysii
p3892
aVlundeliusi
p3893
aVveroensis
p3894
assVRhinocerotidae
p3895
(dp3896
VDiceros
p3897
(lp3898
Vbicornis
p3899
asVCeratotherium
p3900
(lp3901
Vsimum
p3902
asVDiaceratherium
p3903
(lp3904
Vlamilloquense
p3905
asVStephanorhinus
p3906
(lp3907
Vetruscus
p3908
asVRhinoceros
p3909
(lp3910
Vunicornis
p3911
asVProsantorhinus
p3912
(lp3913
Vdouvillei
p3914
asVBrachypotherium
p3915
(lp3916
Vbrachypus
p3917
asVDicerorhinus
p3918
(lp3919
Vsumatrensis
p3920
asVMolassitherium
p3921
(lp3922
Valbigense
p3923
assVLophiodontidae
p3924
(dp3925
VLophiodon
p3926
(lp3927
Visselense
p3928
aVlautricense
p3929
asssVDiprotodontia
p3930
(dp3931
VPhascolarctidae
p3932
(dp3933
VPhascolarctos
p3934
(lp3935
Vcinereus
p3936
assVPotoroidae
p3937
(dp3938
VBettongia
p3939
(lp3940
Vtropica
p3941
asVAepyprymnus
p3942
(lp3943
Vrufescens
p3944
asVPotorous
p3945
(lp3946
Vtridactylus
p3947
assVPetauridae
p3948
(dp3949
VDactylopsila
p3950
(lp3951
Vtrivirgata
p3952
assVVombatidae
p3953
(dp3954
VLasiorhinus
p3955
(lp3956
Vlatifrons
p3957
aVkrefftii
p3958
asVVombatus
p3959
(lp3960
Vursinus
p3961
assVMacropodidae
p3962
(dp3963
VMacropus
p3964
(lp3965
Veugenii
p3966
aVrufus
p3967
asVDendrolagus
p3968
(lp3969
Vinustus
p3970
assVPhalangeridae
p3971
(dp3972
VTrichosurus
p3973
(lp3974
Vvulpecula
p3975
asssVArtiodactyla
p3976
(dp3977
VGiraffidae
p3978
(dp3979
VGiraffa
p3980
(lp3981
Vcamelopardalis 
p3982
assVBovidae
p3983
(dp3984
VAntidorcas
p3985
(lp3986
Vrecki
p3987
asVRedunca
p3988
(lp3989
Vsp.
p3990
assVMerycoidodontidae
p3991
(dp3992
VMiniochoerus
p3993
(lp3994
Vgracilis
p3995
assVAnthracotheriidae
p3996
(dp3997
VBothriogenys
p3998
(lp3999
Vfraasi
p4000
aVrugulosus
p4001
assVSuidae
p4002
(dp4003
VPhacochoerus
p4004
(lp4005
Vantiquus
p4006
asVConohyus
p4007
(lp4008
Vsp.
p4009
asVMetridiochoerus
p4010
(lp4011
Vandrewsi
p4012
aVsp.
p4013
asVListriodon
p4014
(lp4015
Vsp.
p4016
assVCervidae
p4017
(dp4018
VCervalces
p4019
(lp4020
Vscotti
p4021
assVOreodontidae
p4022
(dp4023
VMerycoidodon
p4024
(lp4025
Vculbertsoni
p4026
asssVAfrosoricida
p4027
(dp4028
VTenrecidae
p4029
(dp4030
VTenrec
p4031
(lp4032
Vecaudatus
p4033
asVSetifer
p4034
(lp4035
Vsetosus
p4036
asVPotamogale
p4037
(lp4038
Vvelox
p4039
asVHemicentetes
p4040
(lp4041
Vsemispinosus
p4042
asVEchinops
p4043
(lp4044
Vtelfairi
p4045
asssVDasyuromorphia
p4046
(dp4047
VDasyuridae
p4048
(dp4049
VDasyurus
p4050
(lp4051
Vviverrinus
p4052
asVPlanigale
p4053
(lp4054
Vingrami
p4055
asVAntechinus
p4056
(lp4057
Vflavipes
p4058
asssVCetacea
p4059
(dp4060
VDelphinidae
p4061
(dp4062
VGlobicephala
p4063
(lp4064
Vmacrorhynchus
p4065
asVSteno
p4066
(lp4067
Vbredanensis
p4068
asVOrcinus
p4069
(lp4070
Vorca
p4071
asVStenella
p4072
(lp4073
Vattenuata
p4074
assVBalaenopteridae
p4075
(dp4076
VBalaenoptera
p4077
(lp4078
Vbonaerensis
p4079
aVphysalus
p4080
asVMegaptera
p4081
(lp4082
Vnovaeangliae
p4083
assVPhyseteridae
p4084
(dp4085
VKogia
p4086
(lp4087
Vbreviceps
p4088
assVIniidae
p4089
(dp4090
VPontoporia
p4091
(lp4092
Vblainvillei
p4093
asssVPrimates
p4094
(dp4095
V
(dp4096
VCarlocebus
p4097
(lp4098
Vcarmenensis
p4099
asVAfradapis
p4100
(lp4101
Vlongicristatus
p4102
aVSpecies-new
p4103
asVKaranisia
p4104
(lp4105
Vclarki
p4106
aVarenula
p4107
asVEquatorius
p4108
(lp4109
Vafricanus
p4110
asVArsinoea
p4111
(lp4112
Vkallimos
p4113
asVMasradapis
p4114
(lp4115
Vtahai
p4116
asVPlesiopithecus
p4117
(lp4118
Vteras
p4119
assVAotidae
p4120
(dp4121
VAotus
p4122
(lp4123
Vazarae
p4124
aVnigriceps
p4125
aVinfulatus
p4126
aVtrivirgatus
p4127
aVlemurinus
p4128
aVsp.
p4129
assVPlesiadapidae
p4130
(dp4131
VPlesiadapis
p4132
(lp4133
Vcookei
p4134
aVrex
p4135
aVtricuspidens
p4136
aVfodinatus
p4137
aVchurchilli
p4138
aVpraecursor
p4139
aVanceps
p4140
aVdubius
p4141
aVsp.
p4142
asVPronothodectes
p4143
(lp4144
Vmatthewi
p4145
aVjepi
p4146
aVgaoi
p4147
asVPlatychoerops
p4148
(lp4149
Vdaubrei
p4150
aVantiquus
p4151
aVsp.
p4152
asVNannodectes
p4153
(lp4154
Vgazini
p4155
aVintermedius
p4156
aVsimpsoni
p4157
aVgidleyi
p4158
asVChiromyoides
p4159
(lp4160
Vsp.
p4161
aVcampanicus
p4162
assVEosimiidae
p4163
(dp4164
VEosimias
p4165
(lp4166
Vsinensis
p4167
assVParomomyidae
p4168
(dp4169
VElwynella
p4170
(lp4171
Voreas
p4172
asVParomomys
p4173
(lp4174
Vdepressidens
p4175
aVmaturus
p4176
aVfarrandi
p4177
asVPhenacolemur
p4178
(lp4179
Varchus
p4180
aVcitatus
p4181
aVfortior
p4182
aVpraecox
p4183
aVsimonsi
p4184
aVwillwoodensis
p4185
aVpraecox-fortior
p4186
aVjepseni
p4187
aVpagei
p4188
asVAcidomomys
p4189
(lp4190
Vhebeticus
p4191
asVArcius
p4192
(lp4193
Vrougeri
p4194
aVlapparenti
p4195
aVfuscus
p4196
asVPalaechthon
p4197
(lp4198
Vproblematicus
p4199
asVIgnacius
p4200
(lp4201
Vgraybullianus
p4202
aVfrugivorus
p4203
aVclarkforkensis
p4204
aVfremontensis
p4205
asVEdworthia
p4206
(lp4207
Vlerbekmoi
p4208
assVCebidae
p4209
(dp4210
VCebupithecia
p4211
(lp4212
Vsarmientoi
p4213
asVCebus
p4214
(lp4215
Vapella
p4216
aVcapucinus
p4217
aVSp.
p4218
aVolivaceus
p4219
aValbifrons
p4220
asVDolichocebus
p4221
(lp4222
Vgaimanensis
p4223
asVHomunculus
p4224
(lp4225
Vtatacoensis
p4226
aVpatagonicus
p4227
asVTremacebus
p4228
(lp4229
Vharringtoni
p4230
asVCallimico
p4231
(lp4232
Vgoeldii
p4233
asVPanamacebus
p4234
(lp4235
Vtransitus
p4236
asVBranisella
p4237
(lp4238
Vboliviana
p4239
asVCallithrix
p4240
(lp4241
Vjacchus
p4242
aVpygmaea
p4243
aVsp.
p4244
aVargentata
p4245
aVhumeralifera
p4246
aVargentina
p4247
aVgeoffroyi
p4248
asVNeosaimiri
p4249
(lp4250
Vfieldsi
p4251
asVLeontopithecus
p4252
(lp4253
Vrosalia
p4254
asVSaimiri
p4255
(lp4256
Vboliviensis
p4257
aVsciureus
p4258
aVoerstedii
p4259
aVsanguinus
p4260
aVsaguinus
p4261
assVAdapidae
p4262
(dp4263
VMahgarita
p4264
(lp4265
Vstevensi
p4266
asVDonrussellia
p4267
(lp4268
Vprovincialis
p4269
asVAnchomomys
p4270
(lp4271
Vfrontanyensis
p4272
asVAdapoides
p4273
(lp4274
Vtroglodytes
p4275
asVCaenopithecus
p4276
(lp4277
Vlemuroides
p4278
asVAdapis
p4279
(lp4280
Vparisiensis
p4281
aVsp.
p4282
aVschlosseri
p4283
asVMicrochoerus
p4284
(lp4285
Verinaceus
p4286
asVNotharctus
p4287
(lp4288
Vventicolus
p4289
asVLeptadapis
p4290
(lp4291
Vmagnus
p4292
aVleenhardti
p4293
assVOligopithecidae
p4294
(dp4295
VCatopithecus
p4296
(lp4297
Vbrowni
p4298
assVCheirogaleidae
p4299
(dp4300
VMicrocebus
p4301
(lp4302
Vmurinus
p4303
aVcoquereli
p4304
aVgriseorufus
p4305
aVrufus
p4306
aVsp.
p4307
asVPhaner
p4308
(lp4309
Vfurcifer
p4310
asVMirza
p4311
(lp4312
Vcoquereli
p4313
aVzaza
p4314
asVCheirogaleus
p4315
(lp4316
Vmajor
p4317
aVmedius
p4318
aVsp.
p4319
assVCallitrichidae
p4320
(dp4321
VCebuella
p4322
(lp4323
Vpygmaea
p4324
asVSaguinus
p4325
(lp4326
Vmidas
p4327
aVmystax
p4328
aVoedipus
p4329
aVsp.
p4330
aVfuscicollis
p4331
assVPalaechthonidae
p4332
(dp4333
VPremnoides
p4334
(lp4335
Vdouglassi
p4336
assVSaxonellidae
p4337
(dp4338
VSaxonella
p4339
(lp4340
Vnaylori
p4341
aVcrepaturae
p4342
assVIndridae
p4343
(dp4344
VAvahi
p4345
(lp4346
Vlaniger
p4347
asVIndri
p4348
(lp4349
Vindri
p4350
asVPropithecus
p4351
(lp4352
Vdiadema
p4353
aVverreauxi
p4354
aVcoquereli
p4355
aVsp.
p4356
assVProteopithecidae
p4357
(dp4358
VSerapia
p4359
(lp4360
Veocaena
p4361
asVProteopithecus
p4362
(lp4363
Vsylviae
p4364
assVPitheciinae
p4365
(dp4366
VPithecia
p4367
(lp4368
Vmonachus
p4369
aVpithecia
p4370
aVhirsuta
p4371
assVCarpolestidae
p4372
(dp4373
VElphidotarsius
p4374
(lp4375
Vrusselli
p4376
aVcf. florencae
p4377
aVsp.
p4378
asVCarpolestes
p4379
(lp4380
Vsimpsoni
p4381
aVnigridens
p4382
aVdubius
p4383
aVhazelae
p4384
assVPurgatoriidae
p4385
(dp4386
VPurgatorius
p4387
(lp4388
Vsp.
p4389
aVcoracis
p4390
aVjanisae
p4391
assVPitheciidae
p4392
(dp4393
VCacajao
p4394
(lp4395
Vcalvus
p4396
aVmelanocephalus
p4397
aVsp.
p4398
asVChiropotes
p4399
(lp4400
Valbinasus
p4401
aVsatanas
p4402
aVsp.
p4403
aVchiropotes
p4404
asVCallicebus
p4405
(lp4406
Vsp.
p4407
assVTarsiidae
p4408
(dp4409
VTarsius
p4410
(lp4411
Vbancanus
p4412
aVborneanus
p4413
aVspectrum
p4414
aVsyricta
p4415
aVtarsier
p4416
aVsyrichta
p4417
aVsp.
p4418
asVCarlito
p4419
(lp4420
Vsyrichta
p4421
asVCephalopachus
p4422
(lp4423
Vbancanus
p4424
assVAtelidae
p4425
(dp4426
VAlouatta
p4427
(lp4428
Vpalliata
p4429
aVseniculus
p4430
aVcaraya
p4431
aVsp.
p4432
aVpaliatta
p4433
asVBrachyteles
p4434
(lp4435
Varachnoides
p4436
asVStirtonia
p4437
(lp4438
Vtatacoensis
p4439
aVvictoriae
p4440
asVAteles
p4441
(lp4442
Vbelzebuth
p4443
aVgeoffroyi
p4444
aVpaniscus
p4445
aVsp.
p4446
aVfusciceps
p4447
aVmarginatus
p4448
asVLagothrix
p4449
(lp4450
Vsp
p4451
aVlagotricha
p4452
aVlugens
p4453
aVlagothricha
p4454
assVArchaeolemuridae
p4455
(dp4456
VHadropithecus
p4457
(lp4458
Vspp.
p4459
aVstenognathus
p4460
asVArchaeolemur
p4461
(lp4462
Vcf. edwardsi
p4463
aVsp.
p4464
aVmajori
p4465
assVNotharctidae
p4466
(dp4467
VAsiadapis
p4468
(lp4469
Vcambayensis
p4470
aVtapiensis
p4471
asVCantius
p4472
(lp4473
Vralstoni
p4474
aVtrigonodus
p4475
aVmckennai
p4476
aVfrugivorus
p4477
aVabditus
p4478
aVtorresi
p4479
aVnuniensis
p4480
aVfrugivorous
p4481
aVsp.
p4482
asVMarcgodinotius
p4483
(lp4484
Vindicus
p4485
asVNotharctus
p4486
(lp4487
Vsp.
p4488
aVtenebrosus
p4489
aVpugnax
p4490
aVrobustior
p4491
asVSmilodectes
p4492
(lp4493
Vsp.
p4494
aVgracilis
p4495
aVmcgrewi
p4496
assVAzibiidae
p4497
(dp4498
VAzibius
p4499
(lp4500
Vtrerki
p4501
aVsp
p4502
assVDendropithecidae
p4503
(dp4504
VMicropithecus
p4505
(lp4506
Vleakeyorum
p4507
assVParapithecidae
p4508
(dp4509
VParapithecus
p4510
(lp4511
Vgrangeri
p4512
aVfraasi
p4513
asVApidium
p4514
(lp4515
Vphiomense
p4516
aVsp.
p4517
aVbowni
p4518
aVmoustafi
p4519
aVmoustafai
p4520
asVQatrania
p4521
(lp4522
Vsp.
p4523
aVwingi
p4524
aVfleaglei
p4525
assVMicrosyopidae
p4526
(dp4527
VMicrosyops
p4528
(lp4529
Vscottianus
p4530
asVNiptomomys
p4531
(lp4532
Vdoreenae
p4533
assVOmomyidae
p4534
(dp4535
VRooneyia
p4536
(lp4537
Vviejaensis
p4538
asVWashakius
p4539
(lp4540
Vinsignis
p4541
aVizetti
p4542
asVTeilhardina
p4543
(lp4544
Vamericana
p4545
aVbelgica
p4546
aVbrandti
p4547
aVsp.
p4548
asVHemiacodon
p4549
(lp4550
Vgracilis
p4551
asVArapahovius
p4552
(lp4553
Vgazini
p4554
asVAbsarokius
p4555
(lp4556
Vsp.
p4557
aVabbotti
p4558
asVShoshonius
p4559
(lp4560
Vcooperi
p4561
asVOurayia
p4562
(lp4563
Vuintensis
p4564
asVNecrolemur
p4565
(lp4566
Vantiquus
p4567
aVzitteli
p4568
aVsp.
p4569
asVTetonius
p4570
(lp4571
Vhomunculus
p4572
aVmatthewi
p4573
asVAnemorhysis
p4574
(lp4575
Vpearcei
p4576
asVVastanomys
p4577
(lp4578
Vgracilis
p4579
aVmajor
p4580
aVsp.
p4581
assVGalagidae
p4582
(dp4583
VGalago
p4584
(lp4585
Vsenegalensis
p4586
aValleni
p4587
aVdemidovii
p4588
aVmoholi
p4589
aVzanzibaricus
p4590
aVdemidoff
p4591
asVOtolemur
p4592
(lp4593
Vcrassicaudatus
p4594
aVgarnetti
p4595
aVgarnettii
p4596
asVSaharagalago
p4597
(lp4598
Vmisrensis
p4599
asVEuoticus
p4600
(lp4601
Velegantulus
p4602
asVWadilemur
p4603
(lp4604
Velegans
p4605
assVPliopithecidae
p4606
(dp4607
VAegyptopithecus
p4608
(lp4609
Vzeuxis
p4610
asVOligopithecus
p4611
(lp4612
Vsavagei
p4613
asVPropliopithecus
p4614
(lp4615
Vchirobates
p4616
aV(?)
p4617
aV(sp?)
p4618
aVcheirorates
p4619
aVsp.
p4620
aVankeli
p4621
assVHomunculidae
p4622
(dp4623
VMazzonicebus
p4624
(lp4625
V almendrae
p4626
asVSoriacebus
p4627
(lp4628
Vameghinorum
p4629
assVLemuridae
p4630
(dp4631
VPachylemur
p4632
(lp4633
Vinsignis
p4634
asVLemur
p4635
(lp4636
Vcatta
p4637
aVsp.
p4638
asVProlemur
p4639
(lp4640
Vsimus
p4641
asVHapalemur
p4642
(lp4643
Vgiseus
p4644
aVgriseus
p4645
aVsimus
p4646
asVVarecia
p4647
(lp4648
Vvariegata
p4649
asVEulemur
p4650
(lp4651
Vfulvus
p4652
aVsp.
p4653
aVcoronatus
p4654
aVmacaco
p4655
aVsanfordi
p4656
aVrubriventer
p4657
assVDjebelemuridae
p4658
(dp4659
VDjebelemur
p4660
(lp4661
Vmartinezi
p4662
assVAfrotarsiidae
p4663
(dp4664
VAfrotarsius
p4665
(lp4666
Vchatrathi
p4667
assVDaubentoniidae
p4668
(dp4669
VDaubentonia
p4670
(lp4671
Vmadagascariensis
p4672
aVrobusta
p4673
assVProconsulidae
p4674
(dp4675
VAfropithecus
p4676
(lp4677
Vincertae sedis
p4678
aVturkanensis
p4679
asVNyanzapithecus
p4680
(lp4681
Vincertae sedis
p4682
aVpickfordi
p4683
aVvancouveringorum
p4684
assVLoridae
p4685
(dp4686
VPerodicticus
p4687
(lp4688
Vpotto
p4689
asVNycticebus
p4690
(lp4691
Vcoucang
p4692
aVpygmaeus
p4693
asVGalagoides
p4694
(lp4695
Vdemidovii
p4696
asVArctocebus
p4697
(lp4698
Vcalabarensis
p4699
asVLoris
p4700
(lp4701
Vtardigradus
p4702
aVlydekkerianus
p4703
assVMicromomyidae
p4704
(dp4705
VDryomomys
p4706
(lp4707
Vszalayi
p4708
assVHylobatidae
p4709
(dp4710
VBunopithecus
p4711
(lp4712
Vhoolock
p4713
asVHoolock
p4714
(lp4715
Vhoolock
p4716
asVHylobates
p4717
(lp4718
Vlar
p4719
aVsp.
p4720
aVagilis
p4721
aVleucogenys
p4722
aVsyndactylus
p4723
asVSymphalangus
p4724
(lp4725
Vsyndactylus
p4726
assVMegaladapidae
p4727
(dp4728
VMegaladapis
p4729
(lp4730
Vmadagascariensis
p4731
aVcf. madagascariensis
p4732
asVLepilemur
p4733
(lp4734
Vmustelinus
p4735
aVsp.
p4736
assVHominidae
p4737
(dp4738
VSivapithecus
p4739
(lp4740
Vindicus
p4741
aVsp.
p4742
asVLimnopithecus
p4743
(lp4744
VLegetet
p4745
aVevansi
p4746
asVPongo
p4747
(lp4748
Vpygmaeus
p4749
asVGorilla
p4750
(lp4751
Vgorilla
p4752
asVAustralopithecus
p4753
(lp4754
Vafarensis
p4755
aVboisei
p4756
aVafricanus
p4757
aVsediba
p4758
asVHomo
p4759
(lp4760
Vsapiens
p4761
aVhabilis
p4762
aVneanderthalensis
p4763
aVheidelbergensis
p4764
aVerectus
p4765
aVnaledi
p4766
asVProconsul
p4767
(lp4768
Vafricanus
p4769
aVmajor
p4770
aVnyanzae
p4771
aVheseloni
p4772
aVincertae sedis
p4773
asVPan
p4774
(lp4775
Vtroglodytes
p4776
aVpaniscus
p4777
assVCercopithecidae
p4778
(dp4779
VParapapio
p4780
(lp4781
Vjonesi
p4782
aVbroomi
p4783
asVTrachypithecus
p4784
(lp4785
Vcristata
p4786
aVobscura
p4787
aVsp.
p4788
aVobscurus
p4789
asVNasalis
p4790
(lp4791
Vlarvatus
p4792
aVconcolor
p4793
asVPapio
p4794
(lp4795
Vursinus
p4796
aVsp.
p4797
aVdoguera
p4798
aVanubis
p4799
aVangusticeps
p4800
aVhamadryas
p4801
aVizodi
p4802
aVingens
p4803
aVcynocephalus
p4804
asVChlorocebus
p4805
(lp4806
Vaethiops
p4807
aVcynosuros
p4808
aVpygerythrus
p4809
aVtantalus
p4810
asVAllenopithecus
p4811
(lp4812
Vnigroviridis
p4813
asVLophocebus
p4814
(lp4815
Valbigena
p4816
aVgaleritus
p4817
aVaterrimus
p4818
asVCercopithecus
p4819
(lp4820
Vmitis
p4821
aVmona
p4822
aVneglectus
p4823
aVnictitans
p4824
aValbogularis
p4825
aVdiana
p4826
aVsp.
p4827
aVdenti
p4828
aVcephus
p4829
aVpogonias
p4830
aVascanius
p4831
aVlowei
p4832
asVDinopithecus
p4833
(lp4834
Vingens
p4835
asVSemnopithecus
p4836
(lp4837
Ventellus
p4838
asVMandrillus
p4839
(lp4840
Vleucophaeus
p4841
aVsphinx
p4842
asVColobus
p4843
(lp4844
Vguereza
p4845
aVbadius
p4846
aVpolykomos
p4847
aVangolensis
p4848
asVMiopithecus
p4849
(lp4850
Vtalapoin
p4851
aVogouensis
p4852
asVPygathrix
p4853
(lp4854
Vnemaeus
p4855
aVneameus
p4856
aVroxellana
p4857
asVGorgopithecus
p4858
(lp4859
Vmajor
p4860
asVProcolobus
p4861
(lp4862
Vbadius
p4863
aVverus
p4864
asVPresbytis
p4865
(lp4866
Vmelalophos
p4867
aVobscurus
p4868
aVrubicunda
p4869
aVhosei
p4870
aVfrontata
p4871
aVphayrei
p4872
aVcristata
p4873
aVpotenziani
p4874
aVfemoralis
p4875
asVRhinopithecus
p4876
(lp4877
Vroxellana
p4878
asVTheropithecus
p4879
(lp4880
Vgelada
p4881
aVoswaldi
p4882
asVCercopithecoides
p4883
(lp4884
Vwilliamsi
p4885
aVcoronatus
p4886
asVCercocebus
p4887
(lp4888
Vatys
p4889
aVtorquatus
p4890
aVsp.
p4891
aValbigena
p4892
aVgaleritus
p4893
asVMacaca
p4894
(lp4895
Vnigra
p4896
aVfascicularis
p4897
aVfuscata
p4898
aVmulatta
p4899
aVsylvanus
p4900
aVnemestrina
p4901
aVsp.
p4902
aVarctoides
p4903
aVthibetana
p4904
aVbrunnescens
p4905
aVassamensis
p4906
aVmaura
p4907
aVsinica
p4908
aVtonkeana
p4909
aVradiata
p4910
aVcyclopis
p4911
asVErythrocebus
p4912
(lp4913
Vpatas
p4914
asssVCingulata
p4915
(dp4916
VDasypodidae
p4917
(dp4918
VCabassous
p4919
(lp4920
Vcentralis
p4921
aVunicinctus
p4922
asVZaedyus
p4923
(lp4924
Vpichiy
p4925
asVChaetophractus
p4926
(lp4927
Vvillosus
p4928
aVnationi
p4929
aVvellerosus
p4930
asVDasypus
p4931
(lp4932
Vbellus
p4933
aVhybridus
p4934
aVnovemcinctus
p4935
aVsp.
p4936
aVsabanicola
p4937
asVEuphractus
p4938
(lp4939
Vsexcinctus
p4940
asVTolypeutes
p4941
(lp4942
Vmatacus
p4943
assVPampatheriidae
p4944
(dp4945
VHolmesina
p4946
(lp4947
Vseptentrionalis
p4948
aVfloridanus
p4949
asssVSoricomorpha
p4950
(dp4951
VSolenodontidae
p4952
(dp4953
VSolenodon
p4954
(lp4955
Vparadoxus
p4956
assVSoricidae
p4957
(dp4958
VCrocidura
p4959
(lp4960
Volivieri
p4961
asVSuncus
p4962
(lp4963
Vmurinus
p4964
assVTalpidae
p4965
(dp4966
VDesmana
p4967
(lp4968
Vmoschata
p4969
assVGeolabididae
p4970
(dp4971
VCentetodon
p4972
(lp4973
Vneashami
p4974
asssVFerae
p4975
(dp4976
sVPantolesta
p4977
(dp4978
VPantolestidae
p4979
(dp4980
VPalaeosinopa
p4981
(lp4982
Vincerta
p4983
aVveterrima
p4984
assVPentacodontidae
p4985
(dp4986
VAphronorus
p4987
(lp4988
Vorieli
p4989
asssVSirenia
p4990
(dp4991
VProtosirenidae
p4992
(dp4993
VProtosiren
p4994
(lp4995
V(sp?)
p4996
asssVMacroscelidea
p4997
(dp4998
VAmphilemuridae
p4999
(dp5000
VMacrocranion
p5001
(lp5002
Vjunnei
p5003
aVnitens
p5004
asVProterixoides
p5005
(lp5006
Vdavisi
p5007
assVMacroscelididae
p5008
(dp5009
VMacroscelides
p5010
(lp5011
Vproboscideus
p5012
asVPetrodromus
p5013
(lp5014
Vtetradactylus
p5015
asssVMultituberculata
p5016
(dp5017
VNeoplagiaulacidae
p5018
(dp5019
VEctypodus
p5020
(lp5021
Vtardus
p5022
assVPtilodontidae
p5023
(dp5024
VPtilodus
p5025
(lp5026
Vkummae
p5027
asssVCreodonta
p5028
(dp5029
VHyaenodontidae
p5030
(dp5031
VMasrasector
p5032
(lp5033
Vnananubis
p5034
asssVDermoptera
p5035
(dp5036
VCynocephalidae
p5037
(dp5038
VGaleopterus
p5039
(lp5040
Vvariegatus
p5041
asVCynocephalus
p5042
(lp5043
Vvariegatus
p5044
aVvolans
p5045
asssVLipotyphla
p5046
(dp5047
sVHyaenodonta
p5048
(dp5049
V
(dp5050
VBrychotherium
p5051
(lp5052
Vephalmos
p5053
assVHyainailouridae
p5054
(dp5055
VAkhnatenavus
p5056
(lp5057
Vnefertiticyon
p5058
asssVCarnivora
p5059
(dp5060
VHerpestidae
p5061
(dp5062
VAtilax
p5063
(lp5064
Vmesotes
p5065
assVAiluridae
p5066
(dp5067
VPristinailurus
p5068
(lp5069
Vbristoli
p5070
assVFelidae
p5071
(dp5072
VFelis
p5073
(lp5074
Vcatus
p5075
asVMegantereon
p5076
(lp5077
Vwhitei
p5078
asVPuma
p5079
(lp5080
Vconcolor
p5081
asVLeopardus
p5082
(lp5083
Vpardalis
p5084
asVDinofelis
p5085
(lp5086
Vbarlowi
p5087
aVpiveteaui
p5088
asVPanthera
p5089
(lp5090
Vleo
p5091
aVpardus
p5092
asVSmilodon
p5093
(lp5094
Vfatalis
p5095
asVHomotherium
p5096
(lp5097
Vserum
p5098
asVLynx
p5099
(lp5100
Vrufus
p5101
asVAcinonyx
p5102
(lp5103
Vjubatus
p5104
asVNeofelis
p5105
(lp5106
Vnebulosa
p5107
assVCanidae
p5108
(dp5109
VHesperocyon
p5110
(lp5111
Vgregarius
p5112
asVSpeothos
p5113
(lp5114
Vvenaticus
p5115
asVSimocyon
p5116
(lp5117
Vprimigenius
p5118
asVCanis
p5119
(lp5120
Vbrevirostris
p5121
aVmesomelas
p5122
aVsp.
p5123
aVlupus
p5124
aVlatrans
p5125
aVdirus
p5126
asVVulpes
p5127
(lp5128
Vvulpes
p5129
aVpulcher
p5130
aVpattisoni
p5131
asVMetatomarctus
p5132
(lp5133
Vcanavus
p5134
assVMustelidae
p5135
(dp5136
VEnhydra
p5137
(lp5138
Vlutris
p5139
asVAonyx
p5140
(lp5141
Vcapensis
p5142
aVcinerea
p5143
asVSiamogale
p5144
(lp5145
Vmelilutra
p5146
asVLutrogale
p5147
(lp5148
Vperspicillata
p5149
asVLontra
p5150
(lp5151
Vcanadensis
p5152
aVfelina
p5153
aVlongicaudis
p5154
asVLutra
p5155
(lp5156
Vlutra
p5157
asVHydrictis
p5158
(lp5159
Vmaculicollis
p5160
asVPteronura
p5161
(lp5162
Vbrasiliensis
p5163
assVViverridae
p5164
(dp5165
VParahyaena
p5166
(lp5167
Vbrunnea
p5168
asVArctictis
p5169
(lp5170
Vbinturong
p5171
asVViverra
p5172
(lp5173
Vtangalunga
p5174
assVUrsidae
p5175
(dp5176
VKolponomos
p5177
(lp5178
Vnewportensis
p5179
asVUrsus
p5180
(lp5181
Vamericanus
p5182
aVarctos
p5183
asVArctodus
p5184
(lp5185
Vsimus
p5186
assVProcyonidae
p5187
(dp5188
VPotos
p5189
(lp5190
Vflavus
p5191
asVNasua
p5192
(lp5193
Vnarica
p5194
aVsp.
p5195
asVParailurus
p5196
(lp5197
Vanglicus
p5198
aVhungaricus
p5199
aVsp
p5200
assVNimravidae
p5201
(dp5202
VDinictis
p5203
(lp5204
Vsqualidens
p5205
assVHyaenidae
p5206
(dp5207
VCrocuta
p5208
(lp5209
Vcrocuta
p5210
asVHyaena
p5211
(lp5212
Vhyaena
p5213
aVsp.
p5214
asVPachycrocuta
p5215
(lp5216
Vbrevirostris
p5217
asVChasmaporthetes
p5218
(lp5219
Vnitidula
p5220
aVsilberbergi
p5221
asVLycyaenops
p5222
(lp5223
Vsilberbergi
p5224
asssVApatotheria
p5225
(dp5226
sVEdentata;cingulata
p5227
(dp5228
sVEulipotyphla
p5229
(dp5230
VNyctitheriidae
p5231
(dp5232
VPlagioctenodon
p5233
(lp5234
Vsavagei
p5235
aVkrausae
p5236
asVPlagioctenoides
p5237
(lp5238
Vmicrolestes
p5239
aVsp.
p5240
asssVChiroptera
p5241
(dp5242
VPteropodidae
p5243
(dp5244
VEonycteris
p5245
(lp5246
Vrobusta
p5247
aVspelaea
p5248
asVHarpyionycteris
p5249
(lp5250
Vwhiteheadi
p5251
aVcelebensis
p5252
asVMacroglossus
p5253
(lp5254
Vminimus
p5255
aVsobrinus
p5256
asVEidolon
p5257
(lp5258
Vhelvum
p5259
asVMegaerops
p5260
(lp5261
Vecaudatus
p5262
aVniphanae
p5263
asVAcerodon
p5264
(lp5265
Vjubatus
p5266
aVcelebensis
p5267
asVPteropus
p5268
(lp5269
Vvampyrus
p5270
aVhypomelanus
p5271
aVpumilus
p5272
aVadmiralitatum
p5273
aValecto
p5274
aVcapistratus
p5275
aVconspicillatus
p5276
aVlivingstonii
p5277
aVpoliocephalus
p5278
aVsamoensis
p5279
aVscapulatus
p5280
aVtonganus
p5281
aVmolossinus
p5282
aVrufus
p5283
aVlylei
p5284
aVornatus
p5285
aVneohibernicus
p5286
aVmariannus
p5287
aVanetianus
p5288
asVOtopteropus
p5289
(lp5290
Vcartilagonodus
p5291
asVNyctimene
p5292
(lp5293
Vaello
p5294
aValbiventer
p5295
aVcephalotes
p5296
aVmajor
p5297
aVrobinsoni
p5298
aVvizcaccia
p5299
aVcertans
p5300
asVMyonycteris
p5301
(lp5302
Vtorquata
p5303
asVPtenochirus
p5304
(lp5305
Vjagori
p5306
aVminor
p5307
asVPenthetor
p5308
(lp5309
Vlucasi
p5310
asVHaplonycteris
p5311
(lp5312
Vfischeri
p5313
asVRousettus
p5314
(lp5315
Vaegyptiacus
p5316
aVamplexicaudatus
p5317
aVleschenaultii
p5318
asVParanyctimene
p5319
(lp5320
Vraptor
p5321
asVBalionycteris
p5322
(lp5323
Vmaculata
p5324
asVNanonycteris
p5325
(lp5326
Vveldkampii
p5327
asVMegaloglossus
p5328
(lp5329
Vwoermanni
p5330
asVScotonycteris
p5331
(lp5332
Vzenkeri
p5333
asVHypsignathus
p5334
(lp5335
Vmonstrosus
p5336
asVEpomophorus
p5337
(lp5338
Vgambianus
p5339
aVlabiatus
p5340
aVminor
p5341
aVwahlbergi
p5342
asVAethalops
p5343
(lp5344
Valecto
p5345
asVEpomops
p5346
(lp5347
Vfranqueti
p5348
asVCynopterus
p5349
(lp5350
Vhorsfieldii
p5351
aVbrachyotis
p5352
aVsphinx
p5353
aVtitthaecheilus
p5354
asVSphaerias
p5355
(lp5356
Vblanfordi
p5357
asVThoopterus
p5358
(lp5359
Vnigrescens
p5360
asVDobsonia
p5361
(lp5362
Vminor
p5363
aVpannietensis
p5364
assVIcaronycteridae
p5365
(dp5366
VIcaronycteris
p5367
(lp5368
Vindex
p5369
assVPhyllostomatidae
p5370
(dp5371
VPlatalina
p5372
(lp5373
Vgenovensium
p5374
assVThyropteridae
p5375
(dp5376
VThyroptera
p5377
(lp5378
Vtricolor
p5379
assVNatalidae
p5380
(dp5381
VNatalus
p5382
(lp5383
Vstramineus
p5384
aVjamaicensis
p5385
aVtumidirostris
p5386
aVlepidus
p5387
asVChilonatalus
p5388
(lp5389
Vmicropus
p5390
assVEmballonuridae
p5391
(dp5392
VDiclidurus
p5393
(lp5394
Valbus
p5395
asVSaccolaimus
p5396
(lp5397
Vsaccolaimus
p5398
asVTaphozous
p5399
(lp5400
Vphilippinensis
p5401
aVlongimanus
p5402
aVmauritianus
p5403
aVnudiventris
p5404
asVPeropteryx
p5405
(lp5406
Vkappleri
p5407
aVmacrotis
p5408
asVCentronycteris
p5409
(lp5410
Vmaximiliani
p5411
asVEmballonura
p5412
(lp5413
Valecto
p5414
aVraffrayana
p5415
aVsemicaudata
p5416
asVBalantiopteryx
p5417
(lp5418
Vio
p5419
aVplicata
p5420
asVSaccopteryx
p5421
(lp5422
Vcanescens
p5423
assVMormoopidae
p5424
(dp5425
VPteronotus
p5426
(lp5427
Vdavyi
p5428
aVgymnonotus
p5429
aVparnellii
p5430
aVpersonatus
p5431
aVmacleayii
p5432
asVMormoops
p5433
(lp5434
Vmegalophylla
p5435
aVblainvillii
p5436
assVPhyllostomidae
p5437
(dp5438
VMonophyllus
p5439
(lp5440
Vredmani
p5441
asVLophostoma
p5442
(lp5443
Vbrasiliense
p5444
aVcarrikeri
p5445
aVschulzi
p5446
aVsilvicolum
p5447
asVPhyllops
p5448
(lp5449
Vfalcatus
p5450
asVChoeroniscus
p5451
(lp5452
Vgodmani
p5453
aVminor
p5454
asVMacrophyllum
p5455
(lp5456
Vmacrophyllum
p5457
asVChiroderma
p5458
(lp5459
Vsalvini
p5460
aVtrinitatum
p5461
aVvillosum
p5462
asVErophylla
p5463
(lp5464
Vsezekorni
p5465
asVTonatia
p5466
(lp5467
Vsaurophila
p5468
asVPhyllostomus
p5469
(lp5470
Vdiscolor
p5471
aVelongatus
p5472
aVhastatus
p5473
asVVampyriscus
p5474
(lp5475
Vnymphaea
p5476
aVbrocki
p5477
asVPlatyrrhinus
p5478
(lp5479
Vbrachycephalus
p5480
aVdorsalis
p5481
aVhelleri
p5482
aVinfuscus
p5483
aVlineatus
p5484
aVvittatus
p5485
asVUroderma
p5486
(lp5487
Vbilobatum
p5488
aVmagnirostrum
p5489
asVCarollia
p5490
(lp5491
Vbrevicauda
p5492
aVcastanea
p5493
aVperspicillata
p5494
aVsubrufa
p5495
asVGlyphonycteris
p5496
(lp5497
Vsylvestris
p5498
asVVampyrodes
p5499
(lp5500
Vcaraccioli
p5501
asVAmetrida
p5502
(lp5503
Vcenturio
p5504
asVLionycteris
p5505
(lp5506
Vspurrelli
p5507
asVSturnira
p5508
(lp5509
Vlilium
p5510
aVludovici
p5511
aVmagna
p5512
aVmordax
p5513
aVoporaphilum
p5514
aVbidens
p5515
aVnana
p5516
aVtildae
p5517
aVbogotensis
p5518
asVRhinophylla
p5519
(lp5520
Vpumilio
p5521
aVfischerae
p5522
asVCenturio
p5523
(lp5524
Vsenex
p5525
asVPhylloderma
p5526
(lp5527
Vstenops
p5528
asVSphaeronycteris
p5529
(lp5530
Vtoxophyllum
p5531
asVDesmodus
p5532
(lp5533
Vrotundus
p5534
asVPygoderma
p5535
(lp5536
Vbilabiatum
p5537
asVMimon
p5538
(lp5539
Vcozumelae
p5540
aVcrenulatum
p5541
asVDiphylla
p5542
(lp5543
Vecaudata
p5544
asVStenoderma
p5545
(lp5546
Vrufum
p5547
asVMusonycteris
p5548
(lp5549
Vharrisoni
p5550
asVLonchorhina
p5551
(lp5552
Vaurita
p5553
asVHsunycteris
p5554
(lp5555
Vthomasi
p5556
asVLeptonycteris
p5557
(lp5558
Vyerbabuenae
p5559
aVcurasoae
p5560
asVPhyllonycteris
p5561
(lp5562
Vaphylla
p5563
aVpoeyi
p5564
asVAnoura
p5565
(lp5566
Vcaudifer
p5567
aVgeoffroyi
p5568
aVcultrata
p5569
aVlatidens
p5570
asVChoeronycteris
p5571
(lp5572
Vmexicana
p5573
asVChrotopterus
p5574
(lp5575
Vauritus
p5576
asVArtibeus
p5577
(lp5578
Vfimbriatus
p5579
aVhirsutus
p5580
aVjamaicensis
p5581
aVlituratus
p5582
aVplanirostris
p5583
aVconcolor
p5584
aVfraterculus
p5585
aVintermedius
p5586
aVobscurus
p5587
asVGlossophaga
p5588
(lp5589
Vcommissarisi
p5590
aVsoricina
p5591
aVleachii
p5592
aVlongirostris
p5593
aVmorenoi
p5594
asVLichonycteris
p5595
(lp5596
Vobscura
p5597
asVTrachops
p5598
(lp5599
Vcirrhosus
p5600
asVVampyressa
p5601
(lp5602
Vpusilla
p5603
aVmelissa
p5604
asVAriteus
p5605
(lp5606
Vflavescens
p5607
asVDiaemus
p5608
(lp5609
Vyoungi
p5610
asVBrachyphylla
p5611
(lp5612
Vcavernarum
p5613
aVnana
p5614
asVMesophylla
p5615
(lp5616
Vmacconnelli
p5617
asVMicronycteris
p5618
(lp5619
Vhirsuta
p5620
aVmegalotis
p5621
aVminuta
p5622
aVbrosseti
p5623
aVmatses
p5624
aVmicrotis
p5625
aVschmidtorum
p5626
asVMacrotus
p5627
(lp5628
Vwaterhousii
p5629
aVcalifornicus
p5630
asVHylonycteris
p5631
(lp5632
Vunderwoodi
p5633
asVLonchophylla
p5634
(lp5635
Vrobusta
p5636
aVhandleyi
p5637
aVmordax
p5638
asVDermanura
p5639
(lp5640
Vanderseni
p5641
aVazteca
p5642
aVphaeotis
p5643
aVtolteca
p5644
asVArdops
p5645
(lp5646
Vnichollsi
p5647
assVVespertilionidae
p5648
(dp5649
VPipistrellus
p5650
(lp5651
Vcoromandra
p5652
aVhesperidus
p5653
aVjavanicus
p5654
aVnathusii
p5655
aVtenuis
p5656
asVCorynorhinus
p5657
(lp5658
Vmexicanus
p5659
aVrafinesquii
p5660
aVtownsendii
p5661
asVMiniopterus
p5662
(lp5663
Vschreibersii
p5664
aVaustralis
p5665
aVpusillus
p5666
aVtristis
p5667
asVNyctalus
p5668
(lp5669
Vleisleri
p5670
aVnoctula
p5671
asVHypsugo
p5672
(lp5673
Vsavii
p5674
asVAntrozous
p5675
(lp5676
Vpallidus
p5677
asVMurina
p5678
(lp5679
Vaurata
p5680
aVcyclotis
p5681
aVhuttonii
p5682
asVLasionycteris
p5683
(lp5684
Vnoctivagans
p5685
asVPlecotus
p5686
(lp5687
Vauritus
p5688
asVIdionycteris
p5689
(lp5690
Vphyllotis
p5691
asVKerivoula
p5692
(lp5693
Vpellucida
p5694
asVScotophilus
p5695
(lp5696
Vheathii
p5697
aVkuhlii
p5698
asVEptesicus
p5699
(lp5700
Vandinus
p5701
aVbrasiliensis
p5702
aVdiminutus
p5703
aVfurinalis
p5704
aVfuscus
p5705
asVMyotis
p5706
(lp5707
Valbescens
p5708
aVauriculus
p5709
aVaustroriparius
p5710
aVcalifornicus
p5711
aVchiloensis
p5712
aVciliolabrum
p5713
aVdasycneme
p5714
aVdaubentonii
p5715
aVelegans
p5716
aVemarginatus
p5717
aVevotis
p5718
aVformosus
p5719
aVgrisecens
p5720
aVhorsfieldii
p5721
aVkeenii
p5722
aVsubulatus
p5723
aVlucifugus
p5724
aVmacrotarsus
p5725
aVmuricola
p5726
aVmystacinus
p5727
aVnigricans
p5728
aVriparius
p5729
aVruber
p5730
aVsimus
p5731
aVsodalis
p5732
aVthysanodes
p5733
aVvelifer
p5734
aVvivesi
p5735
aVvolans
p5736
aVyumanensis
p5737
asVPerimyotis
p5738
(lp5739
Vsubflavus
p5740
asVLasiurus
p5741
(lp5742
Vborealis
p5743
aVcinereus
p5744
aVega
p5745
aVintermedius
p5746
aVseminolus
p5747
asVHesperoptenus
p5748
(lp5749
Vtickelli
p5750
asVRhogeessa
p5751
(lp5752
Vtumida
p5753
asVTylonycteris
p5754
(lp5755
Vpachypus
p5756
aVrobustula
p5757
asVNycticeius
p5758
(lp5759
Vhumeralis
p5760
asVPhiletor
p5761
(lp5762
Vbrachypterus
p5763
asVNeoromicia
p5764
(lp5765
Vcapensis
p5766
asVVespertilio
p5767
(lp5768
Vmurinus
p5769
assVHipposideridae
p5770
(dp5771
VCoelops
p5772
(lp5773
Vfrithii
p5774
asVAsellia
p5775
(lp5776
Vtridens
p5777
assVNoctilionidae
p5778
(dp5779
VNoctilio
p5780
(lp5781
Valbiventris
p5782
aVleporinus
p5783
assVMegadermatidae
p5784
(dp5785
VMegaderma
p5786
(lp5787
Vlyra
p5788
assVMolossidae
p5789
(dp5790
VMolossops
p5791
(lp5792
Vtemminckii
p5793
asVCheiromeles
p5794
(lp5795
Vparvidens
p5796
aVtorquatus
p5797
asVChaerephon
p5798
(lp5799
Vjobensis
p5800
aVplicata
p5801
aVansorgei
p5802
aVchapini
p5803
aVnigeriae
p5804
aVpumilus
p5805
asVOtomops
p5806
(lp5807
Vmartiensseni
p5808
asVCynomops
p5809
(lp5810
Vabrasus
p5811
aVparanus
p5812
aVplanirostris
p5813
asVMolossus
p5814
(lp5815
Vmolossus
p5816
aVrufus
p5817
aVsinaloae
p5818
asVMyopterus
p5819
(lp5820
Vdaubentonii
p5821
asVPromops
p5822
(lp5823
Vcentralis
p5824
aVnasutus
p5825
asVNyctinomops
p5826
(lp5827
Vlaticaudatus
p5828
aVmacrotis
p5829
aVaurispinosus
p5830
asVEumops
p5831
(lp5832
Vdabbenei
p5833
aVpatagonicus
p5834
aVperotis
p5835
aVunderwoodi
p5836
aVbonariensis
p5837
aVglaucinus
p5838
asVMormopterus
p5839
(lp5840
Vacetabulosus
p5841
aVbeccarii
p5842
aVplaniceps
p5843
asVTadarida
p5844
(lp5845
Vfulminans
p5846
aVaegyptiaca
p5847
aVbrasiliensis
p5848
aVteniotis
p5849
asVMops
p5850
(lp5851
Vcondylurus
p5852
aVleucostigma
p5853
aVmidas
p5854
aVmops
p5855
assVOnychonycteridae
p5856
(dp5857
VOnychonycteris
p5858
(lp5859
Vfinneyi
p5860
assVNycteridae
p5861
(dp5862
VNycteris
p5863
(lp5864
Varge
p5865
aVgrandis
p5866
aVhispida
p5867
aVjavanica
p5868
aVmacrotis
p5869
aVthebaica
p5870
assVRhinolophidae
p5871
(dp5872
VRhinolophus
p5873
(lp5874
Vaffinis
p5875
aVarcuatus
p5876
aVcornutus
p5877
aVacuminatus
p5878
aVaclyone
p5879
aVblasii
p5880
aVbocharicus
p5881
aVcanuti
p5882
aVcelebensis
p5883
aVclivosus
p5884
aVcreaghi
p5885
aVdarlingi
p5886
aVdeckenii
p5887
aVeuryale
p5888
aVferrumequinum
p5889
aVfumigatus
p5890
aVhildebrandti
p5891
aVhillorum
p5892
aVhipposideros
p5893
aVimaizumii
p5894
aVlanderi
p5895
aVlepidus
p5896
aVluctus
p5897
aVmacrotis
p5898
asVCloeotis
p5899
(lp5900
Vpercivali
p5901
asVAselliscus
p5902
(lp5903
Vtricuspidatus
p5904
aVstoliczkanus
p5905
asVHipposideros
p5906
(lp5907
Varmiger
p5908
aVdiadema
p5909
aVpygmaeus
p5910
aVabae
p5911
aVater
p5912
aVcaffer
p5913
aVcalcaratus
p5914
aVcervinus
p5915
aVcyclops
p5916
aVdyacorum
p5917
aVfuliginosus
p5918
aVgigas
p5919
aVgrandis
p5920
aVlarvatus
p5921
aVlylei
p5922
aVobscurus
p5923
aVpelingensis
p5924
aVpomona
p5925
aVruber
p5926
aVturpis
p5927
asssVLagomorpha
p5928
(dp5929
VLeporidae
p5930
(dp5931
VNekrolagus
p5932
(lp5933
Vprogressus
p5934
asVSylvilagus
p5935
(lp5936
Vfloridanus
p5937
aVaquaticus
p5938
asVPronolagus
p5939
(lp5940
Vsp.
p5941
asVLepus
p5942
(lp5943
Vsp.
p5944
aVbolti
p5945
aVcalifornicus
p5946
asVOryctolagus
p5947
(lp5948
Vcuniculus
p5949
asVPalaeolagus
p5950
(lp5951
Vhaydeni
p5952
assVOchotonidae
p5953
(dp5954
VOchotona
p5955
(lp5956
Vprinceps
p5957
asssVDidelphimorphia
p5958
(dp5959
VDidelphidae
p5960
(dp5961
VCaluromys
p5962
(lp5963
Vsp.
p5964
aVderbianus
p5965
asVChironectes
p5966
(lp5967
Vminimus
p5968
asVMarmosa
p5969
(lp5970
Vderbianus
p5971
aVsp.
p5972
aVmexicana
p5973
aVmurina
p5974
asVThylamys
p5975
(lp5976
Velegans
p5977
aVpallidior
p5978
asVLutreolina
p5979
(lp5980
Vcrassicaudata
p5981
asVMonodelphis
p5982
(lp5983
Vdomestica 
p5984
aVsp.
p5985
asVGracilinanus
p5986
(lp5987
Vmicrotarsus
p5988
aVagilis
p5989
asVMicoureus
p5990
(lp5991
Valstoni
p5992
aVdemerarae
p5993
asVMarmosops
p5994
(lp5995
Vnoctivagus
p5996
aVincanus
p5997
asVPhilander
p5998
(lp5999
Vopossum
p6000
aVandersoni
p6001
aVcanus
p6002
asVDidelphis
p6003
(lp6004
Vmarsupialis
p6005
aVvirginiana
p6006
aVsp.
p6007
assVStagodontidae
p6008
(dp6009
VDidelphodon
p6010
(lp6011
Vvorax
p6012
assVHerpetotheriidae
p6013
(dp6014
VHerpetotherium
p6015
(lp6016
Vinnominatum
p6017
asssVErinaceomorpha
p6018
(dp6019
VErinaceidae
p6020
(dp6021
VErinaceus
p6022
(lp6023
Veuropaeus
p6024
aVbroomi
p6025
asVSespedectes
p6026
(lp6027
Vsingularis
p6028
asVHemiechinus
p6029
(lp6030
Vauritus
p6031
asssVProboscidea
p6032
(dp6033
VMammutidae
p6034
(dp6035
VMammut
p6036
(lp6037
Vamericanum
p6038
assVElephantidae
p6039
(dp6040
VMammuthus
p6041
(lp6042
Vcf. M. hayi
p6043
aVprimigenius
p6044
asVElephas
p6045
(lp6046
Vrecki
p6047
assssVAves
p6048
(dp6049
VColumbiformes
p6050
(dp6051
VColumbidae
p6052
(dp6053
VColumba
p6054
(lp6055
Vlivia
p6056
asVPtilinopus
p6057
(lp6058
Vsuperbus
p6059
asssVApodiformes
p6060
(dp6061
VTrochilidae
p6062
(dp6063
VSelasphorus
p6064
(lp6065
Vrufus
p6066
asVPhaethornis
p6067
(lp6068
Vsuperciliosus
p6069
asVEutoxeres
p6070
(lp6071
Vcondamini
p6072
assVApodidae
p6073
(dp6074
VApus
p6075
(lp6076
Vapus
p6077
asssVFalconiformes
p6078
(dp6079
VAccipitridae
p6080
(dp6081
VAquila
p6082
(lp6083
Vchrysaetos
p6084
asVButeo
p6085
(lp6086
Vbuteo
p6087
assVFalconidae
p6088
(dp6089
VFalco
p6090
(lp6091
Vperegrinus
p6092
aVcenchroides
p6093
aVsubbuteo
p6094
aVtinnunculus
p6095
asssVPasseriformes
p6096
(dp6097
VCorvidae
p6098
(dp6099
VCorvus
p6100
(lp6101
Vcorax
p6102
assVMuscicapidae
p6103
(dp6104
VLuscinia
p6105
(lp6106
Vmegarhynchos
p6107
assVDicruridae
p6108
(dp6109
VDicrurus
p6110
(lp6111
Vparadiseus
p6112
assVEstrildidae
p6113
(dp6114
VTaeniopygia
p6115
(lp6116
Vguttata
p6117
assVPasseridae
p6118
(dp6119
VPasser
p6120
(lp6121
Vdomesticus
p6122
assVMeliphagidae
p6123
(dp6124
VAcanthorhynchus
p6125
(lp6126
Vsuperciliosus
p6127
assVParulidae
p6128
(dp6129
VSeiurus
p6130
(lp6131
Vaurocapilla
p6132
asssVCiconiiformes
p6133
(dp6134
VCiconiidae
p6135
(dp6136
VCiconia
p6137
(lp6138
Vciconia
p6139
aVnigra
p6140
asssVCasuariiformes
p6141
(dp6142
VCasuariidae
p6143
(dp6144
VCasuarius
p6145
(lp6146
VCasuarius
p6147
aVunappendiculatus
p6148
asssVGaviiformes
p6149
(dp6150
VGaviidae
p6151
(dp6152
VGavia
p6153
(lp6154
Vimmer
p6155
asssVStrigiformes
p6156
(dp6157
VPodargidae
p6158
(dp6159
VPodargus
p6160
(lp6161
Vstrigoides
p6162
assVStrigidae
p6163
(dp6164
VAthene
p6165
(lp6166
Vcunicularia
p6167
assVSteatornithidae
p6168
(dp6169
VSteatornis
p6170
(lp6171
Vcaripensis
p6172
asssVGruiformes
p6173
(dp6174
VGruidae
p6175
(dp6176
VGrus
p6177
(lp6178
Vgrus
p6179
asssVPhoenicopteriformes
p6180
(dp6181
VPhoenicopteridae
p6182
(dp6183
VPhoenicopterus
p6184
(lp6185
Vruber
p6186
asssVCharadriiformes
p6187
(dp6188
VCharadriidae
p6189
(dp6190
VVanellus
p6191
(lp6192
Vmiles
p6193
assVScolopacidae
p6194
(dp6195
VScolopax
p6196
(lp6197
Vrusticola
p6198
asVArenaria
p6199
(lp6200
Vmelanocephala
p6201
asVActitis
p6202
(lp6203
Vhypoleucos
p6204
assVAlcidae
p6205
(dp6206
VAlca
p6207
(lp6208
Vtorda
p6209
asVUria
p6210
(lp6211
Vlomvia
p6212
assVLaridae
p6213
(dp6214
VLarus
p6215
(lp6216
Vphiladelphia
p6217
aVargentatus
p6218
asVSterna
p6219
(lp6220
Vhirundo
p6221
asVCreagrus
p6222
(lp6223
Vfurcatus
p6224
asVChroicocephalus
p6225
(lp6226
Vphiladelphia
p6227
assVHaematopodidae
p6228
(dp6229
VHaematopus
p6230
(lp6231
Vostralegus
p6232
assVLaridae;sterninae
p6233
(dp6234
VGelochelidon
p6235
(lp6236
Vnilotica
p6237
asssVPelecaniformes
p6238
(dp6239
VArdeidae
p6240
(dp6241
VArdea
p6242
(lp6243
Vcinerea
p6244
assVBalaenicipitidae
p6245
(dp6246
VBalaeniceps
p6247
(lp6248
Vrex
p6249
assVPhalacrocoracidae
p6250
(dp6251
VPhalacrocorax
p6252
(lp6253
Vharrisi
p6254
aVcarbo
p6255
asssVAccipitriformes
p6256
(dp6257
VPandionidae
p6258
(dp6259
VPandion
p6260
(lp6261
Vhaliaetus
p6262
assVSagittariidae
p6263
(dp6264
VSagittarius
p6265
(lp6266
Vserpentarius
p6267
assVCathartidae
p6268
(dp6269
VVultur
p6270
(lp6271
Vgryphus
p6272
asssVSphenisciformes
p6273
(dp6274
VSpheniscidae
p6275
(dp6276
VSpheniscus
p6277
(lp6278
Vmagellanicus
p6279
asssVCoraciiformes
p6280
(dp6281
VAlcedinidae;alcedininae
p6282
(dp6283
VAlcedo
p6284
(lp6285
Vatthis
p6286
assVAlcedinidae
p6287
(dp6288
VDacelo
p6289
(lp6290
Vnovaeguineae
p6291
assVCoraciidae
p6292
(dp6293
VCoracias
p6294
(lp6295
Vgarrulus
p6296
asssVCuculiformes
p6297
(dp6298
VCoccyzidae
p6299
(dp6300
VCoccyzus
p6301
(lp6302
Verythopthalmus
p6303
aVCoccyzus erythropthalmus
p6304
assVCuculidae;cuculinae
p6305
(dp6306
VCuculus
p6307
(lp6308
Vcanorus
p6309
asssVTinamiformes
p6310
(dp6311
VTinamidae
p6312
(dp6313
VRhynchotus
p6314
(lp6315
Vrufescens
p6316
asVNothoprocta
p6317
(lp6318
Vperdicaria
p6319
asssVAnseriformes
p6320
(dp6321
V
(dp6322
VVegavis
p6323
(lp6324
Viaai
p6325
assVAnhimidae
p6326
(dp6327
VChauna
p6328
(lp6329
Vtorquata 
p6330
assVAnatidae;anatinae
p6331
(dp6332
VAnas
p6333
(lp6334
Vdiscors
p6335
aVacuta
p6336
aVcrecca
p6337
assVAnatidae
p6338
(dp6339
VAix
p6340
(lp6341
Vsponsa
p6342
asVAythya
p6343
(lp6344
Vfuligula
p6345
asVOxyura
p6346
(lp6347
Vjamaicensis
p6348
asVCairina
p6349
(lp6350
V moschata
p6351
asVChen
p6352
(lp6353
Vcaerulescens
p6354
asVTachyeres
p6355
(lp6356
Vbrachypterus
p6357
assVAnseranatidae
p6358
(dp6359
VAnseranas
p6360
(lp6361
Vsemipalmata
p6362
assVPresbyornithidae
p6363
(dp6364
VPresbyornis
p6365
(lp6366
Vsp
p6367
asssVPodicipediformes
p6368
(dp6369
VPodicipedidae
p6370
(dp6371
VPodilymbus
p6372
(lp6373
Vpodiceps
p6374
asVPodiceps
p6375
(lp6376
Vnigricollis
p6377
aVcristatus
p6378
asssVPiciformes
p6379
(dp6380
VRamphastidae
p6381
(dp6382
VRamphastos
p6383
(lp6384
Vdicolorus
p6385
assVPicidae
p6386
(dp6387
VDendrocopos
p6388
(lp6389
Vmajor
p6390
asVSphyrapicus
p6391
(lp6392
Vvarius
p6393
asssVCaprimulgiformes
p6394
(dp6395
VCaprimulgidae
p6396
(dp6397
VNyctidromus
p6398
(lp6399
Valbicollis
p6400
asVCaprimulgus
p6401
(lp6402
Veuropaeus
p6403
asssVOpisthocomiformes
p6404
(dp6405
VOpisthocomidae
p6406
(dp6407
VOpisthocomus
p6408
(lp6409
Vhoazin
p6410
asssVPteroclidiformes
p6411
(dp6412
VPteroclididae
p6413
(dp6414
VPterocles
p6415
(lp6416
Vquadricinctus
p6417
asssVProcellariiformes
p6418
(dp6419
VDiomedeidae
p6420
(dp6421
VDiomedea
p6422
(lp6423
Vexulans
p6424
asVPhoebastria
p6425
(lp6426
Vnigripes 
p6427
assVHydrobatidae
p6428
(dp6429
VPelagodroma
p6430
(lp6431
Vmarina
p6432
assVProcellariidae
p6433
(dp6434
VFulmarus
p6435
(lp6436
Vglacialis 
p6437
asssVTrogoniformes
p6438
(dp6439
VTrogonidae
p6440
(dp6441
VTrogon
p6442
(lp6443
Vcurucui
p6444
asssVGalliformes
p6445
(dp6446
VPhasianidae
p6447
(dp6448
VFalcipennis
p6449
(lp6450
Vcanadensis
p6451
asVAlectoris
p6452
(lp6453
Vrufa
p6454
asVPhasianus
p6455
(lp6456
Vcolchicus
p6457
asVDendragapus
p6458
(lp6459
Vobscurus
p6460
asVGallus
p6461
(lp6462
Vgallus
p6463
asVCoturnix
p6464
(lp6465
Vcoturnix
p6466
asVMeleagris
p6467
(lp6468
Vgallopavo
p6469
assVCracidae
p6470
(dp6471
VOrtalis
p6472
(lp6473
Vvetula 
p6474
asssVPsittaciformes
p6475
(dp6476
VPsittacidae
p6477
(dp6478
VTrichoglossus
p6479
(lp6480
Vhaematodus
p6481
asVAra
p6482
(lp6483
Vmacao
p6484
asVMelopsittacus
p6485
(lp6486
Vundulatus
p6487
asVAmazona
p6488
(lp6489
Vviridigenalis
p6490
asVNestor
p6491
(lp6492
Vnotabilis
p6493
asVPsittacus
p6494
(lp6495
Verithacus
p6496
asssVPhaethontiformes
p6497
(dp6498
VPhaethontidae
p6499
(dp6500
VPhaethon
p6501
(lp6502
Vlepturus
p6503
asssVStruthioniformes
p6504
(dp6505
VStruthionidae
p6506
(dp6507
VStruthio
p6508
(lp6509
Vcamelus
p6510
assVApterygidae
p6511
(dp6512
VApteryx
p6513
(lp6514
Vhaastii
p6515
asssVSuliformes
p6516
(dp6517
VFregatidae
p6518
(dp6519
VFregata
p6520
(lp6521
Vmagnificens
p6522
assVSulidae
p6523
(dp6524
VSula
p6525
(lp6526
Vdactylatra
p6527
asssVCariamiformes
p6528
(dp6529
VPhorusrhacidae
p6530
(dp6531
VTitanis
p6532
(lp6533
Vwalleri
p6534
assssVAmphibia
p6535
(dp6536
VAnura
p6537
(dp6538
VSooglossidae
p6539
(dp6540
VSooglossus
p6541
(lp6542
Vsechellensis
p6543
assVHyperolidae
p6544
(dp6545
VCallixalus
p6546
(lp6547
Vpictus
p6548
assVBrachycephalidae
p6549
(dp6550
VBrachycephalus
p6551
(lp6552
Vephippium
p6553
aVsp
p6554
aVnodoterga
p6555
aValbolineatus
p6556
aVcoloratus
p6557
aVcurupira
p6558
asVIschnocnema
p6559
(lp6560
Vgualteri
p6561
aVguentheri
p6562
assVRhinophrynidae
p6563
(dp6564
VRhinophrynus
p6565
(lp6566
Vdorsalis
p6567
assVPelodytidae
p6568
(dp6569
VPelodytes
p6570
(lp6571
Vcaucasicus
p6572
assVRhinodermatidae
p6573
(dp6574
VRhinoderma
p6575
(lp6576
Vdarwinii
p6577
assVAromobatidae
p6578
(dp6579
VAromobates
p6580
(lp6581
Vmayorgai
p6582
assVHemisotidae
p6583
(dp6584
VHemisus
p6585
(lp6586
Vguineensis
p6587
assVCalyptocephalellidae
p6588
(dp6589
VCalyptocephalella
p6590
(lp6591
Vgayi
p6592
assVConrauidae
p6593
(dp6594
VConraua
p6595
(lp6596
Vcrassipes
p6597
aVgoliath
p6598
assVLeptodactylidae
p6599
(dp6600
VAdenomera
p6601
(lp6602
Vandreae
p6603
asVBarycholos
p6604
(lp6605
Vpulcher
p6606
asVAtelognathus
p6607
(lp6608
Vpatagonicus
p6609
asVTelmatobius
p6610
(lp6611
Vthompsoni
p6612
asVChacophrys
p6613
(lp6614
Vpierottii
p6615
asVLeptodactylus
p6616
(lp6617
Vvalidus
p6618
assV
(dp6619
VBeelzebufo
p6620
(lp6621
Vampinga
p6622
assVCentrolenidae
p6623
(dp6624
VHyalinobatrachium
p6625
(lp6626
Vfleischmanni
p6627
asVCochranella
p6628
(lp6629
Vgranulosa
p6630
asVCentrolene
p6631
(lp6632
Vbuckleyi
p6633
assVPetropedetidae
p6634
(dp6635
VPetropedetes
p6636
(lp6637
Vsp
p6638
aVpalmipes
p6639
aVcf. vulpiae
p6640
assVOdontophrynidae
p6641
(dp6642
VOdontophrynus
p6643
(lp6644
Vamericanus
p6645
asVMacrogenioglottus
p6646
(lp6647
Valipioi
p6648
asVProceratophrys
p6649
(lp6650
Vboiei
p6651
assVAllophrynidae
p6652
(dp6653
VAllophryne
p6654
(lp6655
Vruthveni
p6656
assVBrevicipitidae
p6657
(dp6658
VSpelaeophryne
p6659
(lp6660
Vmethneri
p6661
asVBreviceps
p6662
(lp6663
Vpoweri
p6664
asVProbreviceps
p6665
(lp6666
Vmacrodactylus
p6667
assVHyperoliidae
p6668
(dp6669
VAfrixalus
p6670
(lp6671
Vorophilus
p6672
asVAcanthixalus
p6673
(lp6674
Vspinosus
p6675
asVChrysobatrachus
p6676
(lp6677
Vcupreonitens
p6678
asVKassina
p6679
(lp6680
Vsenegalensis
p6681
assVPhyllomedusinae
p6682
(dp6683
VPhyllomedusa
p6684
(lp6685
Vbicolor
p6686
assVMyobatrachidae
p6687
(dp6688
VLechriodus
p6689
(lp6690
Vmelanopyga
p6691
asVNeobatrachus
p6692
(lp6693
Vpictus
p6694
assVLeiopelmatidae
p6695
(dp6696
VAscaphus
p6697
(lp6698
Vtruei
p6699
aVmontanus
p6700
asVLeiopelma
p6701
(lp6702
Vhamiltoni
p6703
assVMegophryidae
p6704
(dp6705
VLeptolalax
p6706
(lp6707
Vaereus
p6708
asVOphryophryne
p6709
(lp6710
Vpachyproctus
p6711
asVBrachytarsophrys
p6712
(lp6713
Vcarinensis
p6714
asVXenophrys
p6715
(lp6716
Vmajor
p6717
assVCycloramphidae
p6718
(dp6719
VThoropa
p6720
(lp6721
Vtaophora
p6722
asVCycloramphus
p6723
(lp6724
Vasper
p6725
asVZachaenus
p6726
(lp6727
Vparvulus
p6728
assVCeratophryidae
p6729
(dp6730
VLepidobatrachus
p6731
(lp6732
Vlaevis
p6733
asVCeratophrys
p6734
(lp6735
Vaurita
p6736
assVAlytidae
p6737
(dp6738
VAlytes
p6739
(lp6740
Vobstetricans
p6741
asVDiscoglossus
p6742
(lp6743
Vpictus
p6744
aVsardus
p6745
assVDicroglossidae
p6746
(dp6747
VLimnonectes
p6748
(lp6749
Vmacrocephalus
p6750
aVblythii
p6751
asVQuasipaa
p6752
(lp6753
Vboulengeri
p6754
asVHoplobatrachus
p6755
(lp6756
Voccipitalis
p6757
assVDiscoglossidae
p6758
(dp6759
VBarbourula
p6760
(lp6761
Vbusuangensis
p6762
assVPyxicephalidae
p6763
(dp6764
VAnhydrophryne
p6765
(lp6766
Vrattrayi
p6767
asVPoyntonia
p6768
(lp6769
Vpaludicola
p6770
asVPyxicephalus
p6771
(lp6772
Vadspersus
p6773
asVMicrobatrachella
p6774
(lp6775
Vcapensis
p6776
asVNothophryne
p6777
(lp6778
Vbroadleyi
p6779
assVPtychadenidae
p6780
(dp6781
VHildebrandtia
p6782
(lp6783
Vornata
p6784
assVHylodidae
p6785
(dp6786
VHylodes
p6787
(lp6788
Vasper
p6789
asVCrossodactylus
p6790
(lp6791
Vgaudichaudii
p6792
assVArthroleptidae
p6793
(dp6794
VLeptopelis
p6795
(lp6796
Vnotatus
p6797
asVCardioglossa
p6798
(lp6799
Vcyaneospila
p6800
asVLeptodactylodon
p6801
(lp6802
Vovatus
p6803
asVTrichobatrachus
p6804
(lp6805
Vrobustus
p6806
asVArthroleptis
p6807
(lp6808
Vbioko
p6809
aVtanneri
p6810
aVbivittatus
p6811
aVlonnbergi
p6812
asVAstylosternus
p6813
(lp6814
Vdiadematus
p6815
asVNyctibates
p6816
(lp6817
Vcorrugatus
p6818
assVHylinae
p6819
(dp6820
VAparasphenodon
p6821
(lp6822
Vbrunoi
p6823
assVPipidae
p6824
(dp6825
VPipa
p6826
(lp6827
Vparva
p6828
asVXenopus
p6829
(lp6830
Vclivii
p6831
assVMicrohylidae
p6832
(dp6833
VXenorhina
p6834
(lp6835
Vmehelyi
p6836
asVCallulina
p6837
(lp6838
Vkisiwamsitu
p6839
asVGastrophryne
p6840
(lp6841
Vcarolinensis
p6842
asVElachistocleis
p6843
(lp6844
Vbicolor
p6845
asVChaperina
p6846
(lp6847
Vfusca
p6848
asVPaedophryne
p6849
(lp6850
Vswiftorum
p6851
aVkathismaphlox
p6852
aVsp.
p6853
aVtitan
p6854
asVBalebreviceps
p6855
(lp6856
Vhillmani
p6857
asVChiasmocleis
p6858
(lp6859
Valtomontana
p6860
aVcapixaba
p6861
aVgnoma 
p6862
aValbopunctata
p6863
aVmantiqueira
p6864
aVroyi
p6865
aVcrucis
p6866
asVMelanobatrachus
p6867
(lp6868
Vindicus
p6869
asVPlethodontohyla
p6870
(lp6871
Valluaudi
p6872
aVlaevis
p6873
asVUperodon
p6874
(lp6875
Vmontanus
p6876
aVsystoma
p6877
asVSyncope
p6878
(lp6879
Vantenori
p6880
asVRhombophryne
p6881
(lp6882
Vcoronata
p6883
aVguentherpetersi
p6884
aVornata
p6885
aVtany
p6886
aVvaventy
p6887
aVserratopalpebrosa
p6888
aValluaudi
p6889
asVStumpffia
p6890
(lp6891
Vpygmaea
p6892
assVPelobatidae
p6893
(dp6894
VPelobates
p6895
(lp6896
Vfuscus
p6897
aVvaraldii
p6898
asVScaphiopus
p6899
(lp6900
Vholbrookii
p6901
asVLeptobrachium
p6902
(lp6903
Vhasseltii
p6904
assVHeleophrynidae
p6905
(dp6906
VHeleophryne
p6907
(lp6908
Vnatalensis
p6909
aVpurcelli
p6910
asVHadromophryne
p6911
(lp6912
Vnatalensis
p6913
assVBatrachylidae
p6914
(dp6915
VHylorina
p6916
(lp6917
Vsylvatica
p6918
asVBatrachyla
p6919
(lp6920
Vtaeniata
p6921
assVHemiphractidae
p6922
(dp6923
VCryptobatrachus
p6924
(lp6925
Vboulengeri
p6926
asVHemiphractus
p6927
(lp6928
Vfasciatus
p6929
aVproboscideus
p6930
aVelioti
p6931
aVkaylockae
p6932
asVGastrotheca
p6933
(lp6934
Vperuana
p6935
assVBombinatoridae
p6936
(dp6937
VBombina
p6938
(lp6939
Vmaxima
p6940
assVAlsodidae
p6941
(dp6942
VAlsodes
p6943
(lp6944
Vnodosus
p6945
asVEupsophus
p6946
(lp6947
Vroseus
p6948
asVLimnomedusa
p6949
(lp6950
Vmacroglossa
p6951
assVRanixalidae
p6952
(dp6953
VIndirana
p6954
(lp6955
Vphrynoderma
p6956
assVNasikabatrachidae
p6957
(dp6958
VNasikabatrachus
p6959
(lp6960
Vsahyadrensis
p6961
assVHylidae
p6962
(dp6963
VPhyllodytes
p6964
(lp6965
Vluteolus
p6966
asVNyctimantis
p6967
(lp6968
Vrugiceps
p6969
asVAgalychnis
p6970
(lp6971
Vcalcarifer
p6972
asVPseudacris
p6973
(lp6974
Vornata
p6975
asVHyla
p6976
(lp6977
Vfemoralis
p6978
aVavivoca
p6979
aVandersonii
p6980
aVboans
p6981
aVchrysoscelis
p6982
aVcinerea
p6983
asVAnotheca
p6984
(lp6985
Vspinosa
p6986
asVAcris
p6987
(lp6988
Vcrepitans
p6989
aVgryllus
p6990
asVLitoria
p6991
(lp6992
Vaurea
p6993
asVTepuihyla
p6994
(lp6995
Vrodriguezi
p6996
asVStefania
p6997
(lp6998
Vscalae
p6999
asVCorythomantis
p7000
(lp7001
Vgreeningi
p7002
asVArgenteohyla
p7003
(lp7004
Vsiemersi
p7005
asVTriprion
p7006
(lp7007
Vpetasatus
p7008
assVRhacophoridae
p7009
(dp7010
VRaorchestes
p7011
(lp7012
Vmanohari
p7013
aVprimarrumpfi
p7014
aVflaviocularas
p7015
aVnerostegona
p7016
aVochlandrae
p7017
aVresplendens
p7018
aVparvulus
p7019
aVchalazodes
p7020
asVTheloderma
p7021
(lp7022
Vphrynoderma
p7023
asVNyctixalus
p7024
(lp7025
Vpictus
p7026
aVspinosus
p7027
asVRhacophorus
p7028
(lp7029
Vschlegeli
p7030
aVnigripunctatus
p7031
aVappendiculatus
p7032
aVcatamitus
p7033
aVbatakensis
p7034
aVfeae
p7035
asVFeihyla
p7036
(lp7037
Vpalpebralis
p7038
asVPolypedates
p7039
(lp7040
Vmacrotis
p7041
asVPhilautus
p7042
(lp7043
Vpetersi
p7044
aVsurdus
p7045
aVworcesteri
p7046
asVChiromantis
p7047
(lp7048
Vrufescens
p7049
asVBuergeria
p7050
(lp7051
Vjaponica
p7052
assVCraugastoridae
p7053
(dp7054
VCraugastor
p7055
(lp7056
Vlaticeps
p7057
assVBufonidae
p7058
(dp7059
VNectophryne
p7060
(lp7061
Vafra
p7062
asVMelanophryniscus
p7063
(lp7064
Vstelzneri
p7065
asVNectophrynoides
p7066
(lp7067
Vviviparus
p7068
asVAtelopus
p7069
(lp7070
Voxyrhynchus
p7071
aVignescens
p7072
asVAnsonia
p7073
(lp7074
Vmcgregori
p7075
asVSchismaderma
p7076
(lp7077
Vcarens
p7078
asVFrostius
p7079
(lp7080
Vpernambucensis
p7081
asVDidynamipus
p7082
(lp7083
Vsjostedti
p7084
asVAltiphrynoides
p7085
(lp7086
Vmalcomi
p7087
asVAdenomus
p7088
(lp7089
Vkelaartii
p7090
asVMertensophryne
p7091
(lp7092
Vmicranotis
p7093
asVPeltophryne
p7094
(lp7095
Vguentheri
p7096
asVTruebella
p7097
(lp7098
Vtothastes
p7099
aVskoptes
p7100
asVAnaxyrus
p7101
(lp7102
Vfowleri
p7103
aVquercicus
p7104
aVterrestris
p7105
asVLaurentophryne
p7106
(lp7107
Vparkeri
p7108
asVWolterstorffina
p7109
(lp7110
Vparvipalmata
p7111
assVStrabomantidae
p7112
(dp7113
VOreobates
p7114
(lp7115
Vquixensis
p7116
asVStrabomantis
p7117
(lp7118
Vanomalus
p7119
assVCeratobatrachidae
p7120
(dp7121
VAlcalus
p7122
(lp7123
Vmariae
p7124
asVPlatymantis
p7125
(lp7126
Vpolillensis
p7127
asVCornufer
p7128
(lp7129
Vguppyi
p7130
aVguentheri
p7131
assVScaphiopodidae
p7132
(dp7133
VSpea
p7134
(lp7135
Vmultiplicata
p7136
assVEleutherodactylidae
p7137
(dp7138
VPhyzelaphryne
p7139
(lp7140
Vmiriamae
p7141
asVEleutherodactylus
p7142
(lp7143
Vorientalis
p7144
aVdimidiatus
p7145
aVglaphycompus
p7146
aVjohnstonei
p7147
aVkarlschmidti
p7148
aVatkinsi
p7149
assVDendrobatidae
p7150
(dp7151
VOophaga
p7152
(lp7153
Vpumilio
p7154
asVAmeerega
p7155
(lp7156
Vtrivittata
p7157
asVPhyllobates
p7158
(lp7159
Vbicolor
p7160
asVColostethus
p7161
(lp7162
Vsylvaticus
p7163
asVMannophryne
p7164
(lp7165
Volmonae
p7166
aVtrinitatis
p7167
asVAllobates
p7168
(lp7169
Vkingsburyi
p7170
asVRheobates
p7171
(lp7172
Vpalmatus
p7173
assVRanidae
p7174
(dp7175
VOccidozyga
p7176
(lp7177
Vlaevis
p7178
asVNyctibatrachus
p7179
(lp7180
Valiciae
p7181
aVmajor
p7182
asVCacosternum
p7183
(lp7184
Vboettgeri
p7185
aVnamaquense
p7186
asVAmnirana
p7187
(lp7188
Valbolabris
p7189
asVLithobates
p7190
(lp7191
Vgrylio
p7192
asVAmolops
p7193
(lp7194
Vcompotrix
p7195
aVspinapectoralis
p7196
asVNatalobatrachus
p7197
(lp7198
Vbonebergi
p7199
asVOdorrana
p7200
(lp7201
Vchapaensis
p7202
asVArthroleptella
p7203
(lp7204
Vlightfooti
p7205
asVMicrixalus
p7206
(lp7207
Vadonis
p7208
aVherrei
p7209
asVRana
p7210
(lp7211
Vclamitans
p7212
aVcapito
p7213
asVPhrynobatrachus
p7214
(lp7215
Vkrefftii
p7216
asVTomopterna
p7217
(lp7218
Vdelandii
p7219
aVmarmorata
p7220
aVtuberculosa
p7221
asVHylarana
p7222
(lp7223
Verythraea
p7224
asVFejervarya
p7225
(lp7226
Vlimnocharis
p7227
asssVCaudata
p7228
(dp7229
VProteidae
p7230
(dp7231
VNecturus
p7232
(lp7233
Vlewisi
p7234
aVbeyeri
p7235
assVSalamandridae
p7236
(dp7237
VTriturus
p7238
(lp7239
Vcristatus
p7240
asVIchthyosaura
p7241
(lp7242
Valpestris
p7243
asVCalotriton
p7244
(lp7245
Varnoldi
p7246
asVPachytriton
p7247
(lp7248
Vlabiatus
p7249
asVPleurodeles
p7250
(lp7251
Vwaltl
p7252
asVNotophthalmus
p7253
(lp7254
Vviridescens
p7255
aVmeridionalis
p7256
asVCynops
p7257
(lp7258
Vpyrrhogaster
p7259
asVTylototriton
p7260
(lp7261
Vpanhai
p7262
asVLissotriton
p7263
(lp7264
Vhelviticus
p7265
aVvulgaris
p7266
assVAmphiumidae
p7267
(dp7268
VAmphiuma
p7269
(lp7270
Vmeans
p7271
assVCryptobranchidae
p7272
(dp7273
VCryptobranchus
p7274
(lp7275
Valleganiensis
p7276
assVAmbystomatidae
p7277
(dp7278
VAmbystoma
p7279
(lp7280
Vmavortium
p7281
aVmaculatum
p7282
assVPlethodontidae
p7283
(dp7284
VBolitoglossa
p7285
(lp7286
Vfranklini
p7287
aVmexicana
p7288
asVDesmognathus
p7289
(lp7290
Vauriculatus
p7291
aVapalachicolae
p7292
aVsp
p7293
aVfloridanus 
p7294
aVconanti
p7295
aVvalentinei
p7296
asVGyrinophilus
p7297
(lp7298
Vporphyriticus
p7299
assVSirenidae
p7300
(dp7301
VSiren
p7302
(lp7303
Vintermedia
p7304
assssVChondrichthys
p7305
(dp7306
sss.