(dp1
S'c'
(lp2
VActinopterygii
p3
aVMyxini
p4
aVChondrichthyes
p5
aVReptilia
p6
aVMammalia
p7
aVAmphibia
p8
aVActinopteri
p9
aVAves
p10
aVCrustacea
p11
aVSarcopterygii
p12
aVOsteichthyes
p13
aVElasmobranchii
p14
aVTherapsida
p15
aVOsteichthys
p16
aVChondrichthys
p17
asS'g'
(lp18
VEumicrotremus
p19
aVClarias
p20
aVTrachelochismus
p21
aVColomesus
p22
aVCottunculus
p23
aVMelanocetus
p24
aVSetipinna
p25
aVHypophthalmichthys
p26
aVAgonus
p27
aVLeporinus
p28
aVChrosomus
p29
aVBellator
p30
aVAchirus
p31
aVParophrys
p32
aVElops
p33
aVNeonoemacheilus
p34
aVSchistura
p35
aVNemacheilus
p36
aVSerpenticobitis
p37
aVChromobotia
p38
aVAcantopsis
p39
aVMicrodevario
p40
aVTampichthys
p41
aVCyprinella
p42
aVSinogastromyzon
p43
aVBeaufortia
p44
aVBalitoropsis
p45
aVPseudohomaloptera
p46
aVHomalopterula
p47
aVHomalopteroides
p48
aVNeohomaloptera
p49
aVYaoshania
p50
aVLupinoblennius
p51
aVLabrisomus
p52
aVSternarchorhynchus
p53
aVPao
p54
aVOpsanus
p55
aVEptatretus
p56
aVEdestus
p57
aVMicrurus
p58
aVRieppeleon
p59
aVAhaetulla
p60
aVUnknown
p61
aVLyriocephalus
p62
aVSphaerodactylus
p63
aVScenopagus
p64
aVAphronorus
p65
aVElphidotarsius
p66
aVAromobates
p67
aVTepuihyla
p68
aVAgalychnis
p69
aVTriprion
p70
aVStefania
p71
aVPhilautus
p72
aVNyctixalus
p73
aVAnsonia
p74
aVAdenomera
p75
aVAlcalus
p76
aVPlatymantis
p77
aVCornufer
p78
aVTriturus
p79
aVNematalosa
p80
aVOpisthonema
p81
aVAgonomalus
p82
aVOccella
p83
aVNectoliparis
p84
aVLipariscus
p85
aVAscelichthys
p86
aVRadulinopsis
p87
aVPseudoblennius
p88
aVRicuzenius
p89
aVStelgistrum
p90
aVDiplecogaster
p91
aVGouania
p92
aVAcyrtus
p93
aVTomicodon
p94
aVSnyderichthys
p95
aVPogonichthys
p96
aVLepidomeda
p97
aVNeolissochilus
p98
aVRelictus
p99
aVPtychocheilus
p100
aVBarbucca
p101
aVTuberoschistura
p102
aVBalitora
p103
aVExerpes
p104
aVNeoclinus
p105
aVMicrometrus
p106
aVArcholaemus
p107
aVTakifugu
p108
aVCarinotetraodon
p109
aVPseudolaguvia
p110
aVOgcocephalus
p111
aVOncorhynchus
p112
aVNotopterus
p113
aVChalceus
p114
aVMylesinus
p115
aVTriportheus
p116
aVMerluccius
p117
aVChauliodus
p118
aVLuscinia
p119
aVDendrocopos
p120
aVMassospondylus
p121
aVCrypholestes
p122
aVNeosaimiri
p123
aVHomunculus
p124
aVHomarus
p125
aVPhyzelaphryne
p126
aVGymnothorax
p127
aVHelogenes
p128
aVSectoria
p129
aVNarcine
p130
aVHiodon
p131
aVPervagor
p132
aVPercopsis
p133
aVArtediellus
p134
aVMyoxocephalus
p135
aVMargariscus
p136
aVBrachyopsis
p137
aVLepidosiren
p138
aVAcyrtops
p139
aVForbesichthys
p140
aVTyphlichthys
p141
aVDellichthys
p142
aVDiscotrema
p143
aVPherallodiscus
p144
aVParvicrepis
p145
aVRimicola
p146
aVCreocele
p147
aVArcos
p148
aVCochleoceps
p149
aVAlabes
p150
aVDiademichthys
p151
aVAspasmichthys
p152
aVLepadichthys
p153
aVPosidonichthys
p154
aVAspasmodes
p155
aVAspasmogaster
p156
aVNotoclinops
p157
aVEnneanectes
p158
aVNorfolkia
p159
aVHelcogramma
p160
aVAxoclinus
p161
aVHelcogrammoides
p162
aVEnneapterygius
p163
aVCrocodilichthys
p164
aVAmmodytes
p165
aVBathymaster
p166
aVLagodon
p167
aVLabeotropheus
p168
aVLabidochromis
p169
aVProtemblemaria
p170
aVCoralliozetus
p171
aVHemiemblemaria
p172
aVChaenopsis
p173
aVStathmonotus
p174
aVMccoskerichthys
p175
aVEmblemariopsis
p176
aVEmblemaria
p177
aVParablennius
p178
aVAndamia
p179
aVMeiacanthus
p180
aVAntennablennius
p181
aVHirculops
p182
aVEcsenius
p183
aVOmobranchus
p184
aVSalarias
p185
aVPlagiotremus
p186
aVHypleurochilus
p187
aVPetroscirtes
p188
aVHypsoblennius
p189
aVRhabdoblennius
p190
aVXiphasia
p191
aVAtrosalarias
p192
aVAspidontus
p193
aVRisor
p194
aVGobiopterus
p195
aVSicydium
p196
aVGillichthys
p197
aVMirolabrichthys
p198
aVAnarhichas
p199
aVAnarrhichthys
p200
aVZaprora
p201
aVGramma
p202
aVBothrocara
p203
aVHeteristius
p204
aVGillellus
p205
aVDactyloscopus
p206
aVCryptacanthodes
p207
aVTrichodon
p208
aVMalacoctenus
p209
aVParaclinus
p210
aVStarksia
p211
aVXenomedea
p212
aVDialommus
p213
aVHeteroclinus
p214
aVHeterostichus
p215
aVCristiceps
p216
aVClinus
p217
aVClimacoporus
p218
aVPavoclinus
p219
aVGobiesox
p220
aVCymatogaster
p221
aVEmbiotoca
p222
aVHysterocarpus
p223
aVBrachyistius
p224
aVHyperprosopon
p225
aVPhanerodon
p226
aVAmphistichus
p227
aVRhacochilus
p228
aVDitrema
p229
aVNeoditrema
p230
aVHypsurus
p231
aVSternopygus
p232
aVEigenmannia
p233
aVApteronotus
p234
aVCompsaraia
p235
aVEsox
p236
aVAlbatrossia
p237
aVNezumia
p238
aVCoryphaenoides
p239
aVAmazonsprattus
p240
aVEngraulis
p241
aVEncrasicholina
p242
aVThryssa
p243
aVAnchoa
p244
aVStolephorus
p245
aVIlisha
p246
aVOpisthopterus
p247
aVClupea
p248
aVEscualosa
p249
aVAmblygaster
p250
aVHerklotsichthys
p251
aVSardinella
p252
aVAnodontostoma
p253
aVSardinops
p254
aVBrevoortia
p255
aVClupeichthys
p256
aVDorosoma
p257
aVAlosa
p258
aVDussumieria
p259
aVAnoplopoma
p260
aVErilepis
p261
aVAsprocottus
p262
aVAbyssocottus
p263
aVRhamphocottus
p264
aVSebastolobus
p265
aVNormanichthys
p266
aVCrystallias
p267
aVRhinoliparis
p268
aVAcantholiparis
p269
aVCrystallichthys
p270
aVCareproctus
p271
aVParaliparis
p272
aVLiparis
p273
aVLopholiparis
p274
aVElassodiscus
p275
aVPrognatholiparis
p276
aVGyrinichthys
p277
aVPolypera
p278
aVAllocareproctus
p279
aVPalmoliparis
p280
aVElates
p281
aVGrammoplites
p282
aVBlepsias
p283
aVHemitripterus
p284
aVNautichthys
p285
aVComephorus
p286
aVOxylebius
p287
aVPleurogrammus
p288
aVHexagrammos
p289
aVZaniolepis
p290
aVOphiodon
p291
aVPrionotus
p292
aVOligocottus
p293
aVEnophrys
p294
aVAtopocottus
p295
aVStlengis
p296
aVFurcina
p297
aVOcynectes
p298
aVThyriscus
p299
aVTriglops
p300
aVCottocomephorus
p301
aVRastrinus
p302
aVVellitor
p303
aVChitonotus
p304
aVZesticelus
p305
aVCottiusculus
p306
aVCottus
p307
aVPhasmatocottus
p308
aVBolinia
p309
aVIcelinus
p310
aVScorpaenichthys
p311
aVParicelinus
p312
aVBero
p313
aVParacottus
p314
aVAsemichthys
p315
aVTrichocottus
p316
aVHemilepidotus
p317
aVIcelus
p318
aVSigmistes
p319
aVSynchirus
p320
aVJordania
p321
aVArchistes
p322
aVGymnocanthus
p323
aVRuscarius
p324
aVLeiocottus
p325
aVLeptocottus
p326
aVPhallocottus
p327
aVMegalocottus
p328
aVPorocottus
p329
aVEurymen
p330
aVPsychrolutes
p331
aVDasycottus
p332
aVMalacocottus
p333
aVAptocyclus
p334
aVBathyagonus
p335
aVBothragonus
p336
aVAspidophoroides
p337
aVStellerina
p338
aVPodothecus
p339
aVAgonopsis
p340
aVHypsagonus
p341
aVSarritor
p342
aVXeneretmus
p343
aVOdontopyxis
p344
aVLeptagonus
p345
aVPercis
p346
aVAnoplagonus
p347
aVHeteroconger
p348
aVAnguilla
p349
aVChologaster
p350
aVBrevimyrus
p351
aVBathypterois
p352
aVAphos
p353
aVPerulibatrachus
p354
aVHalophryne
p355
aVThalassophryne
p356
aVDaector
p357
aVBarchatus
p358
aVTriathalassothia
p359
aVChatrabus
p360
aVAllenbatrachus
p361
aVColletteichthys
p362
aVPorichthys
p363
aVVladichthys
p364
aVBifax
p365
aVBatrachomoeus
p366
aVSanopus
p367
aVTraccatichthys
p368
aVPhysoschistura
p369
aVMinytrema
p370
aVMoxostoma
p371
aVCarpiodes
p372
aVSabanejewia
p373
aVPsilorhynchus
p374
aVMeda
p375
aVCosmochilus
p376
aVBarbus
p377
aVLabeo
p378
aVDionda
p379
aVPimephales
p380
aVErimystax
p381
aVOsteochilus
p382
aVCampostoma
p383
aVCouesius
p384
aVMylocheilus
p385
aVPlatygobio
p386
aVGila
p387
aVRichardsonius
p388
aVMylopharodon
p389
aVYuriria
p390
aVRaiamas
p391
aVAcrocheilus
p392
aVGarra
p393
aVCandidia
p394
aVLuxilus
p395
aVPhoxinus
p396
aVAlgansea
p397
aVLavinia
p398
aVHybopsis
p399
aVAztecula
p400
aVLythrurus
p401
aVCodoma
p402
aVPuntius
p403
aVExoglossum
p404
aVClinostomus
p405
aVLabeobarbus
p406
aVClypeobarbus
p407
aVNotropis
p408
aVHybognathus
p409
aVPhenacobius
p410
aVEremichthys
p411
aVHenicorhynchus
p412
aVMacrhybopsis
p413
aVBarbatula
p414
aVHemimyzon
p415
aVGastromyzon
p416
aVSewellia
p417
aVFormosania
p418
aVTrachycorystes
p419
aVAmeiurus
p420
aVTrogloglanis
p421
aVSatan
p422
aVPylodictis
p423
aVNoturus
p424
aVIctalurus
p425
aVTrichomycterus
p426
aVMystus
p427
aVCorydoras
p428
aVBagre
p429
aVBagarius
p430
aVMyersglanis
p431
aVBunocephalus
p432
aVRhamdia
p433
aVHypomesus
p434
aVSternoptyx
p435
aVPolyipnus
p436
aVArgyropelecus
p437
aVStomias
p438
aVEustomias
p439
aVHippocampus
p440
aVPolypterus
p441
aVPoecilia
p442
aVMugil
p443
aVTrinectes
p444
aVHypoclinemus
p445
aVLepisosteus
p446
aVLabidesthes
p447
aVMenidia
p448
aVPolymixia
p449
aVSaurenchelys
p450
aVApterichtus
p451
aVSufflamen
p452
aVCanthidermis
p453
aVBalistapus
p454
aVBalistes
p455
aVMelichthys
p456
aVOdonus
p457
aVRhinecanthus
p458
aVLagocephalus
p459
aVPelagocephalus
p460
aVTylerius
p461
aVTetraodon
p462
aVArothron
p463
aVAuriglobus
p464
aVCanthigaster
p465
aVDiodon
p466
aVCantherhines
p467
aVAcreichthys
p468
aVStephanolepis
p469
aVAlutera
p470
aVAcanthostracion
p471
aVAnoplogaster
p472
aVPorogadus
p473
aVBassozetus
p474
aVDermogenys
p475
aVPetalichthys
p476
aVBelonion
p477
aVPseudotylosurus
p478
aVStrongylura
p479
aVPseudanos
p480
aVLeporellus
p481
aVHypomasticus
p482
aVLaemolyta
p483
aVPetulanos
p484
aVAnostomus
p485
aVProchilodus
p486
aVThoracocharax
p487
aVPygopristis
p488
aVPygocentrus
p489
aVCatoprion
p490
aVSerrasalmus
p491
aVRhaphiodon
p492
aVPristobrycon
p493
aVAstyanax
p494
aVMylossoma
p495
aVExodon
p496
aVMetynnis
p497
aVRoeboides
p498
aVAgoniates
p499
aVAmia
p500
aVOxymonacanthus
p501
aVTiktaalik
p502
aVDiplobatis
p503
aVNarke
p504
aVCarcharocles
p505
aVEtmopterus
p506
aVTaeniura
p507
aVUrotrygon
p508
aVUrobatis
p509
aVUrolophus
p510
aVHimantura
p511
aVNeotrygon
p512
aVPotamotrygon
p513
aVPristis
p514
aVCarcharopsis
p515
aVThrinaxodon
p516
aVMicrocottus
p517
aVArtedius
p518
aVMelanonus
p519
aVSemotilus
p520
aVNocomis
p521
aVRhinichthys
p522
aVZalembius
p523
aVEkemblemaria
p524
aVLamprologus
p525
aVSphoeroides
p526
aVRanzania
p527
aVMonacanthus
p528
aVHeteropneustes
p529
aVGonostoma
p530
aVMastacembelus
p531
aVOsteoglossum
p532
aVRhytiodus
p533
aVColossoma
p534
aVPiaractus
p535
aVAnkylosaurus
p536
aVEustreptospondylus
p537
aVPelomedusa
p538
aVStegoceras
p539
aVEdmontosaurus
p540
aVTelmatosaurus
p541
aVUropeltis
p542
aVPlectrurus
p543
aVGloydius
p544
aVAtractaspis
p545
aVAcrochordus
p546
aVPsammodynastes
p547
aVOrthriophis
p548
aVHomoroselaps
p549
aVXenocalamus
p550
aVDendroaspis
p551
aVNaja
p552
aVDiporiphora
p553
aVUromastyx
p554
aVJapalura
p555
aVCeratophora
p556
aVIntellagama
p557
aVAgama
p558
aVGoniurosaurus
p559
aVHemitheconyx
p560
aVAnilios
p561
aVSceloporus
p562
aVUma
p563
aVSibon
p564
aVPsomophis
p565
aVDibamus
p566
aVLaemanctus
p567
aVCorytophanes
p568
aVTakydromus
p569
aVBavayia
p570
aVCrenadactylus
p571
aVOedodera
p572
aVCorrelophus
p573
aVGambelia
p574
aVBrachylophus
p575
aVCtenosaura
p576
aVAnolis
p577
aVCrotaphytus
p578
aVBasiliscus
p579
aVSauromalus
p580
aVPhymaturus
p581
aVIguana
p582
aVXenosaurus
p583
aVShinisaurus
p584
aVCubophis
p585
aVOxyrhopus
p586
aVOmoadiphas
p587
aVHeloderma
p588
aVMastigodryas
p589
aVThelotornis
p590
aVOxybelis
p591
aVElaphe
p592
aVSpilotes
p593
aVPlica
p594
aVMicrolophus
p595
aVLeiocephalus
p596
aVPlatecarpus
p597
aVLanthanotus
p598
aVNephrurus
p599
aVPhyllurus
p600
aVTupinambis
p601
aVDracaena
p602
aVDicrodon
p603
aVKentropyx
p604
aVSibynophis
p605
aVAparallactus
p606
aVVaranus
p607
aVEgernia
p608
aVCorucia
p609
aVLerista
p610
aVTiliqua
p611
aVTrachylepis
p612
aVGyalopion
p613
aVTrimorphodon
p614
aVConopsis
p615
aVLeptophis
p616
aVXenopholis
p617
aVHeterodon
p618
aVHypsiglena
p619
aVClelia
p620
aVErpeton
p621
aVDrymobius
p622
aVProsymna
p623
aVLiophidium
p624
aVTantilla
p625
aVImantodes
p626
aVTaeniophallus
p627
aVDasypeltis
p628
aVLamprophis
p629
aVDromicodryas
p630
aVFicimia
p631
aVLampropeltis
p632
aVDispholidus
p633
aVMasticophis
p634
aVLeioheterodon
p635
aVIthycyphus
p636
aVDipsas
p637
aVDrymarchon
p638
aVAmblyodipsas
p639
aVGeckolepis
p640
aVChondrodactylus
p641
aVTropiocolotes
p642
aVCyrtodactylus
p643
aVUroplatus
p644
aVPachydactylus
p645
aVPristurus
p646
aVHemidactylus
p647
aVRhoptropus
p648
aVPseudogonatodes
p649
aVSaurodactylus
p650
aVChamaeleo
p651
aVFurcifer
p652
aVCalumma
p653
aVBrookesia
p654
aVRhampholeon
p655
aVBradypodion
p656
aVTarentola
p657
aVThecadactylus
p658
aVTitanoboa
p659
aVBoa
p660
aVEunectes
p661
aVAtheris
p662
aVCrotalus
p663
aVLachesis
p664
aVAzemiops
p665
aVBothrops
p666
aVAgkistrodon
p667
aVCerastes
p668
aVGerrhosaurus
p669
aVCyclura
p670
aVRhineura
p671
aVGekko
p672
aVSmaug
p673
aVCordylus
p674
aVElgaria
p675
aVMacrelaps
p676
aVPolemon
p677
aVCrocodylus
p678
aVTomistoma
p679
aVGavialis
p680
aVAlligator
p681
aVPaleosuchus
p682
aVGrallator
p683
aVMegalosaurus
p684
aVDakotasuchus
p685
aVOrovenator
p686
aVTriopticus
p687
aVWannia
p688
aVConolophus
p689
aVAmblyrhynchus
p690
aVKinyongia
p691
aVTrioceros
p692
aVDraco
p693
aVCalotes
p694
aVBronchocela
p695
aVSitana
p696
aVTeius
p697
aVCnemidophorus
p698
aVDixonius
p699
aVTeratoscincus
p700
aVStenodactylus
p701
aVCyrtopodion
p702
aVAcontias
p703
aVPlatysaurus
p704
aVAcanthodactylus
p705
aVLepidoblepharis
p706
aVTrachemys
p707
aVPhrynops
p708
aVMelanochelys
p709
aVCuora
p710
aVKinosternon
p711
aVMacrochelys
p712
aVChelydra
p713
aVSphenodon
p714
aVWidanelfarasia
p715
aVAfrodon
p716
aVBustylus
p717
aVVintana
p718
aVPtolemaia
p719
aVLabidolemur
p720
aVKrusatodon
p721
aVManis
p722
aVTexomys
p723
aVMubhammys
p724
aVBirkamys
p725
aVMicromys
p726
aVMus
p727
aVApomys
p728
aVMeriones
p729
aVAkodon
p730
aVPhloeomys
p731
aVGerbillus
p732
aVRattus
p733
aVRhizomys
p734
aVNesokia
p735
aVPsammomys
p736
aVPrionomys
p737
aVAcomys
p738
aVTatera
p739
aVCricetomys
p740
aVProdolichotis
p741
aVPhugatherium
p742
aVCuniculus
p743
aVReithroparamys
p744
aVAlagomys
p745
aVCoendou
p746
aVErethizon
p747
aVAcritoparamys
p748
aVMicroparamys
p749
aVParamys
p750
aVIschyromys
p751
aVDremomys
p752
aVHeliosciurus
p753
aVSpermophilus
p754
aVHylopetes
p755
aVTamiasciurus
p756
aVGlaucomys
p757
aVLariscus
p758
aVPetinomys
p759
aVProtoxerus
p760
aVParaxerus
p761
aVCallosciurus
p762
aVEutamias
p763
aVPetaurista
p764
aVFunisciurus
p765
aVRatufa
p766
aVRhinosciurus
p767
aVSciurus
p768
aVAeromys
p769
aVOtotylomys
p770
aVNyctomys
p771
aVCopemys
p772
aVPeromyscus
p773
aVMyodes
p774
aVOchrotomys
p775
aVOnychomys
p776
aVAlticola
p777
aVNeofiber
p778
aVBaiomys
p779
aVNeotoma
p780
aVLemmus
p781
aVNectomys
p782
aVSynaptomys
p783
aVMesocricetus
p784
aVPodomys
p785
aVMicrotus
p786
aVHyperacrius
p787
aVReithrodontomys
p788
aVZapus
p789
aVNapaeozapus
p790
aVAllactaga
p791
aVRodent
p792
aVAplodontia
p793
aVCedromus
p794
aVChaetodipus
p795
aVDipodomys
p796
aVHeteromys
p797
aVKabirmys
p798
aVMiocochilius
p799
aVUrogale
p800
aVTupaia
p801
aVDendrogale
p802
aVPtilocercus
p803
aVEremotherium
p804
aVBradypus
p805
aVCholoepus
p806
aVMegalonyx
p807
aVAcratocnus
p808
aVNeocnus
p809
aVParocnus
p810
aVThyrohyrax
p811
aVSaghatherium
p812
aVProcavia
p813
aVMimoperadectes
p814
aVPeradectes
p815
aVDromiciops
p816
aVDidelphodus
p817
aVEoryctes
p818
aVRhyncholestes
p819
aVLestoros
p820
aVPalaeothentes
p821
aVHyrachyus
p822
aVAnchitherium
p823
aVNeohipparion
p824
aVNannippus
p825
aVDinohippus
p826
aVArchaeohippus
p827
aVMesohippus
p828
aVPropalaeotherium
p829
aVParahippus
p830
aVEurygnathohippus
p831
aVSifrhippus
p832
aVCalippus
p833
aVEquus
p834
aVMetanchilophus
p835
aVPalaeotherium
p836
aVPlagiolophus
p837
aVTapirus
p838
aVDiceros
p839
aVCeratotherium
p840
aVDiaceratherium
p841
aVStephanorhinus
p842
aVRhinoceros
p843
aVProsantorhinus
p844
aVBrachypotherium
p845
aVDicerorhinus
p846
aVMolassitherium
p847
aVLophiodon
p848
aVPhascolarctos
p849
aVBettongia
p850
aVAepyprymnus
p851
aVPotorous
p852
aVDactylopsila
p853
aVLasiorhinus
p854
aVVombatus
p855
aVMacropus
p856
aVDendrolagus
p857
aVTrichosurus
p858
aVGiraffa
p859
aVAntidorcas
p860
aVRedunca
p861
aVMiniochoerus
p862
aVBothriogenys
p863
aVPhacochoerus
p864
aVConohyus
p865
aVMetridiochoerus
p866
aVListriodon
p867
aVCervalces
p868
aVMerycoidodon
p869
aVTenrec
p870
aVSetifer
p871
aVPotamogale
p872
aVHemicentetes
p873
aVEchinops
p874
aVDasyurus
p875
aVPlanigale
p876
aVAntechinus
p877
aVGlobicephala
p878
aVSteno
p879
aVOrcinus
p880
aVStenella
p881
aVBalaenoptera
p882
aVMegaptera
p883
aVKogia
p884
aVPontoporia
p885
aVCarlocebus
p886
aVAfradapis
p887
aVKaranisia
p888
aVEquatorius
p889
aVArsinoea
p890
aVMasradapis
p891
aVPlesiopithecus
p892
aVAotus
p893
aVPlesiadapis
p894
aVPronothodectes
p895
aVPlatychoerops
p896
aVNannodectes
p897
aVChiromyoides
p898
aVEosimias
p899
aVElwynella
p900
aVParomomys
p901
aVPhenacolemur
p902
aVAcidomomys
p903
aVArcius
p904
aVPalaechthon
p905
aVIgnacius
p906
aVEdworthia
p907
aVCebupithecia
p908
aVCebus
p909
aVDolichocebus
p910
aVTremacebus
p911
aVCallimico
p912
aVPanamacebus
p913
aVBranisella
p914
aVCallithrix
p915
aVLeontopithecus
p916
aVSaimiri
p917
aVMahgarita
p918
aVDonrussellia
p919
aVAnchomomys
p920
aVAdapoides
p921
aVCaenopithecus
p922
aVAdapis
p923
aVMicrochoerus
p924
aVNotharctus
p925
aVLeptadapis
p926
aVCatopithecus
p927
aVMicrocebus
p928
aVPhaner
p929
aVMirza
p930
aVCheirogaleus
p931
aVCebuella
p932
aVSaguinus
p933
aVPremnoides
p934
aVSaxonella
p935
aVAvahi
p936
aVIndri
p937
aVPropithecus
p938
aVSerapia
p939
aVProteopithecus
p940
aVPithecia
p941
aVCarpolestes
p942
aVPurgatorius
p943
aVCacajao
p944
aVChiropotes
p945
aVCallicebus
p946
aVTarsius
p947
aVCarlito
p948
aVCephalopachus
p949
aVAlouatta
p950
aVBrachyteles
p951
aVStirtonia
p952
aVAteles
p953
aVLagothrix
p954
aVHadropithecus
p955
aVArchaeolemur
p956
aVAsiadapis
p957
aVCantius
p958
aVMarcgodinotius
p959
aVSmilodectes
p960
aVAzibius
p961
aVMicropithecus
p962
aVParapithecus
p963
aVApidium
p964
aVQatrania
p965
aVMicrosyops
p966
aVNiptomomys
p967
aVRooneyia
p968
aVWashakius
p969
aVTeilhardina
p970
aVHemiacodon
p971
aVArapahovius
p972
aVAbsarokius
p973
aVShoshonius
p974
aVOurayia
p975
aVNecrolemur
p976
aVTetonius
p977
aVAnemorhysis
p978
aVVastanomys
p979
aVGalago
p980
aVOtolemur
p981
aVSaharagalago
p982
aVEuoticus
p983
aVWadilemur
p984
aVAegyptopithecus
p985
aVOligopithecus
p986
aVPropliopithecus
p987
aVMazzonicebus
p988
aVSoriacebus
p989
aVPachylemur
p990
aVLemur
p991
aVProlemur
p992
aVHapalemur
p993
aVVarecia
p994
aVEulemur
p995
aVDjebelemur
p996
aVAfrotarsius
p997
aVDaubentonia
p998
aVAfropithecus
p999
aVNyanzapithecus
p1000
aVPerodicticus
p1001
aVNycticebus
p1002
aVGalagoides
p1003
aVArctocebus
p1004
aVLoris
p1005
aVDryomomys
p1006
aVBunopithecus
p1007
aVHoolock
p1008
aVHylobates
p1009
aVSymphalangus
p1010
aVMegaladapis
p1011
aVLepilemur
p1012
aVSivapithecus
p1013
aVLimnopithecus
p1014
aVPongo
p1015
aVGorilla
p1016
aVAustralopithecus
p1017
aVHomo
p1018
aVProconsul
p1019
aVPan
p1020
aVParapapio
p1021
aVTrachypithecus
p1022
aVNasalis
p1023
aVPapio
p1024
aVChlorocebus
p1025
aVAllenopithecus
p1026
aVLophocebus
p1027
aVCercopithecus
p1028
aVDinopithecus
p1029
aVSemnopithecus
p1030
aVMandrillus
p1031
aVColobus
p1032
aVMiopithecus
p1033
aVPygathrix
p1034
aVGorgopithecus
p1035
aVProcolobus
p1036
aVPresbytis
p1037
aVRhinopithecus
p1038
aVTheropithecus
p1039
aVCercopithecoides
p1040
aVCercocebus
p1041
aVMacaca
p1042
aVErythrocebus
p1043
aVChaetophractus
p1044
aVCabassous
p1045
aVZaedyus
p1046
aVTolypeutes
p1047
aVEuphractus
p1048
aVHolmesina
p1049
aVSolenodon
p1050
aVCrocidura
p1051
aVSuncus
p1052
aVDesmana
p1053
aVCentetodon
p1054
aVMetatomarctus
p1055
aVCanis
p1056
aVSmilodon
p1057
aVPalaeosinopa
p1058
aVProtosiren
p1059
aVMacrocranion
p1060
aVMacroscelides
p1061
aVPetrodromus
p1062
aVTalpavoides
p1063
aVEctypodus
p1064
aVPtilodus
p1065
aVMasrasector
p1066
aVGaleopterus
p1067
aVCynocephalus
p1068
aVBrychotherium
p1069
aVAkhnatenavus
p1070
aVAtilax
p1071
aVPristinailurus
p1072
aVFelis
p1073
aVMegantereon
p1074
aVPuma
p1075
aVLeopardus
p1076
aVDinofelis
p1077
aVPanthera
p1078
aVHomotherium
p1079
aVLynx
p1080
aVAcinonyx
p1081
aVNeofelis
p1082
aVVulpes
p1083
aVSimocyon
p1084
aVHesperocyon
p1085
aVSpeothos
p1086
aVEnhydra
p1087
aVAonyx
p1088
aVSiamogale
p1089
aVLutrogale
p1090
aVLontra
p1091
aVLutra
p1092
aVHydrictis
p1093
aVPteronura
p1094
aVParahyaena
p1095
aVArctictis
p1096
aVViverra
p1097
aVKolponomos
p1098
aVUrsus
p1099
aVArctodus
p1100
aVPotos
p1101
aVNasua
p1102
aVParailurus
p1103
aVDinictis
p1104
aVCrocuta
p1105
aVHyaena
p1106
aVPachycrocuta
p1107
aVChasmaporthetes
p1108
aVLycyaenops
p1109
aVApatemys
p1110
aVDasypus
p1111
aVPlagioctenodon
p1112
aVPlagioctenoides
p1113
aVEonycteris
p1114
aVHarpyionycteris
p1115
aVMacroglossus
p1116
aVEidolon
p1117
aVMegaerops
p1118
aVAcerodon
p1119
aVPteropus
p1120
aVOtopteropus
p1121
aVNyctimene
p1122
aVMyonycteris
p1123
aVPtenochirus
p1124
aVPenthetor
p1125
aVHaplonycteris
p1126
aVRousettus
p1127
aVParanyctimene
p1128
aVBalionycteris
p1129
aVNanonycteris
p1130
aVMegaloglossus
p1131
aVScotonycteris
p1132
aVHypsignathus
p1133
aVEpomophorus
p1134
aVAethalops
p1135
aVEpomops
p1136
aVCynopterus
p1137
aVSphaerias
p1138
aVThoopterus
p1139
aVDobsonia
p1140
aVIcaronycteris
p1141
aVPlatalina
p1142
aVThyroptera
p1143
aVNatalus
p1144
aVChilonatalus
p1145
aVDiclidurus
p1146
aVSaccolaimus
p1147
aVTaphozous
p1148
aVPeropteryx
p1149
aVCentronycteris
p1150
aVEmballonura
p1151
aVBalantiopteryx
p1152
aVSaccopteryx
p1153
aVPteronotus
p1154
aVMormoops
p1155
aVMonophyllus
p1156
aVLophostoma
p1157
aVPhyllops
p1158
aVChoeroniscus
p1159
aVMacrophyllum
p1160
aVChiroderma
p1161
aVErophylla
p1162
aVTonatia
p1163
aVPhyllostomus
p1164
aVVampyriscus
p1165
aVPlatyrrhinus
p1166
aVUroderma
p1167
aVCarollia
p1168
aVGlyphonycteris
p1169
aVVampyrodes
p1170
aVAmetrida
p1171
aVLionycteris
p1172
aVSturnira
p1173
aVRhinophylla
p1174
aVCenturio
p1175
aVPhylloderma
p1176
aVSphaeronycteris
p1177
aVDesmodus
p1178
aVPygoderma
p1179
aVMimon
p1180
aVDiphylla
p1181
aVStenoderma
p1182
aVMusonycteris
p1183
aVLonchorhina
p1184
aVHsunycteris
p1185
aVLeptonycteris
p1186
aVPhyllonycteris
p1187
aVAnoura
p1188
aVChoeronycteris
p1189
aVChrotopterus
p1190
aVArtibeus
p1191
aVGlossophaga
p1192
aVLichonycteris
p1193
aVTrachops
p1194
aVVampyressa
p1195
aVAriteus
p1196
aVDiaemus
p1197
aVBrachyphylla
p1198
aVMesophylla
p1199
aVMicronycteris
p1200
aVMacrotus
p1201
aVHylonycteris
p1202
aVLonchophylla
p1203
aVDermanura
p1204
aVArdops
p1205
aVPipistrellus
p1206
aVCorynorhinus
p1207
aVMiniopterus
p1208
aVNyctalus
p1209
aVHypsugo
p1210
aVAntrozous
p1211
aVMurina
p1212
aVLasionycteris
p1213
aVPlecotus
p1214
aVIdionycteris
p1215
aVKerivoula
p1216
aVScotophilus
p1217
aVEptesicus
p1218
aVMyotis
p1219
aVPerimyotis
p1220
aVLasiurus
p1221
aVHesperoptenus
p1222
aVRhogeessa
p1223
aVTylonycteris
p1224
aVNycticeius
p1225
aVPhiletor
p1226
aVNeoromicia
p1227
aVVespertilio
p1228
aVCoelops
p1229
aVAsellia
p1230
aVNoctilio
p1231
aVMegaderma
p1232
aVMolossops
p1233
aVCheiromeles
p1234
aVChaerephon
p1235
aVOtomops
p1236
aVCynomops
p1237
aVMolossus
p1238
aVMyopterus
p1239
aVPromops
p1240
aVNyctinomops
p1241
aVEumops
p1242
aVMormopterus
p1243
aVTadarida
p1244
aVMops
p1245
aVOnychonycteris
p1246
aVNycteris
p1247
aVRhinolophus
p1248
aVCloeotis
p1249
aVAselliscus
p1250
aVHipposideros
p1251
aVNekrolagus
p1252
aVSylvilagus
p1253
aVPronolagus
p1254
aVLepus
p1255
aVOryctolagus
p1256
aVPalaeolagus
p1257
aVOchotona
p1258
aVCaluromys
p1259
aVChironectes
p1260
aVMarmosa
p1261
aVThylamys
p1262
aVLutreolina
p1263
aVMonodelphis
p1264
aVGracilinanus
p1265
aVMicoureus
p1266
aVMarmosops
p1267
aVPhilander
p1268
aVDidelphis
p1269
aVDidelphodon
p1270
aVHerpetotherium
p1271
aVProterixoides
p1272
aVErinaceus
p1273
aVSespedectes
p1274
aVHemiechinus
p1275
aVMammut
p1276
aVMammuthus
p1277
aVElephas
p1278
aVColumba
p1279
aVPtilinopus
p1280
aVSelasphorus
p1281
aVPhaethornis
p1282
aVEutoxeres
p1283
aVApus
p1284
aVAquila
p1285
aVFalco
p1286
aVCorvus
p1287
aVDicrurus
p1288
aVTaeniopygia
p1289
aVPasser
p1290
aVAcanthorhynchus
p1291
aVSeiurus
p1292
aVCiconia
p1293
aVCasuarius
p1294
aVGavia
p1295
aVPodargus
p1296
aVAthene
p1297
aVSteatornis
p1298
aVGrus
p1299
aVPhoenicopterus
p1300
aVVanellus
p1301
aVScolopax
p1302
aVArenaria
p1303
aVActitis
p1304
aVAlca
p1305
aVUria
p1306
aVLarus
p1307
aVSterna
p1308
aVCreagrus
p1309
aVChroicocephalus
p1310
aVHaematopus
p1311
aVGelochelidon
p1312
aVArdea
p1313
aVBalaeniceps
p1314
aVPhalacrocorax
p1315
aVPandion
p1316
aVSagittarius
p1317
aVButeo
p1318
aVVultur
p1319
aVSpheniscus
p1320
aVAlcedo
p1321
aVDacelo
p1322
aVCoracias
p1323
aVCoccyzus
p1324
aVCuculus
p1325
aVRhynchotus
p1326
aVNothoprocta
p1327
aVVegavis
p1328
aVChauna
p1329
aVAnas
p1330
aVAix
p1331
aVAythya
p1332
aVOxyura
p1333
aVCairina
p1334
aVChen
p1335
aVTachyeres
p1336
aVAnseranas
p1337
aVPresbyornis
p1338
aVPodilymbus
p1339
aVPodiceps
p1340
aVRamphastos
p1341
aVSphyrapicus
p1342
aVNyctidromus
p1343
aVCaprimulgus
p1344
aVOpisthocomus
p1345
aVPterocles
p1346
aVDiomedea
p1347
aVPhoebastria
p1348
aVPelagodroma
p1349
aVFulmarus
p1350
aVTrogon
p1351
aVFalcipennis
p1352
aVAlectoris
p1353
aVPhasianus
p1354
aVDendragapus
p1355
aVGallus
p1356
aVCoturnix
p1357
aVMeleagris
p1358
aVOrtalis
p1359
aVTrichoglossus
p1360
aVAra
p1361
aVMelopsittacus
p1362
aVAmazona
p1363
aVNestor
p1364
aVPsittacus
p1365
aVPhaethon
p1366
aVStruthio
p1367
aVApteryx
p1368
aVFregata
p1369
aVSula
p1370
aVTitanis
p1371
aVSooglossus
p1372
aVCallixalus
p1373
aVBrachycephalus
p1374
aVIschnocnema
p1375
aVRhinophrynus
p1376
aVPelodytes
p1377
aVRhinoderma
p1378
aVHemisus
p1379
aVCalyptocephalella
p1380
aVConraua
p1381
aVBarycholos
p1382
aVChacophrys
p1383
aVAtelognathus
p1384
aVTelmatobius
p1385
aVLeptodactylus
p1386
aVBeelzebufo
p1387
aVHyalinobatrachium
p1388
aVCochranella
p1389
aVCentrolene
p1390
aVPetropedetes
p1391
aVOdontophrynus
p1392
aVMacrogenioglottus
p1393
aVProceratophrys
p1394
aVAllophryne
p1395
aVSpelaeophryne
p1396
aVBreviceps
p1397
aVProbreviceps
p1398
aVAfrixalus
p1399
aVAcanthixalus
p1400
aVChrysobatrachus
p1401
aVKassina
p1402
aVPhyllomedusa
p1403
aVLechriodus
p1404
aVNeobatrachus
p1405
aVAscaphus
p1406
aVLeiopelma
p1407
aVLeptolalax
p1408
aVOphryophryne
p1409
aVBrachytarsophrys
p1410
aVXenophrys
p1411
aVThoropa
p1412
aVCycloramphus
p1413
aVZachaenus
p1414
aVLepidobatrachus
p1415
aVCeratophrys
p1416
aVAlytes
p1417
aVDiscoglossus
p1418
aVLimnonectes
p1419
aVQuasipaa
p1420
aVHoplobatrachus
p1421
aVBarbourula
p1422
aVAnhydrophryne
p1423
aVPoyntonia
p1424
aVPyxicephalus
p1425
aVMicrobatrachella
p1426
aVNothophryne
p1427
aVHildebrandtia
p1428
aVHylodes
p1429
aVCrossodactylus
p1430
aVLeptopelis
p1431
aVCardioglossa
p1432
aVLeptodactylodon
p1433
aVTrichobatrachus
p1434
aVArthroleptis
p1435
aVAstylosternus
p1436
aVNyctibates
p1437
aVAparasphenodon
p1438
aVPipa
p1439
aVXenopus
p1440
aVXenorhina
p1441
aVCallulina
p1442
aVGastrophryne
p1443
aVElachistocleis
p1444
aVChaperina
p1445
aVPaedophryne
p1446
aVBalebreviceps
p1447
aVChiasmocleis
p1448
aVMelanobatrachus
p1449
aVPlethodontohyla
p1450
aVUperodon
p1451
aVSyncope
p1452
aVRhombophryne
p1453
aVStumpffia
p1454
aVPelobates
p1455
aVScaphiopus
p1456
aVLeptobrachium
p1457
aVHeleophryne
p1458
aVHadromophryne
p1459
aVHylorina
p1460
aVBatrachyla
p1461
aVCryptobatrachus
p1462
aVHemiphractus
p1463
aVGastrotheca
p1464
aVBombina
p1465
aVAlsodes
p1466
aVEupsophus
p1467
aVLimnomedusa
p1468
aVIndirana
p1469
aVNasikabatrachus
p1470
aVPhyllodytes
p1471
aVNyctimantis
p1472
aVPseudacris
p1473
aVHyla
p1474
aVAnotheca
p1475
aVAcris
p1476
aVLitoria
p1477
aVCorythomantis
p1478
aVArgenteohyla
p1479
aVRaorchestes
p1480
aVTheloderma
p1481
aVRhacophorus
p1482
aVFeihyla
p1483
aVPolypedates
p1484
aVChiromantis
p1485
aVBuergeria
p1486
aVCraugastor
p1487
aVNectophryne
p1488
aVMelanophryniscus
p1489
aVNectophrynoides
p1490
aVAtelopus
p1491
aVSchismaderma
p1492
aVFrostius
p1493
aVDidynamipus
p1494
aVAltiphrynoides
p1495
aVAdenomus
p1496
aVMertensophryne
p1497
aVPeltophryne
p1498
aVTruebella
p1499
aVAnaxyrus
p1500
aVLaurentophryne
p1501
aVWolterstorffina
p1502
aVOreobates
p1503
aVStrabomantis
p1504
aVSpea
p1505
aVEleutherodactylus
p1506
aVOophaga
p1507
aVAmeerega
p1508
aVPhyllobates
p1509
aVColostethus
p1510
aVMannophryne
p1511
aVAllobates
p1512
aVRheobates
p1513
aVOccidozyga
p1514
aVNyctibatrachus
p1515
aVCacosternum
p1516
aVAmnirana
p1517
aVLithobates
p1518
aVAmolops
p1519
aVNatalobatrachus
p1520
aVOdorrana
p1521
aVArthroleptella
p1522
aVMicrixalus
p1523
aVRana
p1524
aVPhrynobatrachus
p1525
aVTomopterna
p1526
aVHylarana
p1527
aVFejervarya
p1528
aVNecturus
p1529
aVIchthyosaura
p1530
aVCalotriton
p1531
aVPachytriton
p1532
aVPleurodeles
p1533
aVNotophthalmus
p1534
aVCynops
p1535
aVTylototriton
p1536
aVLissotriton
p1537
aVAmphiuma
p1538
aVCryptobranchus
p1539
aVAmbystoma
p1540
aVBolitoglossa
p1541
aVDesmognathus
p1542
aVGyrinophilus
p1543
aVSiren
p1544
aVRadulinus
p1545
aVDerilissus
p1546
aVGymnoscyphus
p1547
aVPseudobarbus
p1548
aVPimelodus
p1549
aVOphichthus
p1550
aVRhabdolichops
p1551
aVMagosternarchus
p1552
aVTydemania
p1553
aVHomaloptera
p1554
aVLeiodon
p1555
aVAcanthemblemaria
p1556
aVEpinephelus
p1557
aVPlatygillellus
p1558
aVGymnachirus
p1559
aVMormyrus
p1560
aVOssubtus
p1561
aVMyloplus
p1562
aVAcnodon
p1563
aVMyleus
p1564
aVCynodon
p1565
aVSynaptolaemus
p1566
aVAmphichthys
p1567
aVDasyatis
p1568
asS'f'
(lp1569
VCyclopteridae(cyclopt.)
p1570
aVClariidae
p1571
aVGobiesocidae
p1572
aVTetraodontidae
p1573
aVCottidae(psychrolutidae)
p1574
aVMelanocetidae
p1575
aVClupeidaeengraulinae
p1576
aVCyprinidae
p1577
aVAgonidae
p1578
aVAnostomidae
p1579
aVTriglidae
p1580
aVAchiridae
p1581
aVPleuronectidae
p1582
aVElopidae
p1583
aVNemacheilidae
p1584
aVSerpenticobitidae
p1585
aVBotiidae
p1586
aVCobitidae
p1587
aVBalitoridae
p1588
aVBlenniidae
p1589
aVLabrisomidae
p1590
aVApteronotidae
p1591
aVBatrachoididae
p1592
aVMyxinidae
p1593
aVEdestidae
p1594
aVElapidae
p1595
aVChamaeleonidae
p1596
aVColubridae
p1597
aVGekkonidae
p1598
aVAgamidae
p1599
aVSphaerodactylidae
p1600
aVDormaaliidae
p1601
aVPentacodontidae
p1602
aVCarpolestidae
p1603
aVAromobatidae
p1604
aVHylidae
p1605
aVRhacophoridae
p1606
aVBufonidae
p1607
aVLeptodactylidae
p1608
aVCeratobatrachidae
p1609
aVSalamandridae
p1610
aVClupeidae
p1611
aVLiparidae
p1612
aVCottidae
p1613
aVBarbuccidae
p1614
aVChaenopsidae
p1615
aVEmbiotocidae
p1616
aVSternopygidae
p1617
aVSisoridae
p1618
aVOgcocephalidae
p1619
aVSalmonidae
p1620
aVNotopteridae
p1621
aVChalceidae
p1622
aVSerrasalmidae
p1623
aVTriportheidae
p1624
aVMerlucciidae
p1625
aVChauliodontidae
p1626
aVMuscicapidae
p1627
aVPicidae
p1628
aVCebidae
p1629
aVNephropsidae
p1630
aVEleutherodactylidae
p1631
aVMuraenidae
p1632
aVHelogeneidae
p1633
aVTorpedinidae
p1634
aVHiodontidae
p1635
aVBalistidae
p1636
aVPercopsidae
p1637
aVLepidosirenidae
p1638
aVAmblyopsidae
p1639
aVTripterygiidae
p1640
aVAmmodytidae
p1641
aVBathymasteridae
p1642
aVSparidae
p1643
aVCichlidae
p1644
aVGobiidae
p1645
aVSerranidae
p1646
aVAnarhichadidae
p1647
aVZaproridae
p1648
aVGrammatidae
p1649
aVZoarcidae
p1650
aVDactyloscopidae
p1651
aVCryptacanthodidae
p1652
aVTrichodontidae
p1653
aVClinidae
p1654
aVEsocidae
p1655
aVMacrouridae
p1656
aVEngraulidae
p1657
aVPristigasteridae
p1658
aVAnoplopomatidae
p1659
aVAbyssocottidae
p1660
aVRhamphocottidae
p1661
aVScorpaenidae
p1662
aVNormanichthyidae
p1663
aVPlatycephalidae
p1664
aVHemitripteridae
p1665
aVComephoridae
p1666
aVHexagrammidae
p1667
aVPsychrolutidae
p1668
aVCyclopteridae
p1669
aVCongridae
p1670
aVAnguillidae
p1671
aVMormyridae
p1672
aVIpnopidae
p1673
aVCatostomidae
p1674
aVPsilorhynchidae
p1675
aVAuchenipteridae
p1676
aVIctaluridae
p1677
aVTrichomycteridae
p1678
aVBagridae
p1679
aVCallichthyidae
p1680
aVAriidae
p1681
aVAspredinidae
p1682
aVHeptapteridae
p1683
aVOsmeridae
p1684
aVSternoptychidae
p1685
aVStomiidae
p1686
aVSyngnathidae
p1687
aVPolypteridae
p1688
aVPoeciliidae
p1689
aVMugilidae
p1690
aVLepisosteidae
p1691
aVAtherinopsidae
p1692
aVPolymixiidae
p1693
aVNettastomatidae
p1694
aVOphichthidae
p1695
aVDiodontidae
p1696
aVMonacanthidae
p1697
aVOstraiontidae
p1698
aVAnoplogastridae
p1699
aVOphidiidae
p1700
aVHemiramphidae
p1701
aVBelonidae
p1702
aVProchilodontidae
p1703
aVGasteropelecidae
p1704
aVCharacidae
p1705
aVAmiidae
p1706
aVPanderichthyidae?
p1707
aVNarcinidae
p1708
aVLamnidae
p1709
aVEtmopteridae
p1710
aVDasyatidae
p1711
aVUrolophidae
p1712
aVPotamotrygonidae
p1713
aVPristidae
p1714
aVCtenacanthidae
p1715
aVThrinaxodontidae
p1716
aVMelanonidae
p1717
aVMolidae
p1718
aVHeteropneustidae
p1719
aVGonostomatidae
p1720
aVMastacembelidae
p1721
aVOsteoglossidae
p1722
aVAnkylosauridae
p1723
aVMegalosauridae
p1724
aVPelomedusidae
p1725
aVPachycephalosauridae
p1726
aVHadrosauridae
p1727
aVUropeltidae
p1728
aVViperidae
p1729
aVAtractaspidae
p1730
aVAcrochordidae
p1731
aVAtractaspididae
p1732
aVEublepharidae
p1733
aVTyphlopidae
p1734
aVPhrynosomatidae
p1735
aVXenodontinae
p1736
aVDibamidae
p1737
aVCorytophanidae
p1738
aVLacertidae
p1739
aVDiplodactylidae
p1740
aVIguanidae
p1741
aVXenosauridae
p1742
aVDipsadidae
p1743
aVHelodermatidae
p1744
aVColubrinae
p1745
aVTropidurinae
p1746
aVTropiduridae
p1747
aVMosasauridae
p1748
aVLanthanotidae
p1749
aVCarphodactylidae
p1750
aVTeiidae
p1751
aVLamprophiinae
p1752
aVVaranidae
p1753
aVScincidae
p1754
aVPhyllodactylidae
p1755
aVBoidae
p1756
aVGerrhosauridae
p1757
aVIguaninae
p1758
aVRhineuridae
p1759
aVGekkoninae
p1760
aVCordylidae
p1761
aVAnguidae
p1762
aVCrocodylidae
p1763
aVGavialidae
p1764
aVAlligatoridae
p1765
aVGrallatoridae
p1766
aVGoniopholididae
p1767
aVParasuchidae
p1768
aVEmydidae
p1769
aVChelidae
p1770
aVGeoemydidae
p1771
aVKinosternidae
p1772
aVChelydridae
p1773
aVSphenodontidae
p1774
aVAdapisoriculidae
p1775
aVSudamericidae
p1776
aVPtolemaiidae
p1777
aVApatemyidae
p1778
aVDocodontidae
p1779
aVManidae
p1780
aVMuridae
p1781
aVNesomyidae
p1782
aVCaviidae
p1783
aVCuniculidae
p1784
aVReithroparamyidae
p1785
aVAlagomyidae
p1786
aVErethizontidae
p1787
aVIschyromyidae
p1788
aVSciuridae
p1789
aVCricetidae
p1790
aVDipodidae
p1791
aVUnidentified
p1792
aVAplodontidae
p1793
aVHeteromyidae
p1794
aVNementchamyidae
p1795
aVInteratheriidae
p1796
aVTupaiidae
p1797
aVPtilocercidae
p1798
aVMegatheriidae
p1799
aVBradypodidae
p1800
aVMegalonychidae
p1801
aVPliohyracidae
p1802
aVProcaviidae
p1803
aVPeradectidae
p1804
aVMicrobiotheriidae
p1805
aVPalaeoryctidae
p1806
aVCaenolestidae
p1807
aVHyrachyidae
p1808
aVEquidae
p1809
aVPalaeotheriidae
p1810
aVTapiridae
p1811
aVRhinocerotidae
p1812
aVLophiodontidae
p1813
aVPhascolarctidae
p1814
aVPotoroidae
p1815
aVPetauridae
p1816
aVVombatidae
p1817
aVMacropodidae
p1818
aVPhalangeridae
p1819
aVGiraffidae
p1820
aVBovidae
p1821
aVMerycoidodontidae
p1822
aVAnthracotheriidae
p1823
aVSuidae
p1824
aVCervidae
p1825
aVOreodontidae
p1826
aVTenrecidae
p1827
aVDasyuridae
p1828
aVDelphinidae
p1829
aVBalaenopteridae
p1830
aVPhyseteridae
p1831
aVIniidae
p1832
aVAotidae
p1833
aVPlesiadapidae
p1834
aVEosimiidae
p1835
aVParomomyidae
p1836
aVAdapidae
p1837
aVOligopithecidae
p1838
aVCheirogaleidae
p1839
aVCallitrichidae
p1840
aVPalaechthonidae
p1841
aVSaxonellidae
p1842
aVIndridae
p1843
aVProteopithecidae
p1844
aVPitheciinae
p1845
aVPurgatoriidae
p1846
aVPitheciidae
p1847
aVTarsiidae
p1848
aVAtelidae
p1849
aVArchaeolemuridae
p1850
aVNotharctidae
p1851
aVAzibiidae
p1852
aVDendropithecidae
p1853
aVParapithecidae
p1854
aVMicrosyopidae
p1855
aVOmomyidae
p1856
aVGalagidae
p1857
aVPliopithecidae
p1858
aVHomunculidae
p1859
aVLemuridae
p1860
aVDjebelemuridae
p1861
aVAfrotarsiidae
p1862
aVDaubentoniidae
p1863
aVProconsulidae
p1864
aVLoridae
p1865
aVMicromomyidae
p1866
aVHylobatidae
p1867
aVMegaladapidae
p1868
aVHominidae
p1869
aVCercopithecidae
p1870
aVDasypodidae
p1871
aVPampatheriidae
p1872
aVSolenodontidae
p1873
aVSoricidae
p1874
aVTalpidae
p1875
aVGeolabididae
p1876
aVCanidae
p1877
aVFelidae
p1878
aVPantolestidae
p1879
aVProtosirenidae
p1880
aVAmphilemuridae
p1881
aVMacroscelididae
p1882
aVNeoplagiaulacidae
p1883
aVPtilodontidae
p1884
aVHyaenodontidae
p1885
aVCynocephalidae
p1886
aVHyainailouridae
p1887
aVHerpestidae
p1888
aVAiluridae
p1889
aVMustelidae
p1890
aVViverridae
p1891
aVUrsidae
p1892
aVProcyonidae
p1893
aVNimravidae
p1894
aVHyaenidae
p1895
aVNyctitheriidae
p1896
aVPteropodidae
p1897
aVIcaronycteridae
p1898
aVPhyllostomatidae
p1899
aVThyropteridae
p1900
aVNatalidae
p1901
aVEmballonuridae
p1902
aVMormoopidae
p1903
aVPhyllostomidae
p1904
aVVespertilionidae
p1905
aVHipposideridae
p1906
aVNoctilionidae
p1907
aVMegadermatidae
p1908
aVMolossidae
p1909
aVOnychonycteridae
p1910
aVNycteridae
p1911
aVRhinolophidae
p1912
aVLeporidae
p1913
aVOchotonidae
p1914
aVDidelphidae
p1915
aVStagodontidae
p1916
aVHerpetotheriidae
p1917
aVErinaceidae
p1918
aVMammutidae
p1919
aVElephantidae
p1920
aVColumbidae
p1921
aVTrochilidae
p1922
aVApodidae
p1923
aVAccipitridae
p1924
aVFalconidae
p1925
aVCorvidae
p1926
aVDicruridae
p1927
aVEstrildidae
p1928
aVPasseridae
p1929
aVMeliphagidae
p1930
aVParulidae
p1931
aVCiconiidae
p1932
aVCasuariidae
p1933
aVGaviidae
p1934
aVPodargidae
p1935
aVStrigidae
p1936
aVSteatornithidae
p1937
aVGruidae
p1938
aVPhoenicopteridae
p1939
aVCharadriidae
p1940
aVScolopacidae
p1941
aVAlcidae
p1942
aVLaridae
p1943
aVHaematopodidae
p1944
aVLaridae;sterninae
p1945
aVArdeidae
p1946
aVBalaenicipitidae
p1947
aVPhalacrocoracidae
p1948
aVPandionidae
p1949
aVSagittariidae
p1950
aVCathartidae
p1951
aVSpheniscidae
p1952
aVAlcedinidae;alcedininae
p1953
aVAlcedinidae
p1954
aVCoraciidae
p1955
aVCoccyzidae
p1956
aVCuculidae;cuculinae
p1957
aVTinamidae
p1958
aVAnhimidae
p1959
aVAnatidae;anatinae
p1960
aVAnatidae
p1961
aVAnseranatidae
p1962
aVPresbyornithidae
p1963
aVPodicipedidae
p1964
aVRamphastidae
p1965
aVCaprimulgidae
p1966
aVOpisthocomidae
p1967
aVPteroclididae
p1968
aVDiomedeidae
p1969
aVHydrobatidae
p1970
aVProcellariidae
p1971
aVTrogonidae
p1972
aVPhasianidae
p1973
aVCracidae
p1974
aVPsittacidae
p1975
aVPhaethontidae
p1976
aVStruthionidae
p1977
aVApterygidae
p1978
aVFregatidae
p1979
aVSulidae
p1980
aVPhorusrhacidae
p1981
aVSooglossidae
p1982
aVHyperolidae
p1983
aVBrachycephalidae
p1984
aVRhinophrynidae
p1985
aVPelodytidae
p1986
aVRhinodermatidae
p1987
aVHemisotidae
p1988
aVCalyptocephalellidae
p1989
aVConrauidae
p1990
aVCentrolenidae
p1991
aVPetropedetidae
p1992
aVOdontophrynidae
p1993
aVAllophrynidae
p1994
aVBrevicipitidae
p1995
aVHyperoliidae
p1996
aVPhyllomedusinae
p1997
aVMyobatrachidae
p1998
aVLeiopelmatidae
p1999
aVMegophryidae
p2000
aVCycloramphidae
p2001
aVCeratophryidae
p2002
aVAlytidae
p2003
aVDicroglossidae
p2004
aVDiscoglossidae
p2005
aVPyxicephalidae
p2006
aVPtychadenidae
p2007
aVHylodidae
p2008
aVArthroleptidae
p2009
aVHylinae
p2010
aVPipidae
p2011
aVMicrohylidae
p2012
aVPelobatidae
p2013
aVHeleophrynidae
p2014
aVBatrachylidae
p2015
aVHemiphractidae
p2016
aVBombinatoridae
p2017
aVAlsodidae
p2018
aVRanixalidae
p2019
aVNasikabatrachidae
p2020
aVCraugastoridae
p2021
aVStrabomantidae
p2022
aVScaphiopodidae
p2023
aVDendrobatidae
p2024
aVRanidae
p2025
aVProteidae
p2026
aVAmphiumidae
p2027
aVCryptobranchidae
p2028
aVAmbystomatidae
p2029
aVPlethodontidae
p2030
aVSirenidae
p2031
aVPimelodidae
p2032
aVTriacanthodidae
p2033
aVBalitoridae:balitorinae
p2034
aVCynodontidae
p2035
asS'k'
(lp2036
VAnimalia
p2037
asS'o'
(lp2038
VScorpaeniformes
p2039
aVPleuronectiformes
p2040
aVElopiformes
p2041
aVCypriniformes
p2042
aVPerciformes
p2043
aVGymnotiformes
p2044
aVTetraodontiformes
p2045
aVBatrachoidiformes
p2046
aVMyxiniformes
p2047
aVEugeneodontida
p2048
aVSerpentes
p2049
aVSquamata
p2050
aVSauria
p2051
aVInsectivora
p2052
aVPantolesta
p2053
aVPrimates
p2054
aVAnura
p2055
aVCaudata
p2056
aVClupeiformes
p2057
aVGobiesociformes
p2058
aVSiluriformes
p2059
aVLophiiformes
p2060
aVSalmoniformes
p2061
aVOsteoglossiformes
p2062
aVCharaciformes
p2063
aVGadiformes
p2064
aVPasseriformes
p2065
aVPiciformes
p2066
aVProsauropoda
p2067
aVLipotyphla
p2068
aVMacrura(nephropsidea)
p2069
aVLepidosireniformes
p2070
aVPercopsiformes
p2071
aVEsociformes
p2072
aVAnguilliformes
p2073
aVAphredoderiformes
p2074
aVAulopiformes
p2075
aVOsmeriformes
p2076
aVStomiiformes
p2077
aVGasterosteiformes
p2078
aVPolypteriformes
p2079
aVCyprinodontiformes
p2080
aVMugiliformes
p2081
aVLepisosteiformes
p2082
aVAtheriniformes
p2083
aVPolymixiiformes
p2084
aVAngulliformes
p2085
aVBeryciformes
p2086
aVOphidiiformes
p2087
aVBeloniformes
p2088
aVAmiiformes
p2089
aVCrossopterygii
p2090
aVTorpediniformes
p2091
aVLamniformes
p2092
aVSqualiformes
p2093
aVMyliobatiformes
p2094
aVRajiformes
p2095
aVPristiformes
p2096
aVCtenacanthiformes
p2097
aVCynodontia
p2098
aVSynbranchiformes
p2099
aVTestudinata
p2100
aVOrnithischia
p2101
aVCrocodylia
p2102
aVSaurischia
p2103
aVEosuchia
p2104
aVTestudines
p2105
aVRhynchocephalia
p2106
aVDocodonta
p2107
aVPholidota
p2108
aVRodentia
p2109
aVNotoungulata
p2110
aVScandentia
p2111
aVPilosa
p2112
aVHyracoidea
p2113
aVUnplaced
p2114
aVMicrobiotheria
p2115
aVCimolesta
p2116
aVPaucituberculata
p2117
aVPerissodactyla
p2118
aVDiprotodontia
p2119
aVArtiodactyla
p2120
aVAfrosoricida
p2121
aVDasyuromorphia
p2122
aVCetacea
p2123
aVCingulata
p2124
aVSoricomorpha
p2125
aVFerae
p2126
aVSirenia
p2127
aVMacroscelidea
p2128
aVMultituberculata
p2129
aVCreodonta
p2130
aVDermoptera
p2131
aVHyaenodonta
p2132
aVCarnivora
p2133
aVApatotheria
p2134
aVEdentata;cingulata
p2135
aVEulipotyphla
p2136
aVChiroptera
p2137
aVLagomorpha
p2138
aVDidelphimorphia
p2139
aVErinaceomorpha
p2140
aVProboscidea
p2141
aVColumbiformes
p2142
aVApodiformes
p2143
aVFalconiformes
p2144
aVCiconiiformes
p2145
aVCasuariiformes
p2146
aVGaviiformes
p2147
aVStrigiformes
p2148
aVGruiformes
p2149
aVPhoenicopteriformes
p2150
aVCharadriiformes
p2151
aVPelecaniformes
p2152
aVAccipitriformes
p2153
aVSphenisciformes
p2154
aVCoraciiformes
p2155
aVCuculiformes
p2156
aVTinamiformes
p2157
aVAnseriformes
p2158
aVPodicipediformes
p2159
aVCaprimulgiformes
p2160
aVOpisthocomiformes
p2161
aVPteroclidiformes
p2162
aVProcellariiformes
p2163
aVTrogoniformes
p2164
aVGalliformes
p2165
aVPsittaciformes
p2166
aVPhaethontiformes
p2167
aVStruthioniformes
p2168
aVSuliformes
p2169
aVCariamiformes
p2170
asS'p'
(lp2171
VArthropoda
p2172
aVChordates
p2173
aVChordata
p2174
as.