(dp1
V
(dp2
V
(dp3
V
(dp4
V
(dp5
VCyclopteridae(cyclopt.)
p6
(dp7
VEumicrotremus
p8
(lp9
Vphrynoides
p10
aVderjugini
p11
aVandriashevi
p12
aVspinosus
p13
aVorbis
p14
assVClariidae
p15
(dp16
VClarias
p17
(lp18
Vbatrachus
p19
assVCottidae(psychrolutidae)
p20
(dp21
VCottunculus
p22
(lp23
Vmicrops
p24
assVClupeidaeengraulinae
p25
(dp26
VSetipinna
p27
(lp28
Vtenuifilis
p29
aVtaty
p30
assVMelanocetidae
p31
(dp32
VMelanocetus
p33
(lp34
Vjohnsoni
p35
assssVMyxini
p36
(dp37
VMyxiniformes
p38
(dp39
VMyxinidae
p40
(dp41
VEptatretus
p42
(lp43
Vlopheliae
p44
assssVActinopteri
p45
(dp46
VGobiesociformes
p47
(dp48
VGobiesocidae
p49
(dp50
VPherallodiscus
p51
(lp52
Vfunebris
p53
asVAcyrtops
p54
(lp55
Vberyllinus
p56
asVArcos
p57
(lp58
Vmacrophthalmus
p59
aVerythrops
p60
aVpoecilophthalmos
p61
aVnudus
p62
asVCochleoceps
p63
(lp64
Vviridis
p65
aVspatula
p66
aVbassensis
p67
asVAspasmichthys
p68
(lp69
Vciconiae
p70
asVTomicodon
p71
(lp72
Vcryptus
p73
aVrupestris
p74
aVzebra
p75
aVfasciatus
p76
asVTrachelochismus
p77
(lp78
Vmelobesia
p79
asVDerilissus
p80
(lp81
Valtifrons
p82
aVnanus
p83
asVDellichthys
p84
(lp85
Vmorelandi
p86
asVDiscotrema
p87
(lp88
Vcrinophilum
p89
asVParvicrepis
p90
(lp91
Vparvipinnis
p92
asVCreocele
p93
(lp94
Vcardinalis
p95
asVLepadichthys
p96
(lp97
Vlineatus
p98
aVfrenatus
p99
aVbolini
p100
asVGymnoscyphus
p101
(lp102
Vascitus
p103
asVAspasmogaster
p104
(lp105
Vcostata
p106
aVtasmaniensis
p107
aVliorhyncha
p108
asVAcyrtus
p109
(lp110
Vartius
p111
aVrubiginosus
p112
asVPosidonichthys
p113
(lp114
Vhutchinsi
p115
asVDiplecogaster
p116
(lp117
Vbimaculata
p118
asVAspasmodes
p119
(lp120
Vbriggsi
p121
asVGouania
p122
(lp123
Vwilldenowi
p124
asVGobiesox
p125
(lp126
Vnigripinnis
p127
aVstrumosus
p128
aVfulvus
p129
aVmultitentaculus
p130
aVpinniger
p131
aVmarmoratus
p132
asVAlabes
p133
(lp134
Vhoesei
p135
asVDiademichthys
p136
(lp137
Vlineatus
p138
asVRimicola
p139
(lp140
Vmuscarum
p141
asssVLophiiformes
p142
(dp143
VOgcocephalidae
p144
(dp145
VOgcocephalus
p146
(lp147
Vdarwini
p148
aVcubifrons
p149
asssVSalmoniformes
p150
(dp151
VSalmonidae
p152
(dp153
VOncorhynchus
p154
(lp155
Vmykiss
p156
asssVOsteoglossiformes
p157
(dp158
VMormyridae
p159
(dp160
VMormyrus
p161
(lp162
Vrume
p163
asVBrevimyrus
p164
(lp165
Vniger
p166
assVOsteoglossidae
p167
(dp168
VOsteoglossum
p169
(lp170
Vbicirrhosum
p171
assVNotopteridae
p172
(dp173
VNotopterus
p174
(lp175
Vnotopterus
p176
asssVGadiformes
p177
(dp178
VMerlucciidae
p179
(dp180
VMerluccius
p181
(lp182
Vsenegalensis
p183
assVMacrouridae
p184
(dp185
VAlbatrossia
p186
(lp187
Vpectoralis
p188
asVNezumia
p189
(lp190
Vliolepis
p191
asVCoryphaenoides
p192
(lp193
V
aVlongifilis
p194
aVfilifer
p195
aVcinereus
p196
aVacrolepis
p197
assVMelanonidae
p198
(dp199
VMelanonus
p200
(lp201
Vzugmayeri
p202
assssssVAnimalia
p203
(dp204
V
(dp205
V
(dp206
V
(dp207
VChauliodontidae
p208
(dp209
VChauliodus
p210
(lp211
Vsloani
p212
asssssVArthropoda
p213
(dp214
VCrustacea
p215
(dp216
VMacrura(nephropsidea)
p217
(dp218
VNephropsidae
p219
(dp220
VHomarus
p221
(lp222
Vamericanus
p223
asssssVChordates
p224
(dp225
sVChordata
p226
(dp227
V
(dp228
V
(dp229
VMuraenidae
p230
(dp231
VGymnothorax
p232
(lp233
Vchilospilus
p234
assVHelogeneidae
p235
(dp236
VHelogenes
p237
(lp238
Vmarmoratus
p239
assVTorpedinidae
p240
(dp241
VNarcine
p242
(lp243
Vwestaustraliensis
p244
assVHiodontidae
p245
(dp246
VHiodon
p247
(lp248
Valosoides
p249
assVPercopsidae
p250
(dp251
VPercopsis
p252
(lp253
Vomiscomaycus
p254
assssVSarcopterygii
p255
(dp256
VLepidosireniformes
p257
(dp258
VLepidosirenidae
p259
(dp260
VLepidosiren
p261
(lp262
Vparadoxa
p263
assssVActinopterygii
p264
(dp265
V
(dp266
sVPercopsiformes
p267
(dp268
VAmblyopsidae
p269
(dp270
VForbesichthys
p271
(lp272
Vagassizii
p273
asVChologaster
p274
(lp275
Vcornuta
p276
asVTyphlichthys
p277
(lp278
Vsubterraneus
p279
asssVPerciformes
p280
(dp281
VTripterygiidae
p282
(dp283
VNotoclinops
p284
(lp285
Vsegmentatus
p286
asVEnneanectes
p287
(lp288
Vmacrops
p289
aVreticulatus
p290
aVcarminalis
p291
asVNorfolkia
p292
(lp293
Vbrachylepis
p294
asVHelcogramma
p295
(lp296
Vdecurrens 
p297
asVAxoclinus
p298
(lp299
Vstoreyae
p300
aVnigricaudus
p301
asVHelcogrammoides
p302
(lp303
Vchilensis
p304
asVEnneapterygius
p305
(lp306
Vetheostoma 
p307
asVCrocodilichthys
p308
(lp309
Vgracilis
p310
assVZoarcidae
p311
(dp312
VBothrocara
p313
(lp314
Vnyx
p315
aVbrunneum
p316
assVAmmodytidae
p317
(dp318
VAmmodytes
p319
(lp320
Vpersonatus
p321
assVBathymasteridae
p322
(dp323
VBathymaster
p324
(lp325
Vleurolepis
p326
assVSparidae
p327
(dp328
VLagodon
p329
(lp330
Vrhomboides
p331
assVCichlidae
p332
(dp333
VLabeotropheus
p334
(lp335
Vtrewavasae
p336
asVLabidochromis
p337
(lp338
Vcaeruleus
p339
asVLamprologus
p340
(lp341
Vtigripictilis
p342
assVChaenopsidae
p343
(dp344
VProtemblemaria
p345
(lp346
Vperla
p347
aVbicirrus
p348
asVAcanthemblemaria
p349
(lp350
Vhancocki
p351
aVexilispinus
p352
aVcrockeri
p353
aVmaria
p354
aVbalanorum
p355
aVrivasi
p356
aVchaplini
p357
asVCoralliozetus
p358
(lp359
Vcardonae
p360
asVNeoclinus
p361
(lp362
Vtoshimaensis
p363
aVstephensae
p364
aVlacunicola
p365
aVbryope
p366
aVuninotatus
p367
aVblanchardi
p368
asVHemiemblemaria
p369
(lp370
Vsimulus
p371
asVChaenopsis
p372
(lp373
Valepidota
p374
aVcoheni
p375
asVStathmonotus
p376
(lp377
Vsinuscalifornici
p378
asVMccoskerichthys
p379
(lp380
Vsandae
p381
asVEmblemariopsis
p382
(lp383
Vrandalli
p384
asVEkemblemaria
p385
(lp386
Vnigra
p387
asVEmblemaria
p388
(lp389
Vatlantica
p390
aVdiphyodontis
p391
aVpandionis
p392
aVwalkeri
p393
aVnivipes
p394
assVBlenniidae
p395
(dp396
VParablennius
p397
(lp398
Vyatabei
p399
asVAndamia
p400
(lp401
Vtetradactylus
p402
asVMeiacanthus
p403
(lp404
Vatrodorsalis
p405
aVnigrolineatus
p406
aVkamoharai
p407
asVAntennablennius
p408
(lp409
Vbifilum
p410
asVHirculops
p411
(lp412
Vcornifer
p413
asVEcsenius
p414
(lp415
Vnamiyei
p416
asVOmobranchus
p417
(lp418
Vpunctatus
p419
asVSalarias
p420
(lp421
Vfasciatus
p422
asVLupinoblennius
p423
(lp424
Vvinctus
p425
asVPlagiotremus
p426
(lp427
Vtapeinosoma
p428
aVrhinorhynchos
p429
asVHypleurochilus
p430
(lp431
Vpseudoaequipinnis
p432
aVspringeri
p433
asVPetroscirtes
p434
(lp435
Vmitratus
p436
asVHypsoblennius
p437
(lp438
Vbrevipinnis
p439
aVrobustus
p440
aVstriatus
p441
aVgilberti
p442
aVjenkinsi
p443
asVRhabdoblennius
p444
(lp445
Vnitidus
p446
asVXiphasia
p447
(lp448
Vmatsubarai
p449
asVAtrosalarias
p450
(lp451
Vfuscus
p452
asVAspidontus
p453
(lp454
Vtaeniatus
p455
assVGobiidae
p456
(dp457
VRisor
p458
(lp459
Vruber
p460
asVGobiopterus
p461
(lp462
Vchuno
p463
asVSicydium
p464
(lp465
Vplumieri
p466
asVGillichthys
p467
(lp468
Vmirabilis
p469
assVSerranidae
p470
(dp471
VMirolabrichthys
p472
(lp473
Vdispar
p474
asVEpinephelus
p475
(lp476
Vnigritus
p477
assVLabrisomidae
p478
(dp479
VLabrisomus
p480
(lp481
Vnuchipinnis
p482
asVParaclinus
p483
(lp484
Vwalkeri
p485
aVintegripinnis
p486
aValtivelis
p487
aVmonophthalmus
p488
aVsini
p489
asVMalacoctenus
p490
(lp491
Vboehlkei
p492
aVebisui
p493
aVhubbsi
p494
aVtriangulatus
p495
aVmargaritae
p496
aVzonogaster
p497
aVzonifer
p498
asVXenomedea
p499
(lp500
Vrhodopyga
p501
asVDialommus
p502
(lp503
Vfuscus
p504
asVExerpes
p505
(lp506
Vasper
p507
asVStarksia
p508
(lp509
Vspinipenis
p510
aVfulva
p511
assVAnarhichadidae
p512
(dp513
VAnarhichas
p514
(lp515
Vorientalis
p516
asVAnarrhichthys
p517
(lp518
Vocellatus
p519
assVZaproridae
p520
(dp521
VZaprora
p522
(lp523
Vsilenus
p524
assVClinidae
p525
(dp526
VHeteroclinus
p527
(lp528
Vwhiteleggii
p529
asVHeterostichus
p530
(lp531
Vrostratus
p532
asVCristiceps
p533
(lp534
Vaustralis
p535
asVClinus
p536
(lp537
Vcottoides
p538
asVClimacoporus
p539
(lp540
Vnavalis
p541
asVPavoclinus
p542
(lp543
Vgraminis
p544
assVGrammatidae
p545
(dp546
VGramma
p547
(lp548
Vloreto
p549
assVDactyloscopidae
p550
(dp551
VHeteristius
p552
(lp553
Vcinctus
p554
asVGillellus
p555
(lp556
Vsearcheri
p557
asVDactyloscopus
p558
(lp559
Vpectoralis
p560
asVPlatygillellus
p561
(lp562
Vrubrocinctus
p563
assVTrichodontidae
p564
(dp565
VTrichodon
p566
(lp567
Vtrichodon
p568
assVCryptacanthodidae
p569
(dp570
VCryptacanthodes
p571
(lp572
Vgiganteus
p573
assVEmbiotocidae
p574
(dp575
VZalembius
p576
(lp577
Vrosaceus
p578
asVCymatogaster
p579
(lp580
Vaggregata
p581
asVEmbiotoca
p582
(lp583
Vjacksoni
p584
aVlateralis
p585
asVHysterocarpus
p586
(lp587
Vtraskii
p588
asVBrachyistius
p589
(lp590
Vfrenatus
p591
asVHyperprosopon
p592
(lp593
Vanale
p594
aVargenteum
p595
asVPhanerodon
p596
(lp597
Vfurcatus
p598
asVAmphistichus
p599
(lp600
Vkoelzi
p601
aVargenteus
p602
aVrhodoterus
p603
asVMicrometrus
p604
(lp605
Vminimus
p606
aVaurora
p607
asVRhacochilus
p608
(lp609
Vtoxotes
p610
aVvacca
p611
asVDitrema
p612
(lp613
Vtemminckii
p614
asVNeoditrema
p615
(lp616
Vransonnetii
p617
asVHypsurus
p618
(lp619
Vcaryi
p620
asssVGymnotiformes
p621
(dp622
VSternopygidae
p623
(dp624
VSternopygus
p625
(lp626
Varenatus
p627
aVpejeraton
p628
asVArcholaemus
p629
(lp630
Vblax
p631
asVRhabdolichops
p632
(lp633
Vcaviceps
p634
aVeastwardi
p635
aVzareti
p636
aVelectrogrammus
p637
asVEigenmannia
p638
(lp639
Vmacrops
p640
aVvirescens
p641
assVApteronotidae
p642
(dp643
VApteronotus
p644
(lp645
Vmacrostomus
p646
asVCompsaraia
p647
(lp648
Vsamueli
p649
asVSternarchorhynchus
p650
(lp651
Vcramptoni
p652
asVMagosternarchus
p653
(lp654
Vraptor
p655
asssVEsociformes
p656
(dp657
VEsocidae
p658
(dp659
VEsox
p660
(lp661
Vamericanus
p662
asssVClupeiformes
p663
(dp664
VEngraulidae
p665
(dp666
VAmazonsprattus
p667
(lp668
Vscintilla
p669
asVEngraulis
p670
(lp671
Vmordax
p672
aVjaponicus
p673
asVEncrasicholina
p674
(lp675
Vpurpurea
p676
aVpunctifer
p677
aVheteroloba
p678
asVThryssa
p679
(lp680
Vdussumieri
p681
aVsetirostris
p682
aVhamiltonii
p683
aVspinidens
p684
aVkammalensis
p685
aVbaelama
p686
asVAnchoa
p687
(lp688
Vmitchilli
p689
aVhepsetus
p690
asVStolephorus
p691
(lp692
Vwaitei
p693
aVchinensis
p694
aVbrachycephalus
p695
aVindicus
p696
aVnelsoni
p697
assVPristigasteridae
p698
(dp699
VIlisha
p700
(lp701
Vmelastoma
p702
asVOpisthopterus
p703
(lp704
Vtardoore
p705
assVClupeidae
p706
(dp707
VEscualosa
p708
(lp709
Vthoracata
p710
asVAmblygaster
p711
(lp712
V
aVsp.
p713
aVsirm
p714
asVHerklotsichthys
p715
(lp716
Vcastelnaui
p717
aVdispilonotus
p718
asVSardinella
p719
(lp720
Valbella
p721
asVDorosoma
p722
(lp723
Vcepedianum
p724
asVNematalosa
p725
(lp726
Vcome
p727
aVnasus
p728
asVAnodontostoma
p729
(lp730
Vchacunda
p731
asVSardinops
p732
(lp733
Vsagax
p734
asVBrevoortia
p735
(lp736
Vtyrannus
p737
asVOpisthonema
p738
(lp739
Vlibertate
p740
asVClupeichthys
p741
(lp742
Vaesarnensis
p743
asVClupea
p744
(lp745
Vpallasii
p746
asVAlosa
p747
(lp748
Vpseudoharengus
p749
aVaestivalis
p750
asVDussumieria
p751
(lp752
Vacuta
p753
asssVScorpaeniformes
p754
(dp755
VAnoplopomatidae
p756
(dp757
VAnoplopoma
p758
(lp759
Vfimbria
p760
asVErilepis
p761
(lp762
Vzonifer
p763
assVAbyssocottidae
p764
(dp765
VAsprocottus
p766
(lp767
Vherzensteini
p768
asVAbyssocottus
p769
(lp770
Vkorotneffi
p771
assVRhamphocottidae
p772
(dp773
VRhamphocottus
p774
(lp775
Vrichardsonii
p776
assVScorpaenidae
p777
(dp778
VSebastolobus
p779
(lp780
Valascanus
p781
assVNormanichthyidae
p782
(dp783
VNormanichthys
p784
(lp785
Vcrockeri
p786
assVLiparidae
p787
(dp788
VCrystallias
p789
(lp790
Vmatsushimae
p791
asVRhinoliparis
p792
(lp793
Vbarbulifer
p794
aVattenuatus
p795
asVAcantholiparis
p796
(lp797
Vopercularis
p798
asVCrystallichthys
p799
(lp800
Vcyclospilus
p801
asVCareproctus
p802
(lp803
Vfaunus
p804
aVstaufferi
p805
aVovigerus
p806
aVrastrinus
p807
aVcypselurus
p808
aVostentum
p809
aVsimus
p810
aVabbreviatus
p811
aVcurilanus
p812
aVectenes
p813
aVfurcellus
p814
aVgilberti
p815
aVbowersianus
p816
aVcanus
p817
aVlycopersicus
p818
aVzachirus
p819
aVseraphimae
p820
aVnelsoni
p821
aVcomus
p822
aVacanthodes
p823
aVphasma
p824
aVmelanurus
p825
aVcolletti
p826
aVkamikawai
p827
asVParaliparis
p828
(lp829
Vbullacephalus
p830
aVpenicillus
p831
aVulochir
p832
aVpaucidens
p833
aVgrandis
p834
aVdactylosus
p835
aVrosaceus
p836
aVcephalus
p837
aVholomelas
p838
aVmento
p839
aVpectoralis
p840
aValbeolus
p841
aVadustus
p842
asVLiparis
p843
(lp844
Vflorae
p845
aVdennyi
p846
aVrutteri
p847
aVbristolensis
p848
aVtunicatus
p849
aVfabricii
p850
aVmarmoratus
p851
aVtessellatus
p852
aVcyclopus
p853
aVfucensis
p854
aVmiostomus
p855
aVmucosus
p856
aVpulchellus
p857
aVgibbus
p858
asVLopholiparis
p859
(lp860
Vflerxi
p861
asVNectoliparis
p862
(lp863
Vpelagicus
p864
asVElassodiscus
p865
(lp866
Vtremebundus
p867
aVcaudatus
p868
asVPrognatholiparis
p869
(lp870
Vptychomandibularis
p871
asVGyrinichthys
p872
(lp873
Vminytremus
p874
asVPolypera
p875
(lp876
Vsimushirae
p877
aVgreeni
p878
asVAllocareproctus
p879
(lp880
Vjordani
p881
aVtanix
p882
aVunangas
p883
aVungak
p884
aVkallaion
p885
asVLipariscus
p886
(lp887
Vnanus
p888
aVcallyodon
p889
aVcurilensis
p890
aVbrashnikovi
p891
asVPalmoliparis
p892
(lp893
Vbeckeri
p894
assVPlatycephalidae
p895
(dp896
VElates
p897
(lp898
Vransonnettii
p899
asVGrammoplites
p900
(lp901
Vscaber
p902
assVHemitripteridae
p903
(dp904
VBlepsias
p905
(lp906
Vcirrhosus
p907
aVbilobus
p908
asVHemitripterus
p909
(lp910
Vamericanus
p911
aVbolini
p912
asVNautichthys
p913
(lp914
Voculofasciatus
p915
aVpribilovius
p916
assVComephoridae
p917
(dp918
VComephorus
p919
(lp920
Vdybowskii
p921
assVHexagrammidae
p922
(dp923
VOxylebius
p924
(lp925
Vpictus
p926
asVPleurogrammus
p927
(lp928
Vmonopterygius
p929
asVHexagrammos
p930
(lp931
Vdecagrammus
p932
aVstelleri
p933
aVoctogrammus
p934
aVlagocephalus
p935
asVZaniolepis
p936
(lp937
Vlatipinnis
p938
aVfrenata
p939
asVOphiodon
p940
(lp941
Velongatus
p942
assVTriglidae
p943
(dp944
VPrionotus
p945
(lp946
Vlongispinosus
p947
aVmartis
p948
aVstearnsi
p949
aVophryas
p950
asVBellator
p951
(lp952
Vmilitaris
p953
assVCottidae
p954
(dp955
VIcelinus
p956
(lp957
Vpietschi
p958
aVborealis
p959
aVcavifrons
p960
aVquadriseriatus
p961
aVfilamentosus
p962
aVoculatus
p963
aVtenuis
p964
aVburchami
p965
asVEnophrys
p966
(lp967
Vtaurina
p968
aVlucasi
p969
aVbison
p970
aVdiceraus
p971
asVAtopocottus
p972
(lp973
Vtribranchius
p974
asVStlengis
p975
(lp976
Vdistoechus
p977
aVosensis
p978
asVOligocottus
p979
(lp980
Vmaculosus
p981
aVsnyderi
p982
asVFurcina
p983
(lp984
Vosimae
p985
aVishikawae
p986
asVOcynectes
p987
(lp988
Vmodestus
p989
asVThyriscus
p990
(lp991
Vanoplus
p992
asVTriglops
p993
(lp994
Vdorothy
p995
aVforficatus
p996
aVjordani
p997
aVmacellus
p998
aVscepticus
p999
aVmurrayi
p1000
aVmetopias
p1001
aVxenostethus
p1002
aVpingelii
p1003
asVCottocomephorus
p1004
(lp1005
Vgrewingkii
p1006
asVRastrinus
p1007
(lp1008
Vscutiger
p1009
asVVellitor
p1010
(lp1011
Vminutus
p1012
aVcentropomus
p1013
asVPseudoblennius
p1014
(lp1015
Vmarmoratus
p1016
asVChitonotus
p1017
(lp1018
Vpugetensis
p1019
asVZesticelus
p1020
(lp1021
Vprofundorum
p1022
asVCottiusculus
p1023
(lp1024
Vgonez
p1025
asVCottus
p1026
(lp1027
Vasper
p1028
aVchatahoochee
p1029
aVhypselurus
p1030
aVcognatus
p1031
aVgobio
p1032
aVgreenei
p1033
aVricei
p1034
aVhangiongensis
p1035
aVpoecilopus
p1036
aVimmaculatus
p1037
aVpitensis
p1038
aVspinulosus
p1039
aVextensus
p1040
aVklamathensis
p1041
aVperplexus
p1042
aVtenuis
p1043
aVbaileyi
p1044
aVcarolinae
p1045
aVamblystomopsis
p1046
aVgulosus
p1047
aVasperrimus
p1048
aVbairdii
p1049
aVhubbsi
p1050
aVechinatus
p1051
aVbeldingii
p1052
aVrhotheus
p1053
aValeuticus
p1054
aVprinceps
p1055
aVpollux
p1056
aVmarginatus
p1057
aVleiopomus
p1058
aVbendirei
p1059
aVconfusus
p1060
aVspecus
p1061
asVPhasmatocottus
p1062
(lp1063
Vctenopterygius
p1064
asVBolinia
p1065
(lp1066
Veuryptera
p1067
asVMicrocottus
p1068
(lp1069
Vsellaris
p1070
asVAscelichthys
p1071
(lp1072
Vrhodorus
p1073
asVStelgistrum
p1074
(lp1075
Vstejnegeri
p1076
aVberingianum
p1077
asVScorpaenichthys
p1078
(lp1079
Vmarmoratus
p1080
asVRadulinopsis
p1081
(lp1082
Vderjavini
p1083
asVParicelinus
p1084
(lp1085
Vhopliticus
p1086
asVBero
p1087
(lp1088
Velegans
p1089
asVParacottus
p1090
(lp1091
Vknerii
p1092
asVAsemichthys
p1093
(lp1094
Vtaylori
p1095
asVTrichocottus
p1096
(lp1097
Vbrashnikovi
p1098
asVRadulinus
p1099
(lp1100
Vvinculus
p1101
aVboleoides
p1102
aVasprellus
p1103
asVHemilepidotus
p1104
(lp1105
Vhemilepidotus
p1106
aVjordani
p1107
aVpapilio
p1108
aVzapus
p1109
aVspinosus
p1110
asVIcelus
p1111
(lp1112
Vbicornis
p1113
aVspatula
p1114
aVstenosomus
p1115
aVochotensis
p1116
aVspiniger
p1117
aVuncinalis
p1118
aVcanaliculatus
p1119
aVeuryops
p1120
asVMyoxocephalus
p1121
(lp1122
Vpolyacanthocephalus
p1123
aVniger
p1124
aVscorpius
p1125
aVscorpioides
p1126
aVquadricornis
p1127
aVstelleri
p1128
aVjaok
p1129
aVthompsonii
p1130
asVRicuzenius
p1131
(lp1132
Vnudithorax
p1133
aVpinetorum
p1134
asVSigmistes
p1135
(lp1136
Vsmithi
p1137
asVSynchirus
p1138
(lp1139
Vgilli
p1140
asVJordania
p1141
(lp1142
Vzonope
p1143
asVArtedius
p1144
(lp1145
Vfenestralis
p1146
aVharringtoni
p1147
aVlateralis
p1148
aVnotospilotus
p1149
asVArchistes
p1150
(lp1151
Vbiseriatus
p1152
asVGymnocanthus
p1153
(lp1154
Vtricuspis
p1155
aVpistilliger
p1156
aVintermedius
p1157
aVgaleatus
p1158
aVdetrisus
p1159
asVRuscarius
p1160
(lp1161
Vmeanyi
p1162
asVLeiocottus
p1163
(lp1164
Vhirundo
p1165
asVLeptocottus
p1166
(lp1167
Varmatus
p1168
asVPhallocottus
p1169
(lp1170
Vobtusus
p1171
asVMegalocottus
p1172
(lp1173
Vplatycephalus
p1174
asVArtediellus
p1175
(lp1176
Vcamchaticus
p1177
aVpacificus
p1178
aVmiacanthus
p1179
aVfuscimentus
p1180
aVneyelovi
p1181
aVochotensis
p1182
aVdydymovi
p1183
aVgomojunovi
p1184
aVuncinatus
p1185
aVscaber
p1186
asVPorocottus
p1187
(lp1188
Vallisi
p1189
aVcamtschaticus
p1190
assVPsychrolutidae
p1191
(dp1192
VEurymen
p1193
(lp1194
Vgyrinus
p1195
asVPsychrolutes
p1196
(lp1197
Vparadoxus
p1198
aVphrictus
p1199
aVsigalutes
p1200
asVDasycottus
p1201
(lp1202
Vsetiger
p1203
asVMalacocottus
p1204
(lp1205
Vzonurus
p1206
aVkincaidi
p1207
assVCyclopteridae
p1208
(dp1209
VAptocyclus
p1210
(lp1211
Vventricosus
p1212
assVAgonidae
p1213
(dp1214
VBathyagonus
p1215
(lp1216
Vpentacanthus
p1217
aVnigripinnis
p1218
asVAgonomalus
p1219
(lp1220
Vmozinoi
p1221
aVproboscidalis
p1222
asVBothragonus
p1223
(lp1224
Voccidentalis
p1225
aVswani
p1226
asVAspidophoroides
p1227
(lp1228
Vmonopterygius
p1229
aVolrikii
p1230
asVStellerina
p1231
(lp1232
Vxyosterna
p1233
asVPodothecus
p1234
(lp1235
Vveternus
p1236
aVaccipenserinus
p1237
asVAgonopsis
p1238
(lp1239
Vchiloensis
p1240
aVvulsa
p1241
aVsterletus
p1242
asVHypsagonus
p1243
(lp1244
Vquadricornis
p1245
aVcorniger
p1246
asVSarritor
p1247
(lp1248
Vleptorhynchus
p1249
aVfrenatus
p1250
asVXeneretmus
p1251
(lp1252
Vleiops
p1253
aVtriacanthus
p1254
aVlatifrons
p1255
aVritteri
p1256
asVOdontopyxis
p1257
(lp1258
Vtrispinosa
p1259
asVLeptagonus
p1260
(lp1261
Vdecagonus
p1262
asVAgonus
p1263
(lp1264
Vcataphractus
p1265
asVBrachyopsis
p1266
(lp1267
Vsegaliensis
p1268
asVPercis
p1269
(lp1270
Vjaponica
p1271
asVAnoplagonus
p1272
(lp1273
Vinermis
p1274
asVOccella
p1275
(lp1276
Vdodecaedron
p1277
asssVElopiformes
p1278
(dp1279
VElopidae
p1280
(dp1281
VElops
p1282
(lp1283
Vsaurus
p1284
asssVAnguilliformes
p1285
(dp1286
VCongridae
p1287
(dp1288
VHeteroconger
p1289
(lp1290
Vlongissimus
p1291
assVAnguillidae
p1292
(dp1293
VAnguilla
p1294
(lp1295
Vrostrata
p1296
asssVAphredoderiformes
p1297
(dp1298
sVAulopiformes
p1299
(dp1300
VIpnopidae
p1301
(dp1302
VBathypterois
p1303
(lp1304
Vquadrifilis
p1305
asssVBatrachoidiformes
p1306
(dp1307
VBatrachoididae
p1308
(dp1309
VAphos
p1310
(lp1311
Vporosus
p1312
asVPerulibatrachus
p1313
(lp1314
Vrossignoli
p1315
asVHalophryne
p1316
(lp1317
Vocellatus
p1318
aVdiemensis
p1319
asVThalassophryne
p1320
(lp1321
Vamazonica
p1322
aVnattereri
p1323
aVmaculosa
p1324
asVDaector
p1325
(lp1326
Vreticulata
p1327
aVdowi
p1328
asVBarchatus
p1329
(lp1330
Vindicus
p1331
aVcirrhosus
p1332
asVTriathalassothia
p1333
(lp1334
Vargentina
p1335
asVChatrabus
p1336
(lp1337
Vmelanurus
p1338
asVOpsanus
p1339
(lp1340
Vpardus
p1341
aVphobetron
p1342
aVbeta
p1343
asVAllenbatrachus
p1344
(lp1345
Vreticulatus
p1346
asVSanopus
p1347
(lp1348
Vreticulatus
p1349
aVastrifer
p1350
aVgreenfieldorum
p1351
asVColletteichthys
p1352
(lp1353
Vdussumieri
p1354
aVoccidentalis
p1355
asVPorichthys
p1356
(lp1357
Vbathoiketes
p1358
aVgreenei
p1359
aVpauciradiatus
p1360
aVporosissimus
p1361
aVmargaritatus
p1362
aVplectrodon
p1363
asVVladichthys
p1364
(lp1365
Vgloverensis
p1366
asVBifax
p1367
(lp1368
Vlacinia
p1369
asVBatrachomoeus
p1370
(lp1371
Vdubius
p1372
aVtrispinosus
p1373
asVAmphichthys
p1374
(lp1375
Vcryptocentrus
p1376
asssVCypriniformes
p1377
(dp1378
VNemacheilidae
p1379
(dp1380
VPhysoschistura
p1381
(lp1382
Vpseudobrunneana
p1383
asVTraccatichthys
p1384
(lp1385
Vpulcher
p1386
asVNeonoemacheilus
p1387
(lp1388
Vlabeosus
p1389
asVSchistura
p1390
(lp1391
Vaurantiaca
p1392
asVTuberoschistura
p1393
(lp1394
Vbaenzigeri
p1395
asVNemacheilus
p1396
(lp1397
Vpallidus
p1398
aVmasyae
p1399
assVCatostomidae
p1400
(dp1401
VMinytrema
p1402
(lp1403
Vmelanops
p1404
asVMoxostoma
p1405
(lp1406
Vpoecilurum
p1407
asVCarpiodes
p1408
(lp1409
Vcarpio
p1410
aVcyprinus
p1411
assVSerpenticobitidae
p1412
(dp1413
VSerpenticobitis
p1414
(lp1415
Vzonata
p1416
assVPsilorhynchidae
p1417
(dp1418
VPsilorhynchus
p1419
(lp1420
Vsucatio
p1421
assVBotiidae
p1422
(dp1423
VChromobotia
p1424
(lp1425
Vmacracanthus
p1426
assVCyprinidae
p1427
(dp1428
VMeda
p1429
(lp1430
Vfulgida
p1431
asVCosmochilus
p1432
(lp1433
Vharmandi
p1434
asVBarbus
p1435
(lp1436
Vaspilus
p1437
aVditinensis
p1438
aVanema
p1439
aVdialonensis
p1440
aVbigornei
p1441
aVeburneensis
p1442
aVfoutensis
p1443
aVcallipterus
p1444
aVmagdalenae
p1445
aVapleurogramma
p1446
aVaspius
p1447
aVcamptacanthus
p1448
aVsp.
p1449
aVmacrops
p1450
aVperince
p1451
aVsublineatus
p1452
aVtiekoroi
p1453
aVmawambiensis
p1454
aVfasciolatus
p1455
aVtrispilos
p1456
aVbifrenatus
p1457
aVtrimaculatus
p1458
aVmultilineatus
p1459
aVkerstenii
p1460
aVholotaenia
p1461
aVneumayeri
p1462
aVpoechii
p1463
aVmartorelli
p1464
aVablabes
p1465
aVneefi
p1466
aVatromaculatus
p1467
aVpunctitaeniatus
p1468
aVlineomaculatus
p1469
aVbrevidorsalis
p1470
aVguineensis
p1471
aVpaludinosus
p1472
aVeutaenia
p1473
aVatkinsoni
p1474
aVradiatus
p1475
aVwaageni
p1476
aVguildi
p1477
aVviviparus
p1478
aVvittatus
p1479
aVraimbaulti
p1480
aVoligolepis
p1481
aVniokoloensis
p1482
aVasper
p1483
aVtrispilopleura
p1484
aVafrovernayi
p1485
aVtrispilomimus
p1486
aVguirali
p1487
aVafer
p1488
aVbarotseensis
p1489
aVmacinensis
p1490
aVcastrasibutum
p1491
aVchlorotaenia
p1492
aVjae
p1493
aVhuguenyi
p1494
aVpobeguini
p1495
aVanoplus
p1496
aVunitaeniatus
p1497
aVarcislongae
p1498
aVspurrelli
p1499
aVinaequalis
p1500
aVnigeriensis
p1501
aVcf. macrops
p1502
aVcallensis
p1503
aVbynni
p1504
aVafrohamiltoni
p1505
aVzanzibaricus
p1506
aValtus
p1507
aVbarbus
p1508
aVconcharius
p1509
aVmiolepis
p1510
aVgurneyi
p1511
aVhumilis
p1512
aVnigrofasciatus
p1513
aVwerneri
p1514
aVtitius
p1515
aVluteus
p1516
aVaeneus
p1517
aVburchelli
p1518
aVlujae
p1519
aVtrevelyani
p1520
aVmacrotaenia
p1521
aVstigmatopygus
p1522
aVeveretti
p1523
aVspp.
p1524
aVmeridionalis
p1525
aVkessleri
p1526
aVlaticeps
p1527
aVsp. 1
p1528
aVinnocens
p1529
aVcyclolepis
p1530
aVnatalensis
p1531
aVoxyrhynchus
p1532
aVmattozi
p1533
asVNeolissochilus
p1534
(lp1535
Vsoroides
p1536
asVMicrodevario
p1537
(lp1538
Vkubotai
p1539
asVLabeo
p1540
(lp1541
Vlongipinnis
p1542
aVlineatus
p1543
aVnasus
p1544
aVparvus
p1545
aVlukulae
p1546
asVDionda
p1547
(lp1548
Vdiaboli
p1549
aVmelanops
p1550
aVepiscopa
p1551
aVserena
p1552
aVargentosa
p1553
aVnigrotaeniata
p1554
asVPseudobarbus
p1555
(lp1556
Vafer
p1557
aVphlegethon
p1558
aVasper
p1559
asVSemotilus
p1560
(lp1561
Vatromaculatus
p1562
aVcorporalis
p1563
aVthoreauianus
p1564
asVChrosomus
p1565
(lp1566
Verythrogaster
p1567
aVeos
p1568
aVoreas
p1569
aVsaylori
p1570
asVErimystax
p1571
(lp1572
Vharryi
p1573
aVinsignis
p1574
aVdissimilis
p1575
asVOsteochilus
p1576
(lp1577
Vmelanopleurus
p1578
asVHypophthalmichthys
p1579
(lp1580
Vnobilis
p1581
asVTampichthys
p1582
(lp1583
Vipni
p1584
asVCampostoma
p1585
(lp1586
Vpullum
p1587
aVanomalum
p1588
aVoligolepis
p1589
aVspadiceum
p1590
aVornatum
p1591
aVpauciradii
p1592
asVSnyderichthys
p1593
(lp1594
Vcopei
p1595
asVPimephales
p1596
(lp1597
Vvigilax
p1598
aVnotatus
p1599
aVtenellus
p1600
aVpromelas
p1601
asVCouesius
p1602
(lp1603
Vplumbeus
p1604
asVMylocheilus
p1605
(lp1606
Vcaurinus
p1607
asVPlatygobio
p1608
(lp1609
Vgracilis
p1610
asVGila
p1611
(lp1612
Vcoerulea 
p1613
asVMargariscus
p1614
(lp1615
Vmargarita
p1616
asVRichardsonius
p1617
(lp1618
Vegregius
p1619
asVNocomis
p1620
(lp1621
Vasper
p1622
aVraneyi
p1623
aVbiguttatus
p1624
aVleptocephalus
p1625
aVmicropogon
p1626
aVeffusus
p1627
asVMylopharodon
p1628
(lp1629
Vconocephalus
p1630
asVRhinichthys
p1631
(lp1632
Vcataractae
p1633
aVevermanni
p1634
asVYuriria
p1635
(lp1636
Valta
p1637
asVRaiamas
p1638
(lp1639
Vsenegalensis
p1640
asVPogonichthys
p1641
(lp1642
Vciscoides
p1643
asVAcrocheilus
p1644
(lp1645
Valutaceus
p1646
asVLepidomeda
p1647
(lp1648
Valbivallis
p1649
aVmollispinis
p1650
asVCyprinella
p1651
(lp1652
Vlepida
p1653
aVlutrensis
p1654
aVcamura
p1655
aVgalactura
p1656
aVspiloptera
p1657
aVcallistia
p1658
aVxaenurus
p1659
aVvenusta
p1660
aVleedsi
p1661
aVwhipplei
p1662
aVnivea
p1663
aVformosa
p1664
aVmonacha
p1665
aVproserpina
p1666
aVanalostana
p1667
aVlabrosa
p1668
aVvenusta cercostigma
p1669
aVtrichroistia
p1670
asVGarra
p1671
(lp1672
Vfuliginosa
p1673
asVCandidia
p1674
(lp1675
Vbarbata
p1676
asVLuxilus
p1677
(lp1678
Vchrysocephalus
p1679
aVcoccogenis
p1680
aVcerasinus
p1681
aVcardinalis
p1682
aVzonatus
p1683
aValbeolus
p1684
aVcornutus
p1685
aVpilsbryi
p1686
asVPhoxinus
p1687
(lp1688
Vsemotilus
p1689
asVAlgansea
p1690
(lp1691
Vlacustris
p1692
aVtincella
p1693
aVrubescens
p1694
aVaphanea
p1695
aVmonticola
p1696
asVLavinia
p1697
(lp1698
Vexilicauda
p1699
asVHybopsis
p1700
(lp1701
Vlineapunctata
p1702
aVwinchelli
p1703
asVAztecula
p1704
(lp1705
Vsallaei
p1706
asVLythrurus
p1707
(lp1708
Vfasciolaris
p1709
aVardens
p1710
aVbellus
p1711
aVfumeus
p1712
aVmatutinus
p1713
asVCodoma
p1714
(lp1715
Vornata
p1716
asVPuntius
p1717
(lp1718
Vterio
p1719
asVRelictus
p1720
(lp1721
Vsolitarius
p1722
asVExoglossum
p1723
(lp1724
Vlaurae
p1725
aVmaxillingua
p1726
asVClinostomus
p1727
(lp1728
Velongatus
p1729
asVLabeobarbus
p1730
(lp1731
Vmawambiensis
p1732
aVhabereri
p1733
aVwurtzi
p1734
aVpetitjeani
p1735
aVsacratus
p1736
aVcaudovittatus
p1737
aVbatesii
p1738
aVpolylepis
p1739
aVmarequensis
p1740
asVClypeobarbus
p1741
(lp1742
Vpleuropholis
p1743
aVhypsolepis
p1744
aVcongicus
p1745
asVPtychocheilus
p1746
(lp1747
Vumpquae
p1748
aVgrandis
p1749
asVNotropis
p1750
(lp1751
VNotropis 
p1752
aVrubricroceus 
p1753
aVbuccula 
p1754
aVhypsilepis
p1755
asVHybognathus
p1756
(lp1757
Vhayi
p1758
aVplacitus
p1759
aVhankinsoni
p1760
aVregius
p1761
aVargyritis
p1762
asVPhenacobius
p1763
(lp1764
Vmirabilis
p1765
aVcatostomus
p1766
asVEremichthys
p1767
(lp1768
Vacros
p1769
asVHenicorhynchus
p1770
(lp1771
Vlobatus
p1772
asVMacrhybopsis
p1773
(lp1774
Vstoreriana
p1775
aVaustralis
p1776
assVCobitidae
p1777
(dp1778
VSectoria
p1779
(lp1780
Vatriceps
p1781
asVAcantopsis
p1782
(lp1783
Vsp
p1784
asVSabanejewia
p1785
(lp1786
Vlarvata
p1787
assVBarbuccidae
p1788
(dp1789
VBarbucca
p1790
(lp1791
Vdiabolica
p1792
assVBalitoridae
p1793
(dp1794
VBalitora
p1795
(lp1796
Vbrucei
p1797
aVburmanica
p1798
asVSewellia
p1799
(lp1800
Velongata
p1801
asVSinogastromyzon
p1802
(lp1803
Vpuliensis
p1804
asVBeaufortia
p1805
(lp1806
Vkweichowensis
p1807
asVBalitoropsis
p1808
(lp1809
Vophiolepis
p1810
aVzollingeri
p1811
asVPseudohomaloptera
p1812
(lp1813
Vsexmaculata
p1814
asVHomalopterula
p1815
(lp1816
Vripleyi
p1817
aVgymnogaster
p1818
asVHomalopteroides
p1819
(lp1820
Vnebulosus
p1821
aVsmithi
p1822
aVrupicola
p1823
aVweberi
p1824
aVavii
p1825
aVwassinkii
p1826
asVFormosania
p1827
(lp1828
Vlacustre
p1829
asVNeohomaloptera
p1830
(lp1831
Vjohorensis
p1832
aV johorensis
p1833
asVBarbatula
p1834
(lp1835
Vbarbatula
p1836
asVYaoshania
p1837
(lp1838
Vpachychilus
p1839
asVHemimyzon
p1840
(lp1841
Vformosanus
p1842
asVGastromyzon
p1843
(lp1844
Vborneensis
p1845
asssVSiluriformes
p1846
(dp1847
VAuchenipteridae
p1848
(dp1849
VTrachycorystes
p1850
(lp1851
Vporosus
p1852
assVIctaluridae
p1853
(dp1854
VAmeiurus
p1855
(lp1856
Vmelas
p1857
asVTrogloglanis
p1858
(lp1859
Vpattersoni
p1860
asVSatan
p1861
(lp1862
Veurystomus
p1863
asVPylodictis
p1864
(lp1865
Volivaris
p1866
asVNoturus
p1867
(lp1868
Vnocturnus
p1869
aVflavus
p1870
aVphaeus
p1871
asVIctalurus
p1872
(lp1873
Vpunctatus
p1874
assVTrichomycteridae
p1875
(dp1876
VTrichomycterus
p1877
(lp1878
V
aVareolatus
p1879
aVguianense
p1880
assVPimelodidae
p1881
(dp1882
VPimelodus
p1883
(lp1884
Vblochii
p1885
assVBagridae
p1886
(dp1887
VMystus
p1888
(lp1889
Varmatus
p1890
assVCallichthyidae
p1891
(dp1892
VCorydoras
p1893
(lp1894
Vsp.
p1895
assVAriidae
p1896
(dp1897
VBagre
p1898
(lp1899
Vmarinus
p1900
assVSisoridae
p1901
(dp1902
VBagarius
p1903
(lp1904
Vbagarius
p1905
asVMyersglanis
p1906
(lp1907
Vblythii
p1908
asVPseudolaguvia
p1909
(lp1910
Vkapuri
p1911
assVAspredinidae
p1912
(dp1913
VBunocephalus
p1914
(lp1915
Vcoracoideus
p1916
assVHeptapteridae
p1917
(dp1918
VRhamdia
p1919
(lp1920
Vquelen
p1921
assVHeteropneustidae
p1922
(dp1923
VHeteropneustes
p1924
(lp1925
Vfossilis
p1926
asssVOsmeriformes
p1927
(dp1928
VOsmeridae
p1929
(dp1930
VHypomesus
p1931
(lp1932
Vpretiosus
p1933
aVnipponensis
p1934
asssVStomiiformes
p1935
(dp1936
VGonostomatidae
p1937
(dp1938
VGonostoma
p1939
(lp1940
Velongatum
p1941
assVSternoptychidae
p1942
(dp1943
VSternoptyx
p1944
(lp1945
Vobscura
p1946
aVdiaphana
p1947
aVpseudobscura
p1948
asVPolyipnus
p1949
(lp1950
Vindicus
p1951
asVArgyropelecus
p1952
(lp1953
Vlychnus
p1954
aVolfersii
p1955
aVsladeni
p1956
aVaffinis
p1957
assVStomiidae
p1958
(dp1959
VStomias
p1960
(lp1961
Vatriventer
p1962
asVEustomias
p1963
(lp1964
Vbifilis
p1965
asssVGasterosteiformes
p1966
(dp1967
VSyngnathidae
p1968
(dp1969
VHippocampus
p1970
(lp1971
Vbargibanti
p1972
asssVPolypteriformes
p1973
(dp1974
VPolypteridae
p1975
(dp1976
VPolypterus
p1977
(lp1978
Vsenegalus
p1979
asssVCyprinodontiformes
p1980
(dp1981
VPoeciliidae
p1982
(dp1983
VPoecilia
p1984
(lp1985
Vreticulata
p1986
asssVMugiliformes
p1987
(dp1988
VMugilidae
p1989
(dp1990
VMugil
p1991
(lp1992
Vcephalus
p1993
asssVPleuronectiformes
p1994
(dp1995
VAchiridae
p1996
(dp1997
VTrinectes
p1998
(lp1999
Vmaculatus
p2000
aVfimbriatus
p2001
aVfonsecensis
p2002
aVfluviatilis
p2003
asVHypoclinemus
p2004
(lp2005
Vmentalis
p2006
asVAchirus
p2007
(lp2008
Vscutum
p2009
aVlineatus
p2010
asVGymnachirus
p2011
(lp2012
Vmelas
p2013
assVPleuronectidae
p2014
(dp2015
VParophrys
p2016
(lp2017
Vvetulus
p2018
asssVLepisosteiformes
p2019
(dp2020
VLepisosteidae
p2021
(dp2022
VLepisosteus
p2023
(lp2024
Vplatyrhincus
p2025
aVoculatus
p2026
asssVAtheriniformes
p2027
(dp2028
VAtherinopsidae
p2029
(dp2030
VLabidesthes
p2031
(lp2032
Vsicculus
p2033
aVvanhyningi
p2034
asVMenidia
p2035
(lp2036
Vberyllina
p2037
asssVPolymixiiformes
p2038
(dp2039
VPolymixiidae
p2040
(dp2041
VPolymixia
p2042
(lp2043
Vlowei
p2044
asssVAngulliformes
p2045
(dp2046
VNettastomatidae
p2047
(dp2048
VSaurenchelys
p2049
(lp2050
Vcognita
p2051
assVOphichthidae
p2052
(dp2053
VOphichthus
p2054
(lp2055
Vrex
p2056
asVApterichtus
p2057
(lp2058
Vkendalli
p2059
asssVTetraodontiformes
p2060
(dp2061
VDiodontidae
p2062
(dp2063
VDiodon
p2064
(lp2065
Vhystrix
p2066
assVOstraiontidae
p2067
(dp2068
VAcanthostracion
p2069
(lp2070
Vquadricornis
p2071
assVTetraodontidae
p2072
(dp2073
VLagocephalus
p2074
(lp2075
Vlaevigatus
p2076
aVlagocephalus
p2077
aVsceleratus
p2078
aVinermis
p2079
aVlunaris
p2080
aVguentheri
p2081
asVTakifugu
p2082
(lp2083
Voblongus
p2084
asVColomesus
p2085
(lp2086
Vpsittacus
p2087
aVtocantinensis
p2088
asVPelagocephalus
p2089
(lp2090
Vmarki
p2091
asVTylerius
p2092
(lp2093
Vspinosissimus
p2094
asVTetraodon
p2095
(lp2096
Vfluviatilis
p2097
aVmiurus
p2098
aVerythrotaenia
p2099
aVpustulatus
p2100
aVlineatus
p2101
asVCarinotetraodon
p2102
(lp2103
Vlorteti
p2104
asVArothron
p2105
(lp2106
Vmanilensis
p2107
aVhispidus
p2108
aVnigropunctatus
p2109
aVmeleagris
p2110
aVimmaculatus
p2111
aVdiadematus
p2112
aVmappa
p2113
asVLeiodon
p2114
(lp2115
Vcutcutia
p2116
asVAuriglobus
p2117
(lp2118
Vsilus
p2119
aVmodestus
p2120
asVSphoeroides
p2121
(lp2122
Vlobatus
p2123
aVtestudineus
p2124
aVmaculatus
p2125
aVpachygaster
p2126
aVparvus
p2127
aVnephelus
p2128
aVspengleri
p2129
aVdorsalis
p2130
aVlispus
p2131
asVCanthigaster
p2132
(lp2133
Vfigueiredoi
p2134
aVrostrata
p2135
aVsolandri
p2136
aVpunctatissima
p2137
aVcoronata
p2138
aVvalentini
p2139
aVjactator
p2140
aVbennetti
p2141
aVamboinensis
p2142
aVsmithae
p2143
aVcompressa
p2144
aVpapua
p2145
asVPao
p2146
(lp2147
Vleiurus
p2148
aVcambodgiensis
p2149
aVsuvattii
p2150
assVBalitoridae:balitorinae
p2151
(dp2152
VHomaloptera
p2153
(lp2154
Vrupicola
p2155
aVmontana
p2156
aVsexmaculata
p2157
aVstephensoni
p2158
aVgymnogaster
p2159
aVocellata
p2160
assVBalistidae
p2161
(dp2162
VOxymonacanthus
p2163
(lp2164
Vlongirostris
p2165
asVSufflamen
p2166
(lp2167
Vchrysopterum
p2168
asVCanthidermis
p2169
(lp2170
Vmacrolepis
p2171
asVBalistapus
p2172
(lp2173
Vundulatus
p2174
asVBalistes
p2175
(lp2176
VBalistes
p2177
aVchrysopterus
p2178
aVpolylepis
p2179
asVMelichthys
p2180
(lp2181
Vniger
p2182
asVOdonus
p2183
(lp2184
Vniger
p2185
asVPervagor
p2186
(lp2187
Vspilosoma
p2188
aVjanthinosoma
p2189
asVRhinecanthus
p2190
(lp2191
Vaculeatus
p2192
aVverrucosus
p2193
assVTriacanthodidae
p2194
(dp2195
VTydemania
p2196
(lp2197
Vnavigatoris
p2198
assVMolidae
p2199
(dp2200
VRanzania
p2201
(lp2202
Vlaevis
p2203
assVMonacanthidae
p2204
(dp2205
VCantherhines
p2206
(lp2207
Vsandwichiensis
p2208
aVpardalis
p2209
asVMonacanthus
p2210
(lp2211
Vciliatus
p2212
asVAcreichthys
p2213
(lp2214
Vtomentosus
p2215
asVStephanolepis
p2216
(lp2217
Vhispidus
p2218
aVtomentosus
p2219
aVdiaspros
p2220
asVAlutera
p2221
(lp2222
Vscripta
p2223
asssVBeryciformes
p2224
(dp2225
VAnoplogastridae
p2226
(dp2227
VAnoplogaster
p2228
(lp2229
Vcornuta
p2230
asssVOphidiiformes
p2231
(dp2232
VOphidiidae
p2233
(dp2234
VPorogadus
p2235
(lp2236
Vmiles
p2237
asVBassozetus
p2238
(lp2239
Vzenkevitchi
p2240
asssVBeloniformes
p2241
(dp2242
VHemiramphidae
p2243
(dp2244
VDermogenys
p2245
(lp2246
Vbruneiensis
p2247
assVBelonidae
p2248
(dp2249
VPetalichthys
p2250
(lp2251
Vcapensis
p2252
asVBelonion
p2253
(lp2254
Vapodion
p2255
aVdibranchodon
p2256
asVPseudotylosurus
p2257
(lp2258
Vangusticeps
p2259
asVStrongylura
p2260
(lp2261
Vfluviatilis
p2262
aVkrefftii
p2263
asssVCharaciformes
p2264
(dp2265
VProchilodontidae
p2266
(dp2267
VProchilodus
p2268
(lp2269
Vnigricans
p2270
assVGasteropelecidae
p2271
(dp2272
VThoracocharax
p2273
(lp2274
Vstellatus
p2275
assVCynodontidae
p2276
(dp2277
VCynodon
p2278
(lp2279
Vgibbus
p2280
assVSerrasalmidae
p2281
(dp2282
VMylesinus
p2283
(lp2284
Vpaucisquamatus
p2285
asVAcnodon
p2286
(lp2287
Vnormani
p2288
asVOssubtus
p2289
(lp2290
Vxinguense
p2291
asVMyloplus
p2292
(lp2293
Vrhomboidalis
p2294
aVrubripinnis
p2295
asVCatoprion
p2296
(lp2297
Vmento
p2298
asVMyleus
p2299
(lp2300
Vrubripinnis
p2301
aVrhomboidalis
p2302
aVschomburgkii
p2303
aVsetiger
p2304
aVtorquatus
p2305
aVlevis
p2306
aVasterias
p2307
asVSerrasalmus
p2308
(lp2309
Vmanueli
p2310
aVmedinai
p2311
aVeigenmanni
p2312
aVmaculatus
p2313
aVspilopleura
p2314
aVirritans
p2315
aVbrandtii
p2316
aVrhombeus
p2317
aVelongatus
p2318
aVmarginatus
p2319
asVPygopristis
p2320
(lp2321
Vdenticulata
p2322
asVPygocentrus
p2323
(lp2324
Vnattereri
p2325
aVpiraya
p2326
aVcariba
p2327
assVTriportheidae
p2328
(dp2329
VTriportheus
p2330
(lp2331
Velongatus
p2332
assVChalceidae
p2333
(dp2334
VChalceus
p2335
(lp2336
Vmacrolepidotus
p2337
assVAnostomidae
p2338
(dp2339
VPseudanos
p2340
(lp2341
Vtrimaculatus
p2342
aVgracilis
p2343
aVirinae
p2344
asVLeporellus
p2345
(lp2346
Vvittatus
p2347
asVHypomasticus
p2348
(lp2349
Vmegalepis
p2350
asVLaemolyta
p2351
(lp2352
Vgarmani
p2353
asVPetulanos
p2354
(lp2355
Vspiloclistron
p2356
asVLeporinus
p2357
(lp2358
Vfasciatus
p2359
aVortomaculatus
p2360
aVnigrotaeniatus
p2361
aVagassizii
p2362
aVtrifasciatus
p2363
aVtaeniatus
p2364
asVRhytiodus
p2365
(lp2366
Vlauzannei
p2367
asVSynaptolaemus
p2368
(lp2369
Vcingulatus
p2370
asVAnostomus
p2371
(lp2372
Vanostomus
p2373
aVternetzi
p2374
assVCharacidae
p2375
(dp2376
VRhaphiodon
p2377
(lp2378
Vvulpinus
p2379
asVPristobrycon
p2380
(lp2381
Vcalmoni
p2382
aVstriolatus
p2383
asVAstyanax
p2384
(lp2385
Vmexicanus
p2386
asVMylossoma
p2387
(lp2388
Vduriventre
p2389
asVExodon
p2390
(lp2391
Vparadoxus
p2392
asVMetynnis
p2393
(lp2394
Vhypsauchen
p2395
aVluna
p2396
aValtidorsalis
p2397
asVColossoma
p2398
(lp2399
Vmacropomum
p2400
asVRoeboides
p2401
(lp2402
Vdayi
p2403
aVoccidentalis
p2404
aVbouchellei
p2405
aVguatemalensis
p2406
aVmyersii
p2407
aVaffinis
p2408
asVAgoniates
p2409
(lp2410
V
aVsp.
p2411
asVPiaractus
p2412
(lp2413
Vbrachypomus
p2414
assssVOsteichthyes
p2415
(dp2416
VAmiiformes
p2417
(dp2418
VAmiidae
p2419
(dp2420
VAmia
p2421
(lp2422
Vcalva
p2423
asssVCrossopterygii
p2424
(dp2425
VPanderichthyidae?
p2426
(dp2427
VTiktaalik
p2428
(lp2429
Vroseae
p2430
assssVChondrichthyes
p2431
(dp2432
VTorpediniformes
p2433
(dp2434
VNarcinidae
p2435
(dp2436
VDiplobatis
p2437
(lp2438
Vpictus
p2439
asVNarke
p2440
(lp2441
Vdipterygia
p2442
asssVLamniformes
p2443
(dp2444
VLamnidae
p2445
(dp2446
VCarcharocles
p2447
(lp2448
Vauriculatus
p2449
aVmegalodon
p2450
asssVSqualiformes
p2451
(dp2452
VEtmopteridae
p2453
(dp2454
VEtmopterus
p2455
(lp2456
Vvirens
p2457
asssVEugeneodontida
p2458
(dp2459
VEdestidae
p2460
(dp2461
VEdestus
p2462
(lp2463
Vheinrichi
p2464
assssVElasmobranchii
p2465
(dp2466
VMyliobatiformes
p2467
(dp2468
VUrolophidae
p2469
(dp2470
VUrotrygon
p2471
(lp2472
Vnana
p2473
aVrogersi
p2474
aVchilensis
p2475
aVsimulatrix
p2476
aVvenezuelae
p2477
aVaspidura
p2478
asVUrobatis
p2479
(lp2480
Vtumbesensis
p2481
aVhalleri
p2482
asVUrolophus
p2483
(lp2484
Vcruciatus
p2485
assVDasyatidae
p2486
(dp2487
VHimantura
p2488
(lp2489
Vimbricata
p2490
aVwalga
p2491
asVTaeniura
p2492
(lp2493
Vlymma
p2494
asVNeotrygon
p2495
(lp2496
Vkuhlii
p2497
asVDasyatis
p2498
(lp2499
Vakajei
p2500
aVzugei
p2501
aVguttata
p2502
aVamericana
p2503
asssVRajiformes
p2504
(dp2505
VPotamotrygonidae
p2506
(dp2507
VPotamotrygon
p2508
(lp2509
Vsp
p2510
asssVPristiformes
p2511
(dp2512
VPristidae
p2513
(dp2514
VPristis
p2515
(lp2516
Vpectinata
p2517
asssVCtenacanthiformes
p2518
(dp2519
VCtenacanthidae
p2520
(dp2521
VCarcharopsis
p2522
(lp2523
Vwortheni
p2524
assssVTherapsida
p2525
(dp2526
VCynodontia
p2527
(dp2528
VThrinaxodontidae
p2529
(dp2530
VThrinaxodon
p2531
(lp2532
Vsp.
p2533
assssVOsteichthys
p2534
(dp2535
VSynbranchiformes
p2536
(dp2537
VMastacembelidae
p2538
(dp2539
VMastacembelus
p2540
(lp2541
Vsimbi
p2542
aVcrassus
p2543
aVaviceps
p2544
assssVReptilia
p2545
(dp2546
V
(dp2547
VAnkylosauridae
p2548
(dp2549
VAnkylosaurus
p2550
(lp2551
Vmagniventris
p2552
assVMegalosauridae
p2553
(dp2554
VMegalosaurus
p2555
(lp2556
Vbucklandii
p2557
asVEustreptospondylus
p2558
(lp2559
Voxoniensis
p2560
asssVTestudinata
p2561
(dp2562
VPelomedusidae
p2563
(dp2564
VPelomedusa
p2565
(lp2566
Vsubrufa
p2567
asssVProsauropoda
p2568
(dp2569
V
(dp2570
VMassospondylus
p2571
(lp2572
Vcarinatus
p2573
asssVOrnithischia
p2574
(dp2575
VPachycephalosauridae
p2576
(dp2577
VStegoceras
p2578
(lp2579
Vvalidum
p2580
assVHadrosauridae
p2581
(dp2582
VEdmontosaurus
p2583
(lp2584
Vannectens
p2585
asVTelmatosaurus
p2586
(lp2587
Vtranssylvanicus
p2588
asssVSerpentes
p2589
(dp2590
VUropeltidae
p2591
(dp2592
VUropeltis
p2593
(lp2594
Vmelanogaster
p2595
asVPlectrurus
p2596
(lp2597
Vperroteti
p2598
assVAtractaspidae
p2599
(dp2600
VAtractaspis
p2601
(lp2602
Vbibroni
p2603
aVaterrima
p2604
aVbibronii
p2605
assVAcrochordidae
p2606
(dp2607
VAcrochordus
p2608
(lp2609
Vgranulatus
p2610
assVAtractaspididae
p2611
(dp2612
VHomoroselaps
p2613
(lp2614
Vlacteus
p2615
asVMacrelaps
p2616
(lp2617
Vmicrolepidotus
p2618
asVXenocalamus
p2619
(lp2620
Vbicolor
p2621
asVPolemon
p2622
(lp2623
Vchristyi
p2624
asssVSquamata
p2625
(dp2626
VElapidae
p2627
(dp2628
VDendroaspis
p2629
(lp2630
Vjamesoni
p2631
aVangusticeps
p2632
asVMicrurus
p2633
(lp2634
Vnigrocinctus
p2635
asVNaja
p2636
(lp2637
Vmossambica
p2638
aVnigricollis
p2639
assVEublepharidae
p2640
(dp2641
VGoniurosaurus
p2642
(lp2643
Vlichtenfelderi
p2644
asVHemitheconyx
p2645
(lp2646
Vcaudicinctus
p2647
assVAgamidae
p2648
(dp2649
VBronchocela
p2650
(lp2651
Vcristatella
p2652
asVSitana
p2653
(lp2654
Vponticeriana
p2655
asVLyriocephalus
p2656
(lp2657
Vscutatus
p2658
asVDiporiphora
p2659
(lp2660
Vwinneckei
p2661
asVUromastyx
p2662
(lp2663
Vsp.
p2664
asVCalotes
p2665
(lp2666
Vmystaceus
p2667
asVJapalura
p2668
(lp2669
Vpolygonata
p2670
asVCeratophora
p2671
(lp2672
Vstoddartii
p2673
asVIntellagama
p2674
(lp2675
Vlesueurii
p2676
asVAgama
p2677
(lp2678
Vplaniceps
p2679
asVDraco
p2680
(lp2681
Vblanfordii
p2682
aVdussumieri
p2683
aVmaculatus
p2684
aVmelanopogon
p2685
aVspilopterus
p2686
assVCorytophanidae
p2687
(dp2688
VLaemanctus
p2689
(lp2690
Vlongipes
p2691
asVCorytophanes
p2692
(lp2693
Vpercarinatus
p2694
assVTyphlopidae
p2695
(dp2696
VAnilios
p2697
(lp2698
Vgrypus
p2699
aVleptosoma
p2700
aVaustralis
p2701
aVsp.
p2702
assVPhrynosomatidae
p2703
(dp2704
VSceloporus
p2705
(lp2706
Vmagister
p2707
asVUma
p2708
(lp2709
Vscoparia
p2710
assVXenodontinae
p2711
(dp2712
VSibon
p2713
(lp2714
Vdimidiatus
p2715
asVPsomophis
p2716
(lp2717
Vgenimaculatus
p2718
assVDibamidae
p2719
(dp2720
VDibamus
p2721
(lp2722
Vbogadeki
p2723
assVLacertidae
p2724
(dp2725
VAcanthodactylus
p2726
(lp2727
Verythrurus
p2728
asVTakydromus
p2729
(lp2730
Vsexlineatus
p2731
assVDiplodactylidae
p2732
(dp2733
VBavayia
p2734
(lp2735
Vrobusta
p2736
asVOedodera
p2737
(lp2738
Vmarmorata
p2739
asVCrenadactylus
p2740
(lp2741
Vocellatus
p2742
asVCorrelophus
p2743
(lp2744
Vciliatus
p2745
assVIguanidae
p2746
(dp2747
VGambelia
p2748
(lp2749
Vsila
p2750
asVBrachylophus
p2751
(lp2752
Vvitiensis
p2753
asVConolophus
p2754
(lp2755
Vsubcristatus
p2756
asVCtenosaura
p2757
(lp2758
Vhemilopha
p2759
asVAnolis
p2760
(lp2761
Vcristitellus
p2762
aVcarolinensis
p2763
aVporcatus
p2764
asVCrotaphytus
p2765
(lp2766
Vbicinctores
p2767
aVcollaris
p2768
asVBasiliscus
p2769
(lp2770
Vbasiliscus
p2771
aVvittatus
p2772
aVplumifrons
p2773
asVSauromalus
p2774
(lp2775
Vater
p2776
aVobesus
p2777
asVPhymaturus
p2778
(lp2779
Vpalluma
p2780
asVAmblyrhynchus
p2781
(lp2782
Vcristatus
p2783
asVIguana
p2784
(lp2785
Viguana
p2786
assVXenosauridae
p2787
(dp2788
VXenosaurus
p2789
(lp2790
Vrectocollaris
p2791
asVShinisaurus
p2792
(lp2793
Vcrocodilurus
p2794
assVDipsadidae
p2795
(dp2796
VCubophis
p2797
(lp2798
Vcantherigerus
p2799
aVvudii
p2800
asVOxyrhopus
p2801
(lp2802
Vguibei
p2803
asVOmoadiphas
p2804
(lp2805
Vaurula
p2806
assVHelodermatidae
p2807
(dp2808
VHeloderma
p2809
(lp2810
Vsuspectum
p2811
aVhorridum
p2812
assVColubrinae
p2813
(dp2814
VOxybelis
p2815
(lp2816
Vaeneus
p2817
aVargenteus
p2818
asVMastigodryas
p2819
(lp2820
Vmelanolomus
p2821
asVThelotornis
p2822
(lp2823
Vkirtlandii
p2824
asVElaphe
p2825
(lp2826
Vvulpina
p2827
aVobsoleta
p2828
aVtriaspis
p2829
aVradiata
p2830
asVSpilotes
p2831
(lp2832
Vpullatus
p2833
assVTropidurinae
p2834
(dp2835
VPlica
p2836
(lp2837
Vumbra
p2838
assVTropiduridae
p2839
(dp2840
VMicrolophus
p2841
(lp2842
Vperuvianus
p2843
asVLeiocephalus
p2844
(lp2845
Vinaguae
p2846
assVMosasauridae
p2847
(dp2848
VPlatecarpus
p2849
(lp2850
Vtympaniticus
p2851
assVLanthanotidae
p2852
(dp2853
VLanthanotus
p2854
(lp2855
Vborneensis
p2856
assVCarphodactylidae
p2857
(dp2858
VNephrurus
p2859
(lp2860
Vasper
p2861
asVPhyllurus
p2862
(lp2863
Vplaturus
p2864
assVTeiidae
p2865
(dp2866
VDracaena
p2867
(lp2868
Vguianensis
p2869
asVKentropyx
p2870
(lp2871
Vpelviceps
p2872
asVTeius
p2873
(lp2874
Vteyou
p2875
asVTupinambis
p2876
(lp2877
Vrufescens
p2878
asVDicrodon
p2879
(lp2880
Vguttulatum
p2881
asVCnemidophorus
p2882
(lp2883
Vmurinus
p2884
assVGekkonidae
p2885
(dp2886
VDixonius
p2887
(lp2888
Vsiamensis
p2889
asVGeckolepis
p2890
(lp2891
Vhumbloti
p2892
aVmaculata
p2893
aVmegalepis
p2894
asVChondrodactylus
p2895
(lp2896
Vangulifer
p2897
asVStenodactylus
p2898
(lp2899
Varabicus
p2900
asVTropiocolotes
p2901
(lp2902
Vtripolitanus
p2903
asVUnknown
p2904
(lp2905
Vsp.
p2906
asVCyrtodactylus
p2907
(lp2908
Vfraenatus
p2909
asVUroplatus
p2910
(lp2911
Vebenaui
p2912
aVphantasticus
p2913
aVfimbriatus
p2914
asVPachydactylus
p2915
(lp2916
V
aVscutatus
p2917
asVPristurus
p2918
(lp2919
Vcrucifer
p2920
asVHemidactylus
p2921
(lp2922
Vturcicus
p2923
aVlavadeserticus
p2924
asVTeratoscincus
p2925
(lp2926
Vprzewalskii 
p2927
asVRhoptropus
p2928
(lp2929
V
aVbarnardi
p2930
aVboltoni
p2931
asVCyrtopodion
p2932
(lp2933
Vheterocercus
p2934
assVVaranidae
p2935
(dp2936
VVaranus
p2937
(lp2938
Volivaceus
p2939
aVniloticus
p2940
aVrudicollis
p2941
aVvarius
p2942
aVprasinus
p2943
assVScincidae
p2944
(dp2945
VTrachylepis
p2946
(lp2947
Vlaevis
p2948
aVsulcata
p2949
aVgonwouoi
p2950
aVacutilabrus
p2951
asVTiliqua
p2952
(lp2953
Vrugosa
p2954
asVAcontias
p2955
(lp2956
Vmeleagris
p2957
asVLerista
p2958
(lp2959
Vbipes
p2960
asVCorucia
p2961
(lp2962
Vzebrata
p2963
asVEgernia
p2964
(lp2965
Vstokesii
p2966
aVstriolata
p2967
aVwhitii
p2968
aVcunninghami
p2969
assVColubridae
p2970
(dp2971
VGyalopion
p2972
(lp2973
Vcanum
p2974
asVTrimorphodon
p2975
(lp2976
Vvilkinsonii
p2977
asVConopsis
p2978
(lp2979
Vbiserialis
p2980
asVLeptophis
p2981
(lp2982
Vdepressirostris
p2983
aVahaetulla
p2984
aVdiplotropis
p2985
aVmexicanus
p2986
asVXenopholis
p2987
(lp2988
Vscalaris
p2989
asVHeterodon
p2990
(lp2991
Vplatirhinos
p2992
asVHypsiglena
p2993
(lp2994
Vaffinis
p2995
asVClelia
p2996
(lp2997
Vclelia
p2998
asVErpeton
p2999
(lp3000
Vtentaculatum
p3001
asVDrymobius
p3002
(lp3003
Vchloroticus
p3004
asVProsymna
p3005
(lp3006
Vambigua
p3007
aVstuhlmanni 
p3008
aVbivitata
p3009
aVruspoli
p3010
aVsundevalli
p3011
aVvisseri
p3012
aVlineata
p3013
asVLiophidium
p3014
(lp3015
Vapperti
p3016
aVrhodogaster
p3017
aVtorquatum
p3018
asVTantilla
p3019
(lp3020
Vvermiformis
p3021
aVschistosa
p3022
aVcucullata
p3023
aVrelicta
p3024
aVmoesta
p3025
aVhobartsmithi
p3026
aVgracilis
p3027
aVcoronata
p3028
aVbocourti
p3029
aVatriceps
p3030
aVcalamarina
p3031
aVnigriceps
p3032
aVwilcoxi
p3033
asVImantodes
p3034
(lp3035
Vcenchoa
p3036
asVTaeniophallus
p3037
(lp3038
Voccipitalis
p3039
asVDasypeltis
p3040
(lp3041
Vscabra
p3042
asVOrthriophis
p3043
(lp3044
Vtaeniurus
p3045
asVLamprophis
p3046
(lp3047
Vfuliginosus
p3048
asVAhaetulla
p3049
(lp3050
Vnasuta
p3051
asVDromicodryas
p3052
(lp3053
Vquadrilineatus
p3054
asVFicimia
p3055
(lp3056
Vpublia
p3057
asVLampropeltis
p3058
(lp3059
Vpyromelana
p3060
asVDispholidus
p3061
(lp3062
Vtypus
p3063
asVMasticophis
p3064
(lp3065
Vflagellum
p3066
aVlateralis
p3067
aVbilineatus
p3068
asVPsammodynastes
p3069
(lp3070
Vpulverulentus
p3071
asVLeioheterodon
p3072
(lp3073
Vgeayi
p3074
aVmodestus
p3075
asVIthycyphus
p3076
(lp3077
Voursi
p3078
asVDipsas
p3079
(lp3080
Vcatesbyi
p3081
asVDrymarchon
p3082
(lp3083
Vmelanurus
p3084
aVcorais
p3085
asVAparallactus
p3086
(lp3087
Vcapensis 
p3088
aVlineatus
p3089
asVAmblyodipsas
p3090
(lp3091
Vpolylepis
p3092
assVLamprophiinae
p3093
(dp3094
VSibynophis
p3095
(lp3096
Vcollaris
p3097
asVAparallactus
p3098
(lp3099
Vniger
p3100
aVmodestus
p3101
assVSphaerodactylidae
p3102
(dp3103
VLepidoblepharis
p3104
(lp3105
Vsanctaemartae
p3106
asVPseudogonatodes
p3107
(lp3108
Vbarbouri
p3109
asVSphaerodactylus
p3110
(lp3111
Vcaicosensis
p3112
asVSaurodactylus
p3113
(lp3114
Vmauritanicus
p3115
assVChamaeleonidae
p3116
(dp3117
VKinyongia
p3118
(lp3119
Vtavetana
p3120
aVtenue
p3121
aVtenuis
p3122
aVmatschiei
p3123
asVChamaeleo
p3124
(lp3125
Vzeylanicus
p3126
aVafricanus
p3127
aVcalcaricarens
p3128
aVnamaquensis
p3129
asVTrioceros
p3130
(lp3131
Vfeae
p3132
aVrudis
p3133
aVsternfeldi
p3134
aVserratus
p3135
asVFurcifer
p3136
(lp3137
Voustaleti
p3138
aVbifidus
p3139
aVbalteatus
p3140
aVrhinoceratus
p3141
asVCalumma
p3142
(lp3143
Vparsonii
p3144
aVtigris
p3145
asVRieppeleon
p3146
(lp3147
Vbrevicaudatus
p3148
asVBrookesia
p3149
(lp3150
Vsuperciliaris
p3151
aVperarmata
p3152
asVRhampholeon
p3153
(lp3154
Vbrevicaudatus
p3155
asVBradypodion
p3156
(lp3157
Vpumilum
p3158
aVdracomontanum
p3159
aVsetaroi
p3160
aVoccidentale
p3161
aVgutturale
p3162
aVventrale
p3163
assVPhyllodactylidae
p3164
(dp3165
VTarentola
p3166
(lp3167
Vmauritanica 
p3168
asVThecadactylus
p3169
(lp3170
Vrapicauda
p3171
assVBoidae
p3172
(dp3173
VTitanoboa
p3174
(lp3175
Vcerrejonensis
p3176
asVBoa
p3177
(lp3178
Vconstrictor
p3179
asVEunectes
p3180
(lp3181
Vmurinus
p3182
assVViperidae
p3183
(dp3184
VAtheris
p3185
(lp3186
Vceratophora
p3187
asVGloydius
p3188
(lp3189
Vussuriensis
p3190
asVCrotalus
p3191
(lp3192
Vdurissus
p3193
aVviridis
p3194
asVLachesis
p3195
(lp3196
Vstenophrys
p3197
asVAzemiops
p3198
(lp3199
Vfeae
p3200
asVBothrops
p3201
(lp3202
Vsp
p3203
aVatrox
p3204
aVmoojeni
p3205
aVasper
p3206
asVAgkistrodon
p3207
(lp3208
Vcaliginosus
p3209
asVCerastes
p3210
(lp3211
Vcerastes
p3212
assVGerrhosauridae
p3213
(dp3214
VGerrhosaurus
p3215
(lp3216
Vmajor
p3217
aVvalidus
p3218
assVIguaninae
p3219
(dp3220
VCyclura
p3221
(lp3222
Vcornuta
p3223
aVpinguis
p3224
assVRhineuridae
p3225
(dp3226
VRhineura
p3227
(lp3228
Vfloridana
p3229
assVGekkoninae
p3230
(dp3231
VGekko
p3232
(lp3233
Vgecko
p3234
aVsmithii
p3235
assVCordylidae
p3236
(dp3237
VSmaug
p3238
(lp3239
Vgiganteus
p3240
aVwarreni
p3241
aVdepressus
p3242
aVbarbertonensis
p3243
asVPlatysaurus
p3244
(lp3245
Vguttatus
p3246
asVCordylus
p3247
(lp3248
Vmarunguensis
p3249
aVangolensis
p3250
aVnamakuiyus
p3251
aVcordylus
p3252
assVAnguidae
p3253
(dp3254
VElgaria
p3255
(lp3256
Vcoerulea
p3257
aVpanamintina
p3258
aVmulticarinata
p3259
asssVCrocodylia
p3260
(dp3261
VCrocodylidae
p3262
(dp3263
VCrocodylus
p3264
(lp3265
Vjohnsoni
p3266
aVsiamensis
p3267
aVmindorensis
p3268
assVGavialidae
p3269
(dp3270
VTomistoma
p3271
(lp3272
Vschlegelii
p3273
asVGavialis
p3274
(lp3275
Vgangeticus
p3276
assVAlligatoridae
p3277
(dp3278
VAlligator
p3279
(lp3280
Vmississippiensis
p3281
asVPaleosuchus
p3282
(lp3283
Vtrigonatus
p3284
asssVSaurischia
p3285
(dp3286
VGrallatoridae
p3287
(dp3288
VGrallator
p3289
(lp3290
Vsp.
p3291
asssVEosuchia
p3292
(dp3293
VGoniopholididae
p3294
(dp3295
VDakotasuchus
p3296
(lp3297
Vkingi
p3298
assV
(dp3299
VOrovenator
p3300
(lp3301
Vmayorum
p3302
asVTriopticus
p3303
(lp3304
Vprimus
p3305
assVParasuchidae
p3306
(dp3307
VWannia
p3308
(lp3309
Vscurriensis
p3310
asssVSauria
p3311
(dp3312
sVTestudines
p3313
(dp3314
VEmydidae
p3315
(dp3316
VTrachemys
p3317
(lp3318
Vinflata
p3319
assVChelidae
p3320
(dp3321
VPhrynops
p3322
(lp3323
Vhilarii
p3324
assVGeoemydidae
p3325
(dp3326
VMelanochelys
p3327
(lp3328
Vtrijuga
p3329
asVCuora
p3330
(lp3331
Vflavomarginata
p3332
aVamboinensis
p3333
assVKinosternidae
p3334
(dp3335
VKinosternon
p3336
(lp3337
Vhirtipes
p3338
aVintegrum
p3339
assVChelydridae
p3340
(dp3341
VMacrochelys
p3342
(lp3343
Vtemminckii
p3344
asVChelydra
p3345
(lp3346
Vserpentina
p3347
asssVRhynchocephalia
p3348
(dp3349
VSphenodontidae
p3350
(dp3351
VSphenodon
p3352
(lp3353
Vpunctatus
p3354
assssVMammalia
p3355
(dp3356
V
(dp3357
V
(dp3358
VWidanelfarasia
p3359
(lp3360
Vbowni
p3361
assVAdapisoriculidae
p3362
(dp3363
VAfrodon
p3364
(lp3365
Vgheerbranti
p3366
asVBustylus
p3367
(lp3368
Vmarandati
p3369
assVSudamericidae
p3370
(dp3371
VVintana
p3372
(lp3373
Vsertichi
p3374
assVPtolemaiidae
p3375
(dp3376
VPtolemaia
p3377
(lp3378
Vgrangeri
p3379
asssVInsectivora
p3380
(dp3381
VApatemyidae
p3382
(dp3383
VApatemys
p3384
(lp3385
Vchardini
p3386
asVLabidolemur
p3387
(lp3388
Vkayi
p3389
assVDormaaliidae
p3390
(dp3391
VTalpavoides
p3392
(lp3393
Vdartoni
p3394
asVScenopagus
p3395
(lp3396
Vsp.
p3397
asVCrypholestes
p3398
(lp3399
Vvaughni
p3400
asssVDocodonta
p3401
(dp3402
VDocodontidae
p3403
(dp3404
VKrusatodon
p3405
(lp3406
Vkirtlingtonensis
p3407
asssVPholidota
p3408
(dp3409
VManidae
p3410
(dp3411
VManis
p3412
(lp3413
Vsp.
p3414
asssVRodentia
p3415
(dp3416
V
(dp3417
VTexomys
p3418
(lp3419
Vstewarti
p3420
aVsp. 
p3421
asVMubhammys
p3422
(lp3423
Vvadumensis
p3424
asVBirkamys
p3425
(lp3426
Vkorai
p3427
assVMuridae
p3428
(dp3429
VNesokia
p3430
(lp3431
Vindica
p3432
asVMicromys
p3433
(lp3434
Vminutus
p3435
asVMus
p3436
(lp3437
Vmusculus
p3438
asVApomys
p3439
(lp3440
Vmicrodon
p3441
asVMeriones
p3442
(lp3443
Vhurrianae
p3444
asVAkodon
p3445
(lp3446
Vaffinis
p3447
asVPhloeomys
p3448
(lp3449
Vcumingi
p3450
asVGerbillus
p3451
(lp3452
Vcheesmani
p3453
aVnanus
p3454
asVRattus
p3455
(lp3456
Vturkestanicus
p3457
aVpyctoris
p3458
asVRhizomys
p3459
(lp3460
Vsumatrensis
p3461
asVPrionomys
p3462
(lp3463
Vbatesi
p3464
asVPsammomys
p3465
(lp3466
Vobesus
p3467
asVAcomys
p3468
(lp3469
Vcahirinus
p3470
asVTatera
p3471
(lp3472
Vindica
p3473
assVNesomyidae
p3474
(dp3475
VCricetomys
p3476
(lp3477
Vgambianus
p3478
assVCaviidae
p3479
(dp3480
VProdolichotis
p3481
(lp3482
Vpridiana
p3483
asVPhugatherium
p3484
(lp3485
Vdichroplax
p3486
assVCuniculidae
p3487
(dp3488
VCuniculus
p3489
(lp3490
Vpaca
p3491
assVDipodidae
p3492
(dp3493
VZapus
p3494
(lp3495
Vhudsonius
p3496
asVNapaeozapus
p3497
(lp3498
Vinsignis
p3499
asVAllactaga
p3500
(lp3501
Vmajor
p3502
assVAlagomyidae
p3503
(dp3504
VAlagomys
p3505
(lp3506
Vrusselli
p3507
aVdashzevegi
p3508
aVsp.
p3509
assVReithroparamyidae
p3510
(dp3511
VReithroparamys
p3512
(lp3513
Vsp.
p3514
assVIschyromyidae
p3515
(dp3516
VAcritoparamys
p3517
(lp3518
Vatavus
p3519
aVatwateri
p3520
asVMicroparamys
p3521
(lp3522
Vcheradius
p3523
asVParamys
p3524
(lp3525
Vdelicatus
p3526
asVIschyromys
p3527
(lp3528
Vtypus
p3529
assVSciuridae
p3530
(dp3531
VDremomys
p3532
(lp3533
Vrufigenis
p3534
asVHeliosciurus
p3535
(lp3536
Vrufobrachium
p3537
asVSpermophilus
p3538
(lp3539
Vsp.
p3540
asVHylopetes
p3541
(lp3542
Vspadiceus
p3543
asVTamiasciurus
p3544
(lp3545
Vdouglasii
p3546
asVGlaucomys
p3547
(lp3548
Vvolans
p3549
asVLariscus
p3550
(lp3551
Vinsignis
p3552
asVPetinomys
p3553
(lp3554
Vsetosus
p3555
asVProtoxerus
p3556
(lp3557
Vstangeri
p3558
asVParaxerus
p3559
(lp3560
Vcepapi
p3561
asVCallosciurus
p3562
(lp3563
Vsp
p3564
asVEutamias
p3565
(lp3566
Vminimus
p3567
asVPetaurista
p3568
(lp3569
Vpetaurista
p3570
asVFunisciurus
p3571
(lp3572
Vpyrropus
p3573
asVRatufa
p3574
(lp3575
Vaffinis
p3576
asVRhinosciurus
p3577
(lp3578
Vlaticaudatus
p3579
asVSciurus
p3580
(lp3581
Vcarolinensis
p3582
aVgranatensis
p3583
aVsp.
p3584
asVAeromys
p3585
(lp3586
Vtephromelas
p3587
assVCricetidae
p3588
(dp3589
VOtotylomys
p3590
(lp3591
Vphyllotis
p3592
asVNyctomys
p3593
(lp3594
Vsumichrasti
p3595
asVCopemys
p3596
(lp3597
Vlindsayi
p3598
asVPeromyscus
p3599
(lp3600
Vgossypinus
p3601
aVpulverulenus
p3602
aVleucopus
p3603
asVMyodes
p3604
(lp3605
Vgapperi
p3606
asVOchrotomys
p3607
(lp3608
Vnuttalli
p3609
asVOnychomys
p3610
(lp3611
Vtorridus
p3612
asVAlticola
p3613
(lp3614
Vargentatus
p3615
asVNeofiber
p3616
(lp3617
Valleni
p3618
asVBaiomys
p3619
(lp3620
Vtaylori
p3621
asVNeotoma
p3622
(lp3623
Valbigula
p3624
aVcinerea
p3625
aVfloridana
p3626
asVLemmus
p3627
(lp3628
Vtrimucronatus
p3629
asVNectomys
p3630
(lp3631
Vsquamipes
p3632
asVSynaptomys
p3633
(lp3634
Vcooperi
p3635
asVMesocricetus
p3636
(lp3637
Vauratus
p3638
asVPodomys
p3639
(lp3640
Vfloridanus
p3641
asVMicrotus
p3642
(lp3643
Vochrogaster
p3644
aVmontanus
p3645
aVpinetorum
p3646
asVHyperacrius
p3647
(lp3648
Vfertilis
p3649
asVReithrodontomys
p3650
(lp3651
Vhumulis
p3652
aVmegalotis
p3653
assVAplodontidae
p3654
(dp3655
VAplodontia
p3656
(lp3657
Vrufa
p3658
asVCedromus
p3659
(lp3660
Vwilsoni
p3661
assVUnidentified
p3662
(dp3663
VRodent
p3664
(lp3665
Vsp.
p3666
assVHeteromyidae
p3667
(dp3668
VChaetodipus
p3669
(lp3670
Vintermedius
p3671
asVDipodomys
p3672
(lp3673
Vordii
p3674
aVspectabilis
p3675
aVmerriami
p3676
asVHeteromys
p3677
(lp3678
Vdesmarestianus
p3679
assVErethizontidae
p3680
(dp3681
VCoendou
p3682
(lp3683
Vprehensilis
p3684
asVErethizon
p3685
(lp3686
Vdorsatum
p3687
assVNementchamyidae
p3688
(dp3689
VKabirmys
p3690
(lp3691
Vqarunensis
p3692
asssVNotoungulata
p3693
(dp3694
VInteratheriidae
p3695
(dp3696
VMiocochilius
p3697
(lp3698
Vanomopodus
p3699
asssVScandentia
p3700
(dp3701
VTupaiidae
p3702
(dp3703
VUrogale
p3704
(lp3705
Veveretti
p3706
asVTupaia
p3707
(lp3708
Vglis
p3709
aVminor
p3710
aVmontana
p3711
aVsp. (cf. glis)
p3712
aVbelangeri
p3713
aVsp.
p3714
aVtana
p3715
aVpalawanensis
p3716
asVDendrogale
p3717
(lp3718
Vminor
p3719
aVmelanura
p3720
aVmurina
p3721
assVPtilocercidae
p3722
(dp3723
VPtilocercus
p3724
(lp3725
Vlowii
p3726
asssVPilosa
p3727
(dp3728
VMegatheriidae
p3729
(dp3730
VEremotherium
p3731
(lp3732
Veomigrans
p3733
assVBradypodidae
p3734
(dp3735
VBradypus
p3736
(lp3737
Vvariegatus
p3738
aVtridactylus 
p3739
assVMegalonychidae
p3740
(dp3741
VAcratocnus
p3742
(lp3743
Vye
p3744
asVMegalonyx
p3745
(lp3746
Vjeffersoni
p3747
aVleptostomus
p3748
asVCholoepus
p3749
(lp3750
Vsp.
p3751
aVdidactylus 
p3752
aVhoffmanni
p3753
asVNeocnus
p3754
(lp3755
Vcomes
p3756
aVdousman
p3757
asVParocnus
p3758
(lp3759
Vserus
p3760
asssVHyracoidea
p3761
(dp3762
VPliohyracidae
p3763
(dp3764
VThyrohyrax
p3765
(lp3766
Vmeyeri
p3767
aVdomorictus
p3768
aVlitholagus
p3769
asVSaghatherium
p3770
(lp3771
Vbowni
p3772
aVantiquum
p3773
assVProcaviidae
p3774
(dp3775
VProcavia
p3776
(lp3777
Vtransvaalensis
p3778
aVantiqua
p3779
aVsp.
p3780
aVcapensis
p3781
asssVUnplaced
p3782
(dp3783
VPeradectidae
p3784
(dp3785
VMimoperadectes
p3786
(lp3787
Vlabrus
p3788
asVPeradectes
p3789
(lp3790
Vprotinnominatus
p3791
asssVMicrobiotheria
p3792
(dp3793
VMicrobiotheriidae
p3794
(dp3795
VDromiciops
p3796
(lp3797
Vgliroides
p3798
asssVCimolesta
p3799
(dp3800
VPalaeoryctidae
p3801
(dp3802
VDidelphodus
p3803
(lp3804
Vabsarokae
p3805
aVsp.
p3806
asVEoryctes
p3807
(lp3808
Vmelanus
p3809
asssVPaucituberculata
p3810
(dp3811
VCaenolestidae
p3812
(dp3813
VRhyncholestes
p3814
(lp3815
Vraphanurus
p3816
asVLestoros
p3817
(lp3818
Vinca
p3819
asVPalaeothentes
p3820
(lp3821
Vminutus
p3822
asssVPerissodactyla
p3823
(dp3824
VHyrachyidae
p3825
(dp3826
VHyrachyus
p3827
(lp3828
Vmodestus
p3829
assVEquidae
p3830
(dp3831
VAnchitherium
p3832
(lp3833
Vclarencei
p3834
asVNeohipparion
p3835
(lp3836
Veurystyle
p3837
aVtrampasense
p3838
asVNannippus
p3839
(lp3840
Vpeninsulatus
p3841
aVaztecus
p3842
asVDinohippus
p3843
(lp3844
Vmexicanus
p3845
asVArchaeohippus
p3846
(lp3847
Vblackbergi
p3848
asVMesohippus
p3849
(lp3850
Vbairdi
p3851
aVsp.
p3852
asVPropalaeotherium
p3853
(lp3854
Visselanum
p3855
asVParahippus
p3856
(lp3857
Vleonensis
p3858
aVbarbouri
p3859
asVEurygnathohippus
p3860
(lp3861
Vcornelianus
p3862
asVSifrhippus
p3863
(lp3864
Vsandrae
p3865
asVCalippus
p3866
(lp3867
Vcerasinus
p3868
aVelachistus
p3869
asVEquus
p3870
(lp3871
Vsimplicidens
p3872
assVPalaeotheriidae
p3873
(dp3874
VMetanchilophus
p3875
(lp3876
Vcastrensis
p3877
asVPalaeotherium
p3878
(lp3879
Vlautricense
p3880
aVcurtum
p3881
aVmagnum
p3882
aVsp.
p3883
asVPlagiolophus
p3884
(lp3885
Vannectens
p3886
aVminor
p3887
assVTapiridae
p3888
(dp3889
VTapirus
p3890
(lp3891
Vhaysii
p3892
aVlundeliusi
p3893
aVveroensis
p3894
assVRhinocerotidae
p3895
(dp3896
VDiceros
p3897
(lp3898
Vbicornis
p3899
asVCeratotherium
p3900
(lp3901
Vsimum
p3902
asVDiaceratherium
p3903
(lp3904
Vlamilloquense
p3905
asVStephanorhinus
p3906
(lp3907
Vetruscus
p3908
asVRhinoceros
p3909
(lp3910
Vunicornis
p3911
asVProsantorhinus
p3912
(lp3913
Vdouvillei
p3914
asVBrachypotherium
p3915
(lp3916
Vbrachypus
p3917
asVDicerorhinus
p3918
(lp3919
Vsumatrensis
p3920
asVMolassitherium
p3921
(lp3922
Valbigense
p3923
assVLophiodontidae
p3924
(dp3925
VLophiodon
p3926
(lp3927
Visselense
p3928
aVlautricense
p3929
asssVDiprotodontia
p3930
(dp3931
VPhascolarctidae
p3932
(dp3933
VPhascolarctos
p3934
(lp3935
Vcinereus
p3936
assVPotoroidae
p3937
(dp3938
VBettongia
p3939
(lp3940
Vtropica
p3941
asVAepyprymnus
p3942
(lp3943
Vrufescens
p3944
asVPotorous
p3945
(lp3946
Vtridactylus
p3947
assVPetauridae
p3948
(dp3949
VDactylopsila
p3950
(lp3951
Vtrivirgata
p3952
assVVombatidae
p3953
(dp3954
VLasiorhinus
p3955
(lp3956
Vlatifrons
p3957
aVkrefftii
p3958
asVVombatus
p3959
(lp3960
Vursinus
p3961
assVMacropodidae
p3962
(dp3963
VMacropus
p3964
(lp3965
Veugenii
p3966
aVrufus
p3967
asVDendrolagus
p3968
(lp3969
Vinustus
p3970
assVPhalangeridae
p3971
(dp3972
VTrichosurus
p3973
(lp3974
Vvulpecula
p3975
asssVArtiodactyla
p3976
(dp3977
VGiraffidae
p3978
(dp3979
VGiraffa
p3980
(lp3981
Vcamelopardalis 
p3982
assVBovidae
p3983
(dp3984
VAntidorcas
p3985
(lp3986
Vrecki
p3987
asVRedunca
p3988
(lp3989
Vsp.
p3990
assVMerycoidodontidae
p3991
(dp3992
VMiniochoerus
p3993
(lp3994
Vgracilis
p3995
assVAnthracotheriidae
p3996
(dp3997
VBothriogenys
p3998
(lp3999
Vfraasi
p4000
aVrugulosus
p4001
assVSuidae
p4002
(dp4003
VPhacochoerus
p4004
(lp4005
Vantiquus
p4006
asVConohyus
p4007
(lp4008
Vsp.
p4009
asVMetridiochoerus
p4010
(lp4011
Vandrewsi
p4012
aVsp.
p4013
asVListriodon
p4014
(lp4015
Vsp.
p4016
assVCervidae
p4017
(dp4018
VCervalces
p4019
(lp4020
Vscotti
p4021
assVOreodontidae
p4022
(dp4023
VMerycoidodon
p4024
(lp4025
Vculbertsoni
p4026
asssVAfrosoricida
p4027
(dp4028
VTenrecidae
p4029
(dp4030
VTenrec
p4031
(lp4032
Vecaudatus
p4033
asVSetifer
p4034
(lp4035
Vsetosus
p4036
asVPotamogale
p4037
(lp4038
Vvelox
p4039
asVHemicentetes
p4040
(lp4041
Vsemispinosus
p4042
asVEchinops
p4043
(lp4044
Vtelfairi
p4045
asssVDasyuromorphia
p4046
(dp4047
VDasyuridae
p4048
(dp4049
VDasyurus
p4050
(lp4051
Vviverrinus
p4052
asVPlanigale
p4053
(lp4054
Vingrami
p4055
asVAntechinus
p4056
(lp4057
Vflavipes
p4058
asssVCetacea
p4059
(dp4060
VDelphinidae
p4061
(dp4062
VGlobicephala
p4063
(lp4064
Vmacrorhynchus
p4065
asVSteno
p4066
(lp4067
Vbredanensis
p4068
asVOrcinus
p4069
(lp4070
Vorca
p4071
asVStenella
p4072
(lp4073
Vattenuata
p4074
assVBalaenopteridae
p4075
(dp4076
VBalaenoptera
p4077
(lp4078
Vbonaerensis
p4079
aVphysalus
p4080
asVMegaptera
p4081
(lp4082
Vnovaeangliae
p4083
assVPhyseteridae
p4084
(dp4085
VKogia
p4086
(lp4087
Vbreviceps
p4088
assVIniidae
p4089
(dp4090
VPontoporia
p4091
(lp4092
Vblainvillei
p4093
asssVPrimates
p4094
(dp4095
V
(dp4096
VCarlocebus
p4097
(lp4098
Vcarmenensis
p4099
asVAfradapis
p4100
(lp4101
Vlongicristatus
p4102
aVSpecies-new
p4103
asVKaranisia
p4104
(lp4105
Vclarki
p4106
aVarenula
p4107
asVEquatorius
p4108
(lp4109
Vafricanus
p4110
asVArsinoea
p4111
(lp4112
Vkallimos
p4113
asVMasradapis
p4114
(lp4115
Vtahai
p4116
asVPlesiopithecus
p4117
(lp4118
Vteras
p4119
assVAotidae
p4120
(dp4121
VAotus
p4122
(lp4123
Vazarae
p4124
aVnigriceps
p4125
aVinfulatus
p4126
aVtrivirgatus
p4127
aVlemurinus
p4128
aVsp.
p4129
assVPlesiadapidae
p4130
(dp4131
VPronothodectes
p4132
(lp4133
Vmatthewi
p4134
aVjepi
p4135
aVgaoi
p4136
asVPlatychoerops
p4137
(lp4138
Vdaubrei
p4139
aVantiquus
p4140
aVsp.
p4141
asVChiromyoides
p4142
(lp4143
Vsp.
p4144
aVcampanicus
p4145
asVPlesiadapis
p4146
(lp4147
Vcookei
p4148
aVrex
p4149
aVtricuspidens
p4150
aVfodinatus
p4151
aVchurchilli
p4152
aVpraecursor
p4153
aVanceps
p4154
aVdubius
p4155
aVsp.
p4156
asVNannodectes
p4157
(lp4158
Vgazini
p4159
aVintermedius
p4160
aVsimpsoni
p4161
aVgidleyi
p4162
assVOligopithecidae
p4163
(dp4164
VCatopithecus
p4165
(lp4166
Vbrowni
p4167
assVEosimiidae
p4168
(dp4169
VEosimias
p4170
(lp4171
Vsinensis
p4172
assVParomomyidae
p4173
(dp4174
VElwynella
p4175
(lp4176
Voreas
p4177
asVParomomys
p4178
(lp4179
Vdepressidens
p4180
aVmaturus
p4181
aVfarrandi
p4182
asVPhenacolemur
p4183
(lp4184
Varchus
p4185
aVcitatus
p4186
aVfortior
p4187
aVpraecox
p4188
aVsimonsi
p4189
aVwillwoodensis
p4190
aVpraecox-fortior
p4191
aVjepseni
p4192
aVpagei
p4193
asVAcidomomys
p4194
(lp4195
Vhebeticus
p4196
asVArcius
p4197
(lp4198
Vrougeri
p4199
aVlapparenti
p4200
aVfuscus
p4201
asVPalaechthon
p4202
(lp4203
Vproblematicus
p4204
asVIgnacius
p4205
(lp4206
Vgraybullianus
p4207
aVfrugivorus
p4208
aVclarkforkensis
p4209
aVfremontensis
p4210
asVEdworthia
p4211
(lp4212
Vlerbekmoi
p4213
assVCebidae
p4214
(dp4215
VCebupithecia
p4216
(lp4217
Vsarmientoi
p4218
asVCebus
p4219
(lp4220
Vapella
p4221
aVcapucinus
p4222
aVSp.
p4223
aVolivaceus
p4224
aValbifrons
p4225
asVNeosaimiri
p4226
(lp4227
Vfieldsi
p4228
asVPanamacebus
p4229
(lp4230
Vtransitus
p4231
asVHomunculus
p4232
(lp4233
Vtatacoensis
p4234
aVpatagonicus
p4235
asVTremacebus
p4236
(lp4237
Vharringtoni
p4238
asVCallimico
p4239
(lp4240
Vgoeldii
p4241
asVDolichocebus
p4242
(lp4243
Vgaimanensis
p4244
asVBranisella
p4245
(lp4246
Vboliviana
p4247
asVCallithrix
p4248
(lp4249
Vjacchus
p4250
aVpygmaea
p4251
aVsp.
p4252
aVargentata
p4253
aVhumeralifera
p4254
aVargentina
p4255
aVgeoffroyi
p4256
asVLeontopithecus
p4257
(lp4258
Vrosalia
p4259
asVSaimiri
p4260
(lp4261
Vboliviensis
p4262
aVsciureus
p4263
aVoerstedii
p4264
aVsanguinus
p4265
aVsaguinus
p4266
assVAdapidae
p4267
(dp4268
VMahgarita
p4269
(lp4270
Vstevensi
p4271
asVDonrussellia
p4272
(lp4273
Vprovincialis
p4274
asVAnchomomys
p4275
(lp4276
Vfrontanyensis
p4277
asVAdapoides
p4278
(lp4279
Vtroglodytes
p4280
asVCaenopithecus
p4281
(lp4282
Vlemuroides
p4283
asVAdapis
p4284
(lp4285
Vparisiensis
p4286
aVsp.
p4287
aVschlosseri
p4288
asVMicrochoerus
p4289
(lp4290
Verinaceus
p4291
asVNotharctus
p4292
(lp4293
Vventicolus
p4294
asVLeptadapis
p4295
(lp4296
Vmagnus
p4297
aVleenhardti
p4298
assVArchaeolemuridae
p4299
(dp4300
VHadropithecus
p4301
(lp4302
Vspp.
p4303
aVstenognathus
p4304
asVArchaeolemur
p4305
(lp4306
Vcf. edwardsi
p4307
aVsp.
p4308
aVmajori
p4309
assVCheirogaleidae
p4310
(dp4311
VMicrocebus
p4312
(lp4313
Vmurinus
p4314
aVcoquereli
p4315
aVgriseorufus
p4316
aVrufus
p4317
aVsp.
p4318
asVPhaner
p4319
(lp4320
Vfurcifer
p4321
asVMirza
p4322
(lp4323
Vcoquereli
p4324
aVzaza
p4325
asVCheirogaleus
p4326
(lp4327
Vmajor
p4328
aVmedius
p4329
aVsp.
p4330
assVCallitrichidae
p4331
(dp4332
VCebuella
p4333
(lp4334
Vpygmaea
p4335
asVSaguinus
p4336
(lp4337
Vmidas
p4338
aVmystax
p4339
aVoedipus
p4340
aVsp.
p4341
aVfuscicollis
p4342
assVPalaechthonidae
p4343
(dp4344
VPremnoides
p4345
(lp4346
Vdouglassi
p4347
assVSaxonellidae
p4348
(dp4349
VSaxonella
p4350
(lp4351
Vnaylori
p4352
aVcrepaturae
p4353
assVIndridae
p4354
(dp4355
VAvahi
p4356
(lp4357
Vlaniger
p4358
asVIndri
p4359
(lp4360
Vindri
p4361
asVPropithecus
p4362
(lp4363
Vdiadema
p4364
aVverreauxi
p4365
aVcoquereli
p4366
aVsp.
p4367
assVProteopithecidae
p4368
(dp4369
VSerapia
p4370
(lp4371
Veocaena
p4372
asVProteopithecus
p4373
(lp4374
Vsylviae
p4375
assVPitheciinae
p4376
(dp4377
VPithecia
p4378
(lp4379
Vmonachus
p4380
aVpithecia
p4381
aVhirsuta
p4382
assVCarpolestidae
p4383
(dp4384
VElphidotarsius
p4385
(lp4386
Vrusselli
p4387
aVcf. florencae
p4388
aVsp.
p4389
asVCarpolestes
p4390
(lp4391
Vsimpsoni
p4392
aVnigridens
p4393
aVdubius
p4394
aVhazelae
p4395
assVPurgatoriidae
p4396
(dp4397
VPurgatorius
p4398
(lp4399
Vsp.
p4400
aVcoracis
p4401
aVjanisae
p4402
assVPitheciidae
p4403
(dp4404
VCacajao
p4405
(lp4406
Vcalvus
p4407
aVmelanocephalus
p4408
aVsp.
p4409
asVChiropotes
p4410
(lp4411
Valbinasus
p4412
aVsatanas
p4413
aVsp.
p4414
aVchiropotes
p4415
asVCallicebus
p4416
(lp4417
Vsp.
p4418
assVTarsiidae
p4419
(dp4420
VTarsius
p4421
(lp4422
Vbancanus
p4423
aVborneanus
p4424
aVspectrum
p4425
aVsyricta
p4426
aVtarsier
p4427
aVsyrichta
p4428
aVsp.
p4429
asVCarlito
p4430
(lp4431
Vsyrichta
p4432
asVCephalopachus
p4433
(lp4434
Vbancanus
p4435
assVAtelidae
p4436
(dp4437
VAlouatta
p4438
(lp4439
Vpalliata
p4440
aVseniculus
p4441
aVcaraya
p4442
aVsp.
p4443
aVpaliatta
p4444
asVBrachyteles
p4445
(lp4446
Varachnoides
p4447
asVStirtonia
p4448
(lp4449
Vtatacoensis
p4450
aVvictoriae
p4451
asVAteles
p4452
(lp4453
Vbelzebuth
p4454
aVgeoffroyi
p4455
aVpaniscus
p4456
aVsp.
p4457
aVfusciceps
p4458
aVmarginatus
p4459
asVLagothrix
p4460
(lp4461
Vsp
p4462
aVlagotricha
p4463
aVlugens
p4464
aVlagothricha
p4465
assVNotharctidae
p4466
(dp4467
VAsiadapis
p4468
(lp4469
Vcambayensis
p4470
aVtapiensis
p4471
asVCantius
p4472
(lp4473
Vralstoni
p4474
aVtrigonodus
p4475
aVmckennai
p4476
aVfrugivorus
p4477
aVabditus
p4478
aVtorresi
p4479
aVnuniensis
p4480
aVfrugivorous
p4481
aVsp.
p4482
asVMarcgodinotius
p4483
(lp4484
Vindicus
p4485
asVNotharctus
p4486
(lp4487
Vsp.
p4488
aVtenebrosus
p4489
aVpugnax
p4490
aVrobustior
p4491
asVSmilodectes
p4492
(lp4493
Vsp.
p4494
aVgracilis
p4495
aVmcgrewi
p4496
assVAzibiidae
p4497
(dp4498
VAzibius
p4499
(lp4500
Vtrerki
p4501
aVsp
p4502
assVDendropithecidae
p4503
(dp4504
VMicropithecus
p4505
(lp4506
Vleakeyorum
p4507
assVParapithecidae
p4508
(dp4509
VParapithecus
p4510
(lp4511
Vgrangeri
p4512
aVfraasi
p4513
asVApidium
p4514
(lp4515
Vphiomense
p4516
aVsp.
p4517
aVbowni
p4518
aVmoustafi
p4519
aVmoustafai
p4520
asVQatrania
p4521
(lp4522
Vsp.
p4523
aVwingi
p4524
aVfleaglei
p4525
assVMicrosyopidae
p4526
(dp4527
VMicrosyops
p4528
(lp4529
Vscottianus
p4530
asVNiptomomys
p4531
(lp4532
Vdoreenae
p4533
assVOmomyidae
p4534
(dp4535
VRooneyia
p4536
(lp4537
Vviejaensis
p4538
asVWashakius
p4539
(lp4540
Vinsignis
p4541
aVizetti
p4542
asVTeilhardina
p4543
(lp4544
Vamericana
p4545
aVbelgica
p4546
aVbrandti
p4547
aVsp.
p4548
asVHemiacodon
p4549
(lp4550
Vgracilis
p4551
asVArapahovius
p4552
(lp4553
Vgazini
p4554
asVAbsarokius
p4555
(lp4556
Vsp.
p4557
aVabbotti
p4558
asVShoshonius
p4559
(lp4560
Vcooperi
p4561
asVOurayia
p4562
(lp4563
Vuintensis
p4564
asVNecrolemur
p4565
(lp4566
Vantiquus
p4567
aVzitteli
p4568
aVsp.
p4569
asVTetonius
p4570
(lp4571
Vhomunculus
p4572
aVmatthewi
p4573
asVAnemorhysis
p4574
(lp4575
Vpearcei
p4576
asVVastanomys
p4577
(lp4578
Vgracilis
p4579
aVmajor
p4580
aVsp.
p4581
assVGalagidae
p4582
(dp4583
VWadilemur
p4584
(lp4585
Velegans
p4586
asVOtolemur
p4587
(lp4588
Vcrassicaudatus
p4589
aVgarnetti
p4590
aVgarnettii
p4591
asVGalago
p4592
(lp4593
Vsenegalensis
p4594
aValleni
p4595
aVdemidovii
p4596
aVmoholi
p4597
aVzanzibaricus
p4598
aVdemidoff
p4599
asVEuoticus
p4600
(lp4601
Velegantulus
p4602
asVSaharagalago
p4603
(lp4604
Vmisrensis
p4605
assVPliopithecidae
p4606
(dp4607
VAegyptopithecus
p4608
(lp4609
Vzeuxis
p4610
asVOligopithecus
p4611
(lp4612
Vsavagei
p4613
asVPropliopithecus
p4614
(lp4615
Vchirobates
p4616
aV(?)
p4617
aV(sp?)
p4618
aVcheirorates
p4619
aVsp.
p4620
aVankeli
p4621
assVHomunculidae
p4622
(dp4623
VMazzonicebus
p4624
(lp4625
V almendrae
p4626
asVSoriacebus
p4627
(lp4628
Vameghinorum
p4629
assVLemuridae
p4630
(dp4631
VPachylemur
p4632
(lp4633
Vinsignis
p4634
asVLemur
p4635
(lp4636
Vcatta
p4637
aVsp.
p4638
asVProlemur
p4639
(lp4640
Vsimus
p4641
asVHapalemur
p4642
(lp4643
Vgiseus
p4644
aVgriseus
p4645
aVsimus
p4646
asVVarecia
p4647
(lp4648
Vvariegata
p4649
asVEulemur
p4650
(lp4651
Vfulvus
p4652
aVsp.
p4653
aVcoronatus
p4654
aVmacaco
p4655
aVsanfordi
p4656
aVrubriventer
p4657
assVDjebelemuridae
p4658
(dp4659
VDjebelemur
p4660
(lp4661
Vmartinezi
p4662
assVAfrotarsiidae
p4663
(dp4664
VAfrotarsius
p4665
(lp4666
Vchatrathi
p4667
assVDaubentoniidae
p4668
(dp4669
VDaubentonia
p4670
(lp4671
Vmadagascariensis
p4672
aVrobusta
p4673
assVProconsulidae
p4674
(dp4675
VAfropithecus
p4676
(lp4677
Vincertae sedis
p4678
aVturkanensis
p4679
asVNyanzapithecus
p4680
(lp4681
Vincertae sedis
p4682
aVpickfordi
p4683
aVvancouveringorum
p4684
assVLoridae
p4685
(dp4686
VPerodicticus
p4687
(lp4688
Vpotto
p4689
asVNycticebus
p4690
(lp4691
Vcoucang
p4692
aVpygmaeus
p4693
asVGalagoides
p4694
(lp4695
Vdemidovii
p4696
asVArctocebus
p4697
(lp4698
Vcalabarensis
p4699
asVLoris
p4700
(lp4701
Vtardigradus
p4702
aVlydekkerianus
p4703
assVMicromomyidae
p4704
(dp4705
VDryomomys
p4706
(lp4707
Vszalayi
p4708
assVHylobatidae
p4709
(dp4710
VBunopithecus
p4711
(lp4712
Vhoolock
p4713
asVHoolock
p4714
(lp4715
Vhoolock
p4716
asVHylobates
p4717
(lp4718
Vlar
p4719
aVsp.
p4720
aVagilis
p4721
aVleucogenys
p4722
aVsyndactylus
p4723
asVSymphalangus
p4724
(lp4725
Vsyndactylus
p4726
assVMegaladapidae
p4727
(dp4728
VMegaladapis
p4729
(lp4730
Vmadagascariensis
p4731
aVcf. madagascariensis
p4732
asVLepilemur
p4733
(lp4734
Vmustelinus
p4735
aVsp.
p4736
assVHominidae
p4737
(dp4738
VSivapithecus
p4739
(lp4740
Vindicus
p4741
aVsp.
p4742
asVLimnopithecus
p4743
(lp4744
VLegetet
p4745
aVevansi
p4746
asVPongo
p4747
(lp4748
Vpygmaeus
p4749
asVGorilla
p4750
(lp4751
Vgorilla
p4752
asVAustralopithecus
p4753
(lp4754
Vafarensis
p4755
aVboisei
p4756
aVafricanus
p4757
aVsediba
p4758
asVHomo
p4759
(lp4760
Vsapiens
p4761
aVhabilis
p4762
aVneanderthalensis
p4763
aVheidelbergensis
p4764
aVerectus
p4765
aVnaledi
p4766
asVProconsul
p4767
(lp4768
Vafricanus
p4769
aVmajor
p4770
aVnyanzae
p4771
aVheseloni
p4772
aVincertae sedis
p4773
asVPan
p4774
(lp4775
Vtroglodytes
p4776
aVpaniscus
p4777
assVCercopithecidae
p4778
(dp4779
VParapapio
p4780
(lp4781
Vjonesi
p4782
aVbroomi
p4783
asVTrachypithecus
p4784
(lp4785
Vcristata
p4786
aVobscura
p4787
aVsp.
p4788
aVobscurus
p4789
asVNasalis
p4790
(lp4791
Vlarvatus
p4792
aVconcolor
p4793
asVPapio
p4794
(lp4795
Vursinus
p4796
aVsp.
p4797
aVdoguera
p4798
aVanubis
p4799
aVangusticeps
p4800
aVhamadryas
p4801
aVizodi
p4802
aVingens
p4803
aVcynocephalus
p4804
asVChlorocebus
p4805
(lp4806
Vaethiops
p4807
aVcynosuros
p4808
aVpygerythrus
p4809
aVtantalus
p4810
asVAllenopithecus
p4811
(lp4812
Vnigroviridis
p4813
asVLophocebus
p4814
(lp4815
Valbigena
p4816
aVgaleritus
p4817
aVaterrimus
p4818
asVCercopithecus
p4819
(lp4820
Vmitis
p4821
aVmona
p4822
aVneglectus
p4823
aVnictitans
p4824
aValbogularis
p4825
aVdiana
p4826
aVsp.
p4827
aVdenti
p4828
aVcephus
p4829
aVpogonias
p4830
aVascanius
p4831
aVlowei
p4832
asVDinopithecus
p4833
(lp4834
Vingens
p4835
asVSemnopithecus
p4836
(lp4837
Ventellus
p4838
asVMandrillus
p4839
(lp4840
Vleucophaeus
p4841
aVsphinx
p4842
asVColobus
p4843
(lp4844
Vguereza
p4845
aVbadius
p4846
aVpolykomos
p4847
aVangolensis
p4848
asVMiopithecus
p4849
(lp4850
Vtalapoin
p4851
aVogouensis
p4852
asVPygathrix
p4853
(lp4854
Vnemaeus
p4855
aVneameus
p4856
aVroxellana
p4857
asVGorgopithecus
p4858
(lp4859
Vmajor
p4860
asVProcolobus
p4861
(lp4862
Vbadius
p4863
aVverus
p4864
asVPresbytis
p4865
(lp4866
Vmelalophos
p4867
aVobscurus
p4868
aVrubicunda
p4869
aVhosei
p4870
aVfrontata
p4871
aVphayrei
p4872
aVcristata
p4873
aVpotenziani
p4874
aVfemoralis
p4875
asVRhinopithecus
p4876
(lp4877
Vroxellana
p4878
asVTheropithecus
p4879
(lp4880
Vgelada
p4881
aVoswaldi
p4882
asVCercopithecoides
p4883
(lp4884
Vwilliamsi
p4885
aVcoronatus
p4886
asVCercocebus
p4887
(lp4888
Vatys
p4889
aVtorquatus
p4890
aVsp.
p4891
aValbigena
p4892
aVgaleritus
p4893
asVMacaca
p4894
(lp4895
Vnigra
p4896
aVfascicularis
p4897
aVfuscata
p4898
aVmulatta
p4899
aVsylvanus
p4900
aVnemestrina
p4901
aVsp.
p4902
aVarctoides
p4903
aVthibetana
p4904
aVbrunnescens
p4905
aVassamensis
p4906
aVmaura
p4907
aVsinica
p4908
aVtonkeana
p4909
aVradiata
p4910
aVcyclopis
p4911
asVErythrocebus
p4912
(lp4913
Vpatas
p4914
asssVCingulata
p4915
(dp4916
VDasypodidae
p4917
(dp4918
VCabassous
p4919
(lp4920
Vcentralis
p4921
aVunicinctus
p4922
asVZaedyus
p4923
(lp4924
Vpichiy
p4925
asVChaetophractus
p4926
(lp4927
Vvillosus
p4928
aVnationi
p4929
aVvellerosus
p4930
asVDasypus
p4931
(lp4932
Vbellus
p4933
aVhybridus
p4934
aVnovemcinctus
p4935
aVsp.
p4936
aVsabanicola
p4937
asVEuphractus
p4938
(lp4939
Vsexcinctus
p4940
asVTolypeutes
p4941
(lp4942
Vmatacus
p4943
assVPampatheriidae
p4944
(dp4945
VHolmesina
p4946
(lp4947
Vseptentrionalis
p4948
aVfloridanus
p4949
asssVSoricomorpha
p4950
(dp4951
VSolenodontidae
p4952
(dp4953
VSolenodon
p4954
(lp4955
Vparadoxus
p4956
assVSoricidae
p4957
(dp4958
VCrocidura
p4959
(lp4960
Volivieri
p4961
asVSuncus
p4962
(lp4963
Vmurinus
p4964
assVTalpidae
p4965
(dp4966
VDesmana
p4967
(lp4968
Vmoschata
p4969
assVGeolabididae
p4970
(dp4971
VCentetodon
p4972
(lp4973
Vneashami
p4974
asssVFerae
p4975
(dp4976
sVPantolesta
p4977
(dp4978
VPantolestidae
p4979
(dp4980
VPalaeosinopa
p4981
(lp4982
Vincerta
p4983
aVveterrima
p4984
assVPentacodontidae
p4985
(dp4986
VAphronorus
p4987
(lp4988
Vorieli
p4989
asssVSirenia
p4990
(dp4991
VProtosirenidae
p4992
(dp4993
VProtosiren
p4994
(lp4995
V(sp?)
p4996
asssVMacroscelidea
p4997
(dp4998
VAmphilemuridae
p4999
(dp5000
VMacrocranion
p5001
(lp5002
Vjunnei
p5003
aVnitens
p5004
asVProterixoides
p5005
(lp5006
Vdavisi
p5007
assVMacroscelididae
p5008
(dp5009
VMacroscelides
p5010
(lp5011
Vproboscideus
p5012
asVPetrodromus
p5013
(lp5014
Vtetradactylus
p5015
asssVMultituberculata
p5016
(dp5017
VNeoplagiaulacidae
p5018
(dp5019
VEctypodus
p5020
(lp5021
Vtardus
p5022
assVPtilodontidae
p5023
(dp5024
VPtilodus
p5025
(lp5026
Vkummae
p5027
asssVCreodonta
p5028
(dp5029
VHyaenodontidae
p5030
(dp5031
VMasrasector
p5032
(lp5033
Vnananubis
p5034
asssVDermoptera
p5035
(dp5036
VCynocephalidae
p5037
(dp5038
VGaleopterus
p5039
(lp5040
Vvariegatus
p5041
asVCynocephalus
p5042
(lp5043
Vvariegatus
p5044
aVvolans
p5045
asssVLipotyphla
p5046
(dp5047
sVHyaenodonta
p5048
(dp5049
V
(dp5050
VBrychotherium
p5051
(lp5052
Vephalmos
p5053
assVHyainailouridae
p5054
(dp5055
VAkhnatenavus
p5056
(lp5057
Vnefertiticyon
p5058
asssVCarnivora
p5059
(dp5060
VHerpestidae
p5061
(dp5062
VAtilax
p5063
(lp5064
Vmesotes
p5065
assVAiluridae
p5066
(dp5067
VPristinailurus
p5068
(lp5069
Vbristoli
p5070
assVFelidae
p5071
(dp5072
VFelis
p5073
(lp5074
Vcatus
p5075
asVMegantereon
p5076
(lp5077
Vwhitei
p5078
asVPuma
p5079
(lp5080
Vconcolor
p5081
asVLeopardus
p5082
(lp5083
Vpardalis
p5084
asVDinofelis
p5085
(lp5086
Vbarlowi
p5087
aVpiveteaui
p5088
asVPanthera
p5089
(lp5090
Vleo
p5091
aVpardus
p5092
asVSmilodon
p5093
(lp5094
Vfatalis
p5095
asVHomotherium
p5096
(lp5097
Vserum
p5098
asVLynx
p5099
(lp5100
Vrufus
p5101
asVAcinonyx
p5102
(lp5103
Vjubatus
p5104
asVNeofelis
p5105
(lp5106
Vnebulosa
p5107
assVCanidae
p5108
(dp5109
VHesperocyon
p5110
(lp5111
Vgregarius
p5112
asVSpeothos
p5113
(lp5114
Vvenaticus
p5115
asVSimocyon
p5116
(lp5117
Vprimigenius
p5118
asVCanis
p5119
(lp5120
Vbrevirostris
p5121
aVmesomelas
p5122
aVsp.
p5123
aVlupus
p5124
aVlatrans
p5125
aVdirus
p5126
asVVulpes
p5127
(lp5128
Vvulpes
p5129
aVpulcher
p5130
aVpattisoni
p5131
asVMetatomarctus
p5132
(lp5133
Vcanavus
p5134
assVMustelidae
p5135
(dp5136
VEnhydra
p5137
(lp5138
Vlutris
p5139
asVAonyx
p5140
(lp5141
Vcapensis
p5142
aVcinerea
p5143
asVSiamogale
p5144
(lp5145
Vmelilutra
p5146
asVLutrogale
p5147
(lp5148
Vperspicillata
p5149
asVLontra
p5150
(lp5151
Vcanadensis
p5152
aVfelina
p5153
aVlongicaudis
p5154
asVLutra
p5155
(lp5156
Vlutra
p5157
asVHydrictis
p5158
(lp5159
Vmaculicollis
p5160
asVPteronura
p5161
(lp5162
Vbrasiliensis
p5163
assVViverridae
p5164
(dp5165
VParahyaena
p5166
(lp5167
Vbrunnea
p5168
asVArctictis
p5169
(lp5170
Vbinturong
p5171
asVViverra
p5172
(lp5173
Vtangalunga
p5174
assVUrsidae
p5175
(dp5176
VKolponomos
p5177
(lp5178
Vnewportensis
p5179
asVUrsus
p5180
(lp5181
Vamericanus
p5182
aVarctos
p5183
asVArctodus
p5184
(lp5185
Vsimus
p5186
assVProcyonidae
p5187
(dp5188
VPotos
p5189
(lp5190
Vflavus
p5191
asVNasua
p5192
(lp5193
Vnarica
p5194
aVsp.
p5195
asVParailurus
p5196
(lp5197
Vanglicus
p5198
aVhungaricus
p5199
aVsp
p5200
assVNimravidae
p5201
(dp5202
VDinictis
p5203
(lp5204
Vsqualidens
p5205
assVHyaenidae
p5206
(dp5207
VCrocuta
p5208
(lp5209
Vcrocuta
p5210
asVHyaena
p5211
(lp5212
Vhyaena
p5213
aVsp.
p5214
asVPachycrocuta
p5215
(lp5216
Vbrevirostris
p5217
asVChasmaporthetes
p5218
(lp5219
Vnitidula
p5220
aVsilberbergi
p5221
asVLycyaenops
p5222
(lp5223
Vsilberbergi
p5224
asssVApatotheria
p5225
(dp5226
sVEdentata;cingulata
p5227
(dp5228
sVEulipotyphla
p5229
(dp5230
VNyctitheriidae
p5231
(dp5232
VPlagioctenodon
p5233
(lp5234
Vsavagei
p5235
aVkrausae
p5236
asVPlagioctenoides
p5237
(lp5238
Vmicrolestes
p5239
aVsp.
p5240
asssVChiroptera
p5241
(dp5242
VPteropodidae
p5243
(dp5244
VEonycteris
p5245
(lp5246
Vrobusta
p5247
aVspelaea
p5248
asVHarpyionycteris
p5249
(lp5250
Vwhiteheadi
p5251
aVcelebensis
p5252
asVMacroglossus
p5253
(lp5254
Vminimus
p5255
aVsobrinus
p5256
asVEidolon
p5257
(lp5258
Vhelvum
p5259
asVMegaerops
p5260
(lp5261
Vecaudatus
p5262
aVniphanae
p5263
asVAcerodon
p5264
(lp5265
Vjubatus
p5266
aVcelebensis
p5267
asVPteropus
p5268
(lp5269
Vvampyrus
p5270
aVhypomelanus
p5271
aVpumilus
p5272
aVadmiralitatum
p5273
aValecto
p5274
aVcapistratus
p5275
aVconspicillatus
p5276
aVlivingstonii
p5277
aVpoliocephalus
p5278
aVsamoensis
p5279
aVscapulatus
p5280
aVtonganus
p5281
aVmolossinus
p5282
aVrufus
p5283
aVlylei
p5284
aVornatus
p5285
aVneohibernicus
p5286
aVmariannus
p5287
aVanetianus
p5288
asVOtopteropus
p5289
(lp5290
Vcartilagonodus
p5291
asVNyctimene
p5292
(lp5293
Vaello
p5294
aValbiventer
p5295
aVcephalotes
p5296
aVmajor
p5297
aVrobinsoni
p5298
aVvizcaccia
p5299
aVcertans
p5300
asVMyonycteris
p5301
(lp5302
Vtorquata
p5303
asVPtenochirus
p5304
(lp5305
Vjagori
p5306
aVminor
p5307
asVPenthetor
p5308
(lp5309
Vlucasi
p5310
asVHaplonycteris
p5311
(lp5312
Vfischeri
p5313
asVRousettus
p5314
(lp5315
Vaegyptiacus
p5316
aVamplexicaudatus
p5317
aVleschenaultii
p5318
asVParanyctimene
p5319
(lp5320
Vraptor
p5321
asVBalionycteris
p5322
(lp5323
Vmaculata
p5324
asVNanonycteris
p5325
(lp5326
Vveldkampii
p5327
asVMegaloglossus
p5328
(lp5329
Vwoermanni
p5330
asVScotonycteris
p5331
(lp5332
Vzenkeri
p5333
asVHypsignathus
p5334
(lp5335
Vmonstrosus
p5336
asVEpomophorus
p5337
(lp5338
Vgambianus
p5339
aVlabiatus
p5340
aVminor
p5341
aVwahlbergi
p5342
asVAethalops
p5343
(lp5344
Valecto
p5345
asVEpomops
p5346
(lp5347
Vfranqueti
p5348
asVCynopterus
p5349
(lp5350
Vhorsfieldii
p5351
aVbrachyotis
p5352
aVsphinx
p5353
aVtitthaecheilus
p5354
asVSphaerias
p5355
(lp5356
Vblanfordi
p5357
asVThoopterus
p5358
(lp5359
Vnigrescens
p5360
asVDobsonia
p5361
(lp5362
Vminor
p5363
aVpannietensis
p5364
assVIcaronycteridae
p5365
(dp5366
VIcaronycteris
p5367
(lp5368
Vindex
p5369
assVPhyllostomatidae
p5370
(dp5371
VPlatalina
p5372
(lp5373
Vgenovensium
p5374
assVThyropteridae
p5375
(dp5376
VThyroptera
p5377
(lp5378
Vtricolor
p5379
assVNatalidae
p5380
(dp5381
VNatalus
p5382
(lp5383
Vstramineus
p5384
aVjamaicensis
p5385
aVtumidirostris
p5386
aVlepidus
p5387
asVChilonatalus
p5388
(lp5389
Vmicropus
p5390
assVEmballonuridae
p5391
(dp5392
VDiclidurus
p5393
(lp5394
Valbus
p5395
asVSaccolaimus
p5396
(lp5397
Vsaccolaimus
p5398
asVTaphozous
p5399
(lp5400
Vphilippinensis
p5401
aVlongimanus
p5402
aVmauritianus
p5403
aVnudiventris
p5404
asVPeropteryx
p5405
(lp5406
Vkappleri
p5407
aVmacrotis
p5408
asVCentronycteris
p5409
(lp5410
Vmaximiliani
p5411
asVEmballonura
p5412
(lp5413
Valecto
p5414
aVraffrayana
p5415
aVsemicaudata
p5416
asVBalantiopteryx
p5417
(lp5418
Vio
p5419
aVplicata
p5420
asVSaccopteryx
p5421
(lp5422
Vcanescens
p5423
assVMormoopidae
p5424
(dp5425
VPteronotus
p5426
(lp5427
Vdavyi
p5428
aVgymnonotus
p5429
aVparnellii
p5430
aVpersonatus
p5431
aVmacleayii
p5432
asVMormoops
p5433
(lp5434
Vmegalophylla
p5435
aVblainvillii
p5436
assVPhyllostomidae
p5437
(dp5438
VMonophyllus
p5439
(lp5440
Vredmani
p5441
asVLophostoma
p5442
(lp5443
Vbrasiliense
p5444
aVcarrikeri
p5445
aVschulzi
p5446
aVsilvicolum
p5447
asVPhyllops
p5448
(lp5449
Vfalcatus
p5450
asVChoeroniscus
p5451
(lp5452
Vgodmani
p5453
aVminor
p5454
asVMacrophyllum
p5455
(lp5456
Vmacrophyllum
p5457
asVChiroderma
p5458
(lp5459
Vsalvini
p5460
aVtrinitatum
p5461
aVvillosum
p5462
asVErophylla
p5463
(lp5464
Vsezekorni
p5465
asVTonatia
p5466
(lp5467
Vsaurophila
p5468
asVPhyllostomus
p5469
(lp5470
Vdiscolor
p5471
aVelongatus
p5472
aVhastatus
p5473
asVVampyriscus
p5474
(lp5475
Vnymphaea
p5476
aVbrocki
p5477
asVHsunycteris
p5478
(lp5479
Vthomasi
p5480
asVPlatyrrhinus
p5481
(lp5482
Vbrachycephalus
p5483
aVdorsalis
p5484
aVhelleri
p5485
aVinfuscus
p5486
aVlineatus
p5487
aVvittatus
p5488
asVUroderma
p5489
(lp5490
Vbilobatum
p5491
aVmagnirostrum
p5492
asVCarollia
p5493
(lp5494
Vbrevicauda
p5495
aVcastanea
p5496
aVperspicillata
p5497
aVsubrufa
p5498
asVMesophylla
p5499
(lp5500
Vmacconnelli
p5501
asVVampyrodes
p5502
(lp5503
Vcaraccioli
p5504
asVAmetrida
p5505
(lp5506
Vcenturio
p5507
asVLionycteris
p5508
(lp5509
Vspurrelli
p5510
asVSturnira
p5511
(lp5512
Vlilium
p5513
aVludovici
p5514
aVmagna
p5515
aVmordax
p5516
aVoporaphilum
p5517
aVbidens
p5518
aVnana
p5519
aVtildae
p5520
aVbogotensis
p5521
asVRhinophylla
p5522
(lp5523
Vpumilio
p5524
aVfischerae
p5525
asVCenturio
p5526
(lp5527
Vsenex
p5528
asVSphaeronycteris
p5529
(lp5530
Vtoxophyllum
p5531
asVDesmodus
p5532
(lp5533
Vrotundus
p5534
asVPygoderma
p5535
(lp5536
Vbilabiatum
p5537
asVMimon
p5538
(lp5539
Vcozumelae
p5540
aVcrenulatum
p5541
asVDiphylla
p5542
(lp5543
Vecaudata
p5544
asVStenoderma
p5545
(lp5546
Vrufum
p5547
asVMusonycteris
p5548
(lp5549
Vharrisoni
p5550
asVLonchorhina
p5551
(lp5552
Vaurita
p5553
asVPhylloderma
p5554
(lp5555
Vstenops
p5556
asVLeptonycteris
p5557
(lp5558
Vyerbabuenae
p5559
aVcurasoae
p5560
asVPhyllonycteris
p5561
(lp5562
Vaphylla
p5563
aVpoeyi
p5564
asVAnoura
p5565
(lp5566
Vcaudifer
p5567
aVgeoffroyi
p5568
aVcultrata
p5569
aVlatidens
p5570
asVChoeronycteris
p5571
(lp5572
Vmexicana
p5573
asVChrotopterus
p5574
(lp5575
Vauritus
p5576
asVArtibeus
p5577
(lp5578
Vfimbriatus
p5579
aVhirsutus
p5580
aVjamaicensis
p5581
aVlituratus
p5582
aVplanirostris
p5583
aVconcolor
p5584
aVfraterculus
p5585
aVintermedius
p5586
aVobscurus
p5587
asVGlossophaga
p5588
(lp5589
Vcommissarisi
p5590
aVsoricina
p5591
aVleachii
p5592
aVlongirostris
p5593
aVmorenoi
p5594
asVLichonycteris
p5595
(lp5596
Vobscura
p5597
asVTrachops
p5598
(lp5599
Vcirrhosus
p5600
asVVampyressa
p5601
(lp5602
Vpusilla
p5603
aVmelissa
p5604
asVGlyphonycteris
p5605
(lp5606
Vsylvestris
p5607
asVDiaemus
p5608
(lp5609
Vyoungi
p5610
asVBrachyphylla
p5611
(lp5612
Vcavernarum
p5613
aVnana
p5614
asVAriteus
p5615
(lp5616
Vflavescens
p5617
asVMicronycteris
p5618
(lp5619
Vhirsuta
p5620
aVmegalotis
p5621
aVminuta
p5622
aVbrosseti
p5623
aVmatses
p5624
aVmicrotis
p5625
aVschmidtorum
p5626
asVMacrotus
p5627
(lp5628
Vwaterhousii
p5629
aVcalifornicus
p5630
asVHylonycteris
p5631
(lp5632
Vunderwoodi
p5633
asVLonchophylla
p5634
(lp5635
Vrobusta
p5636
aVhandleyi
p5637
aVmordax
p5638
asVDermanura
p5639
(lp5640
Vanderseni
p5641
aVazteca
p5642
aVphaeotis
p5643
aVtolteca
p5644
asVArdops
p5645
(lp5646
Vnichollsi
p5647
assVVespertilionidae
p5648
(dp5649
VPipistrellus
p5650
(lp5651
Vcoromandra
p5652
aVhesperidus
p5653
aVjavanicus
p5654
aVnathusii
p5655
aVtenuis
p5656
asVCorynorhinus
p5657
(lp5658
Vmexicanus
p5659
aVrafinesquii
p5660
aVtownsendii
p5661
asVMiniopterus
p5662
(lp5663
Vschreibersii
p5664
aVaustralis
p5665
aVpusillus
p5666
aVtristis
p5667
asVNyctalus
p5668
(lp5669
Vleisleri
p5670
aVnoctula
p5671
asVHypsugo
p5672
(lp5673
Vsavii
p5674
asVAntrozous
p5675
(lp5676
Vpallidus
p5677
asVMurina
p5678
(lp5679
Vaurata
p5680
aVcyclotis
p5681
aVhuttonii
p5682
asVLasionycteris
p5683
(lp5684
Vnoctivagans
p5685
asVPlecotus
p5686
(lp5687
Vauritus
p5688
asVIdionycteris
p5689
(lp5690
Vphyllotis
p5691
asVKerivoula
p5692
(lp5693
Vpellucida
p5694
asVScotophilus
p5695
(lp5696
Vheathii
p5697
aVkuhlii
p5698
asVEptesicus
p5699
(lp5700
Vandinus
p5701
aVbrasiliensis
p5702
aVdiminutus
p5703
aVfurinalis
p5704
aVfuscus
p5705
asVMyotis
p5706
(lp5707
Valbescens
p5708
aVauriculus
p5709
aVaustroriparius
p5710
aVcalifornicus
p5711
aVchiloensis
p5712
aVciliolabrum
p5713
aVdasycneme
p5714
aVdaubentonii
p5715
aVelegans
p5716
aVemarginatus
p5717
aVevotis
p5718
aVformosus
p5719
aVgrisecens
p5720
aVhorsfieldii
p5721
aVkeenii
p5722
aVsubulatus
p5723
aVlucifugus
p5724
aVmacrotarsus
p5725
aVmuricola
p5726
aVmystacinus
p5727
aVnigricans
p5728
aVriparius
p5729
aVruber
p5730
aVsimus
p5731
aVsodalis
p5732
aVthysanodes
p5733
aVvelifer
p5734
aVvivesi
p5735
aVvolans
p5736
aVyumanensis
p5737
asVPerimyotis
p5738
(lp5739
Vsubflavus
p5740
asVLasiurus
p5741
(lp5742
Vborealis
p5743
aVcinereus
p5744
aVega
p5745
aVintermedius
p5746
aVseminolus
p5747
asVHesperoptenus
p5748
(lp5749
Vtickelli
p5750
asVRhogeessa
p5751
(lp5752
Vtumida
p5753
asVTylonycteris
p5754
(lp5755
Vpachypus
p5756
aVrobustula
p5757
asVNycticeius
p5758
(lp5759
Vhumeralis
p5760
asVPhiletor
p5761
(lp5762
Vbrachypterus
p5763
asVNeoromicia
p5764
(lp5765
Vcapensis
p5766
asVVespertilio
p5767
(lp5768
Vmurinus
p5769
assVHipposideridae
p5770
(dp5771
VCoelops
p5772
(lp5773
Vfrithii
p5774
asVAsellia
p5775
(lp5776
Vtridens
p5777
assVNoctilionidae
p5778
(dp5779
VNoctilio
p5780
(lp5781
Valbiventris
p5782
aVleporinus
p5783
assVMegadermatidae
p5784
(dp5785
VMegaderma
p5786
(lp5787
Vlyra
p5788
assVMolossidae
p5789
(dp5790
VMolossops
p5791
(lp5792
Vtemminckii
p5793
asVCheiromeles
p5794
(lp5795
Vparvidens
p5796
aVtorquatus
p5797
asVChaerephon
p5798
(lp5799
Vjobensis
p5800
aVplicata
p5801
aVansorgei
p5802
aVchapini
p5803
aVnigeriae
p5804
aVpumilus
p5805
asVOtomops
p5806
(lp5807
Vmartiensseni
p5808
asVCynomops
p5809
(lp5810
Vabrasus
p5811
aVparanus
p5812
aVplanirostris
p5813
asVMolossus
p5814
(lp5815
Vmolossus
p5816
aVrufus
p5817
aVsinaloae
p5818
asVMyopterus
p5819
(lp5820
Vdaubentonii
p5821
asVMops
p5822
(lp5823
Vcondylurus
p5824
aVleucostigma
p5825
aVmidas
p5826
aVmops
p5827
asVPromops
p5828
(lp5829
Vcentralis
p5830
aVnasutus
p5831
asVNyctinomops
p5832
(lp5833
Vlaticaudatus
p5834
aVmacrotis
p5835
aVaurispinosus
p5836
asVEumops
p5837
(lp5838
Vdabbenei
p5839
aVpatagonicus
p5840
aVperotis
p5841
aVunderwoodi
p5842
aVbonariensis
p5843
aVglaucinus
p5844
asVMormopterus
p5845
(lp5846
Vacetabulosus
p5847
aVbeccarii
p5848
aVplaniceps
p5849
asVTadarida
p5850
(lp5851
Vfulminans
p5852
aVaegyptiaca
p5853
aVbrasiliensis
p5854
aVteniotis
p5855
assVOnychonycteridae
p5856
(dp5857
VOnychonycteris
p5858
(lp5859
Vfinneyi
p5860
assVNycteridae
p5861
(dp5862
VNycteris
p5863
(lp5864
Varge
p5865
aVgrandis
p5866
aVhispida
p5867
aVjavanica
p5868
aVmacrotis
p5869
aVthebaica
p5870
assVRhinolophidae
p5871
(dp5872
VRhinolophus
p5873
(lp5874
Vaffinis
p5875
aVarcuatus
p5876
aVcornutus
p5877
aVacuminatus
p5878
aVaclyone
p5879
aVblasii
p5880
aVbocharicus
p5881
aVcanuti
p5882
aVcelebensis
p5883
aVclivosus
p5884
aVcreaghi
p5885
aVdarlingi
p5886
aVdeckenii
p5887
aVeuryale
p5888
aVferrumequinum
p5889
aVfumigatus
p5890
aVhildebrandti
p5891
aVhillorum
p5892
aVhipposideros
p5893
aVimaizumii
p5894
aVlanderi
p5895
aVlepidus
p5896
aVluctus
p5897
aVmacrotis
p5898
asVCloeotis
p5899
(lp5900
Vpercivali
p5901
asVAselliscus
p5902
(lp5903
Vtricuspidatus
p5904
aVstoliczkanus
p5905
asVHipposideros
p5906
(lp5907
Varmiger
p5908
aVdiadema
p5909
aVpygmaeus
p5910
aVabae
p5911
aVater
p5912
aVcaffer
p5913
aVcalcaratus
p5914
aVcervinus
p5915
aVcyclops
p5916
aVdyacorum
p5917
aVfuliginosus
p5918
aVgigas
p5919
aVgrandis
p5920
aVlarvatus
p5921
aVlylei
p5922
aVobscurus
p5923
aVpelingensis
p5924
aVpomona
p5925
aVruber
p5926
aVturpis
p5927
asssVLagomorpha
p5928
(dp5929
VLeporidae
p5930
(dp5931
VNekrolagus
p5932
(lp5933
Vprogressus
p5934
asVSylvilagus
p5935
(lp5936
Vfloridanus
p5937
aVaquaticus
p5938
asVPronolagus
p5939
(lp5940
Vsp.
p5941
asVLepus
p5942
(lp5943
Vsp.
p5944
aVbolti
p5945
aVcalifornicus
p5946
asVOryctolagus
p5947
(lp5948
Vcuniculus
p5949
asVPalaeolagus
p5950
(lp5951
Vhaydeni
p5952
assVOchotonidae
p5953
(dp5954
VOchotona
p5955
(lp5956
Vprinceps
p5957
asssVDidelphimorphia
p5958
(dp5959
VDidelphidae
p5960
(dp5961
VCaluromys
p5962
(lp5963
Vsp.
p5964
aVderbianus
p5965
asVChironectes
p5966
(lp5967
Vminimus
p5968
asVMarmosa
p5969
(lp5970
Vderbianus
p5971
aVsp.
p5972
aVmexicana
p5973
aVmurina
p5974
asVThylamys
p5975
(lp5976
Velegans
p5977
aVpallidior
p5978
asVLutreolina
p5979
(lp5980
Vcrassicaudata
p5981
asVGracilinanus
p5982
(lp5983
Vmicrotarsus
p5984
aVagilis
p5985
asVMonodelphis
p5986
(lp5987
Vdomestica 
p5988
aVsp.
p5989
asVMarmosops
p5990
(lp5991
Vnoctivagus
p5992
aVincanus
p5993
asVMicoureus
p5994
(lp5995
Valstoni
p5996
aVdemerarae
p5997
asVDidelphis
p5998
(lp5999
Vmarsupialis
p6000
aVvirginiana
p6001
aVsp.
p6002
asVPhilander
p6003
(lp6004
Vopossum
p6005
aVandersoni
p6006
aVcanus
p6007
assVStagodontidae
p6008
(dp6009
VDidelphodon
p6010
(lp6011
Vvorax
p6012
assVHerpetotheriidae
p6013
(dp6014
VHerpetotherium
p6015
(lp6016
Vinnominatum
p6017
asssVErinaceomorpha
p6018
(dp6019
VErinaceidae
p6020
(dp6021
VErinaceus
p6022
(lp6023
Veuropaeus
p6024
aVbroomi
p6025
asVSespedectes
p6026
(lp6027
Vsingularis
p6028
asVHemiechinus
p6029
(lp6030
Vauritus
p6031
asssVProboscidea
p6032
(dp6033
VMammutidae
p6034
(dp6035
VMammut
p6036
(lp6037
Vamericanum
p6038
assVElephantidae
p6039
(dp6040
VMammuthus
p6041
(lp6042
Vcf. M. hayi
p6043
aVprimigenius
p6044
asVElephas
p6045
(lp6046
Vrecki
p6047
assssVAves
p6048
(dp6049
VColumbiformes
p6050
(dp6051
VColumbidae
p6052
(dp6053
VColumba
p6054
(lp6055
Vlivia
p6056
asVPtilinopus
p6057
(lp6058
Vsuperbus
p6059
asssVApodiformes
p6060
(dp6061
VTrochilidae
p6062
(dp6063
VSelasphorus
p6064
(lp6065
Vrufus
p6066
asVPhaethornis
p6067
(lp6068
Vsuperciliosus
p6069
asVEutoxeres
p6070
(lp6071
Vcondamini
p6072
assVApodidae
p6073
(dp6074
VApus
p6075
(lp6076
Vapus
p6077
asssVFalconiformes
p6078
(dp6079
VAccipitridae
p6080
(dp6081
VAquila
p6082
(lp6083
Vchrysaetos
p6084
asVButeo
p6085
(lp6086
Vbuteo
p6087
assVFalconidae
p6088
(dp6089
VFalco
p6090
(lp6091
Vperegrinus
p6092
aVcenchroides
p6093
aVsubbuteo
p6094
aVtinnunculus
p6095
asssVPasseriformes
p6096
(dp6097
VCorvidae
p6098
(dp6099
VCorvus
p6100
(lp6101
Vcorax
p6102
assVMuscicapidae
p6103
(dp6104
VLuscinia
p6105
(lp6106
Vmegarhynchos
p6107
assVDicruridae
p6108
(dp6109
VDicrurus
p6110
(lp6111
Vparadiseus
p6112
assVEstrildidae
p6113
(dp6114
VTaeniopygia
p6115
(lp6116
Vguttata
p6117
assVPasseridae
p6118
(dp6119
VPasser
p6120
(lp6121
Vdomesticus
p6122
assVMeliphagidae
p6123
(dp6124
VAcanthorhynchus
p6125
(lp6126
Vsuperciliosus
p6127
assVParulidae
p6128
(dp6129
VSeiurus
p6130
(lp6131
Vaurocapilla
p6132
asssVCiconiiformes
p6133
(dp6134
VCiconiidae
p6135
(dp6136
VCiconia
p6137
(lp6138
Vciconia
p6139
aVnigra
p6140
asssVCasuariiformes
p6141
(dp6142
VCasuariidae
p6143
(dp6144
VCasuarius
p6145
(lp6146
VCasuarius
p6147
aVunappendiculatus
p6148
asssVGaviiformes
p6149
(dp6150
VGaviidae
p6151
(dp6152
VGavia
p6153
(lp6154
Vimmer
p6155
asssVStrigiformes
p6156
(dp6157
VPodargidae
p6158
(dp6159
VPodargus
p6160
(lp6161
Vstrigoides
p6162
assVStrigidae
p6163
(dp6164
VAthene
p6165
(lp6166
Vcunicularia
p6167
assVSteatornithidae
p6168
(dp6169
VSteatornis
p6170
(lp6171
Vcaripensis
p6172
asssVGruiformes
p6173
(dp6174
VGruidae
p6175
(dp6176
VGrus
p6177
(lp6178
Vgrus
p6179
asssVPhoenicopteriformes
p6180
(dp6181
VPhoenicopteridae
p6182
(dp6183
VPhoenicopterus
p6184
(lp6185
Vruber
p6186
asssVCharadriiformes
p6187
(dp6188
VCharadriidae
p6189
(dp6190
VVanellus
p6191
(lp6192
Vmiles
p6193
assVScolopacidae
p6194
(dp6195
VScolopax
p6196
(lp6197
Vrusticola
p6198
asVArenaria
p6199
(lp6200
Vmelanocephala
p6201
asVActitis
p6202
(lp6203
Vhypoleucos
p6204
assVAlcidae
p6205
(dp6206
VAlca
p6207
(lp6208
Vtorda
p6209
asVUria
p6210
(lp6211
Vlomvia
p6212
assVLaridae
p6213
(dp6214
VLarus
p6215
(lp6216
Vphiladelphia
p6217
aVargentatus
p6218
asVSterna
p6219
(lp6220
Vhirundo
p6221
asVCreagrus
p6222
(lp6223
Vfurcatus
p6224
asVChroicocephalus
p6225
(lp6226
Vphiladelphia
p6227
assVHaematopodidae
p6228
(dp6229
VHaematopus
p6230
(lp6231
Vostralegus
p6232
assVLaridae;sterninae
p6233
(dp6234
VGelochelidon
p6235
(lp6236
Vnilotica
p6237
asssVPelecaniformes
p6238
(dp6239
VArdeidae
p6240
(dp6241
VArdea
p6242
(lp6243
Vcinerea
p6244
assVBalaenicipitidae
p6245
(dp6246
VBalaeniceps
p6247
(lp6248
Vrex
p6249
assVPhalacrocoracidae
p6250
(dp6251
VPhalacrocorax
p6252
(lp6253
Vharrisi
p6254
aVcarbo
p6255
asssVAccipitriformes
p6256
(dp6257
VPandionidae
p6258
(dp6259
VPandion
p6260
(lp6261
Vhaliaetus
p6262
assVSagittariidae
p6263
(dp6264
VSagittarius
p6265
(lp6266
Vserpentarius
p6267
assVCathartidae
p6268
(dp6269
VVultur
p6270
(lp6271
Vgryphus
p6272
asssVSphenisciformes
p6273
(dp6274
VSpheniscidae
p6275
(dp6276
VSpheniscus
p6277
(lp6278
Vmagellanicus
p6279
asssVCoraciiformes
p6280
(dp6281
VAlcedinidae;alcedininae
p6282
(dp6283
VAlcedo
p6284
(lp6285
Vatthis
p6286
assVAlcedinidae
p6287
(dp6288
VDacelo
p6289
(lp6290
Vnovaeguineae
p6291
assVCoraciidae
p6292
(dp6293
VCoracias
p6294
(lp6295
Vgarrulus
p6296
asssVCuculiformes
p6297
(dp6298
VCoccyzidae
p6299
(dp6300
VCoccyzus
p6301
(lp6302
Verythopthalmus
p6303
aVCoccyzus erythropthalmus
p6304
assVCuculidae;cuculinae
p6305
(dp6306
VCuculus
p6307
(lp6308
Vcanorus
p6309
asssVTinamiformes
p6310
(dp6311
VTinamidae
p6312
(dp6313
VRhynchotus
p6314
(lp6315
Vrufescens
p6316
asVNothoprocta
p6317
(lp6318
Vperdicaria
p6319
asssVAnseriformes
p6320
(dp6321
V
(dp6322
VVegavis
p6323
(lp6324
Viaai
p6325
assVAnhimidae
p6326
(dp6327
VChauna
p6328
(lp6329
Vtorquata 
p6330
assVAnatidae;anatinae
p6331
(dp6332
VAnas
p6333
(lp6334
Vdiscors
p6335
aVacuta
p6336
aVcrecca
p6337
assVAnatidae
p6338
(dp6339
VAix
p6340
(lp6341
Vsponsa
p6342
asVAythya
p6343
(lp6344
Vfuligula
p6345
asVOxyura
p6346
(lp6347
Vjamaicensis
p6348
asVCairina
p6349
(lp6350
V moschata
p6351
asVChen
p6352
(lp6353
Vcaerulescens
p6354
asVTachyeres
p6355
(lp6356
Vbrachypterus
p6357
assVAnseranatidae
p6358
(dp6359
VAnseranas
p6360
(lp6361
Vsemipalmata
p6362
assVPresbyornithidae
p6363
(dp6364
VPresbyornis
p6365
(lp6366
Vsp
p6367
asssVPodicipediformes
p6368
(dp6369
VPodicipedidae
p6370
(dp6371
VPodilymbus
p6372
(lp6373
Vpodiceps
p6374
asVPodiceps
p6375
(lp6376
Vnigricollis
p6377
aVcristatus
p6378
asssVPiciformes
p6379
(dp6380
VRamphastidae
p6381
(dp6382
VRamphastos
p6383
(lp6384
Vdicolorus
p6385
assVPicidae
p6386
(dp6387
VDendrocopos
p6388
(lp6389
Vmajor
p6390
asVSphyrapicus
p6391
(lp6392
Vvarius
p6393
asssVCaprimulgiformes
p6394
(dp6395
VCaprimulgidae
p6396
(dp6397
VNyctidromus
p6398
(lp6399
Valbicollis
p6400
asVCaprimulgus
p6401
(lp6402
Veuropaeus
p6403
asssVOpisthocomiformes
p6404
(dp6405
VOpisthocomidae
p6406
(dp6407
VOpisthocomus
p6408
(lp6409
Vhoazin
p6410
asssVPteroclidiformes
p6411
(dp6412
VPteroclididae
p6413
(dp6414
VPterocles
p6415
(lp6416
Vquadricinctus
p6417
asssVProcellariiformes
p6418
(dp6419
VDiomedeidae
p6420
(dp6421
VDiomedea
p6422
(lp6423
Vexulans
p6424
asVPhoebastria
p6425
(lp6426
Vnigripes 
p6427
assVHydrobatidae
p6428
(dp6429
VPelagodroma
p6430
(lp6431
Vmarina
p6432
assVProcellariidae
p6433
(dp6434
VFulmarus
p6435
(lp6436
Vglacialis 
p6437
asssVTrogoniformes
p6438
(dp6439
VTrogonidae
p6440
(dp6441
VTrogon
p6442
(lp6443
Vcurucui
p6444
asssVGalliformes
p6445
(dp6446
VPhasianidae
p6447
(dp6448
VFalcipennis
p6449
(lp6450
Vcanadensis
p6451
asVAlectoris
p6452
(lp6453
Vrufa
p6454
asVPhasianus
p6455
(lp6456
Vcolchicus
p6457
asVDendragapus
p6458
(lp6459
Vobscurus
p6460
asVGallus
p6461
(lp6462
Vgallus
p6463
asVCoturnix
p6464
(lp6465
Vcoturnix
p6466
asVMeleagris
p6467
(lp6468
Vgallopavo
p6469
assVCracidae
p6470
(dp6471
VOrtalis
p6472
(lp6473
Vvetula 
p6474
asssVPsittaciformes
p6475
(dp6476
VPsittacidae
p6477
(dp6478
VTrichoglossus
p6479
(lp6480
Vhaematodus
p6481
asVAra
p6482
(lp6483
Vmacao
p6484
asVMelopsittacus
p6485
(lp6486
Vundulatus
p6487
asVAmazona
p6488
(lp6489
Vviridigenalis
p6490
asVNestor
p6491
(lp6492
Vnotabilis
p6493
asVPsittacus
p6494
(lp6495
Verithacus
p6496
asssVPhaethontiformes
p6497
(dp6498
VPhaethontidae
p6499
(dp6500
VPhaethon
p6501
(lp6502
Vlepturus
p6503
asssVStruthioniformes
p6504
(dp6505
VStruthionidae
p6506
(dp6507
VStruthio
p6508
(lp6509
Vcamelus
p6510
assVApterygidae
p6511
(dp6512
VApteryx
p6513
(lp6514
Vhaastii
p6515
asssVSuliformes
p6516
(dp6517
VFregatidae
p6518
(dp6519
VFregata
p6520
(lp6521
Vmagnificens
p6522
assVSulidae
p6523
(dp6524
VSula
p6525
(lp6526
Vdactylatra
p6527
asssVCariamiformes
p6528
(dp6529
VPhorusrhacidae
p6530
(dp6531
VTitanis
p6532
(lp6533
Vwalleri
p6534
assssVAmphibia
p6535
(dp6536
VAnura
p6537
(dp6538
VSooglossidae
p6539
(dp6540
VSooglossus
p6541
(lp6542
Vsechellensis
p6543
assVHyperolidae
p6544
(dp6545
VCallixalus
p6546
(lp6547
Vpictus
p6548
assVBrachycephalidae
p6549
(dp6550
VBrachycephalus
p6551
(lp6552
Vephippium
p6553
aVsp
p6554
aVnodoterga
p6555
aValbolineatus
p6556
aVcoloratus
p6557
aVcurupira
p6558
asVIschnocnema
p6559
(lp6560
Vgualteri
p6561
aVguentheri
p6562
assVRhinophrynidae
p6563
(dp6564
VRhinophrynus
p6565
(lp6566
Vdorsalis
p6567
assVPelodytidae
p6568
(dp6569
VPelodytes
p6570
(lp6571
Vcaucasicus
p6572
assVRhinodermatidae
p6573
(dp6574
VRhinoderma
p6575
(lp6576
Vdarwinii
p6577
assVAromobatidae
p6578
(dp6579
VAromobates
p6580
(lp6581
Vmayorgai
p6582
assVCalyptocephalellidae
p6583
(dp6584
VCalyptocephalella
p6585
(lp6586
Vgayi
p6587
assVConrauidae
p6588
(dp6589
VConraua
p6590
(lp6591
Vcrassipes
p6592
aVgoliath
p6593
assVLeptodactylidae
p6594
(dp6595
VAdenomera
p6596
(lp6597
Vandreae
p6598
asVBarycholos
p6599
(lp6600
Vpulcher
p6601
asVAtelognathus
p6602
(lp6603
Vpatagonicus
p6604
asVTelmatobius
p6605
(lp6606
Vthompsoni
p6607
asVChacophrys
p6608
(lp6609
Vpierottii
p6610
asVLeptodactylus
p6611
(lp6612
Vvalidus
p6613
assV
(dp6614
VBeelzebufo
p6615
(lp6616
Vampinga
p6617
assVCentrolenidae
p6618
(dp6619
VHyalinobatrachium
p6620
(lp6621
Vfleischmanni
p6622
asVCochranella
p6623
(lp6624
Vgranulosa
p6625
asVCentrolene
p6626
(lp6627
Vbuckleyi
p6628
assVPetropedetidae
p6629
(dp6630
VPetropedetes
p6631
(lp6632
Vsp
p6633
aVpalmipes
p6634
aVcf. vulpiae
p6635
assVOdontophrynidae
p6636
(dp6637
VOdontophrynus
p6638
(lp6639
Vamericanus
p6640
asVMacrogenioglottus
p6641
(lp6642
Valipioi
p6643
asVProceratophrys
p6644
(lp6645
Vboiei
p6646
assVAllophrynidae
p6647
(dp6648
VAllophryne
p6649
(lp6650
Vruthveni
p6651
assVBrevicipitidae
p6652
(dp6653
VSpelaeophryne
p6654
(lp6655
Vmethneri
p6656
asVBreviceps
p6657
(lp6658
Vpoweri
p6659
asVProbreviceps
p6660
(lp6661
Vmacrodactylus
p6662
assVHyperoliidae
p6663
(dp6664
VAfrixalus
p6665
(lp6666
Vorophilus
p6667
asVAcanthixalus
p6668
(lp6669
Vspinosus
p6670
asVChrysobatrachus
p6671
(lp6672
Vcupreonitens
p6673
asVKassina
p6674
(lp6675
Vsenegalensis
p6676
assVPhyllomedusinae
p6677
(dp6678
VPhyllomedusa
p6679
(lp6680
Vbicolor
p6681
assVMyobatrachidae
p6682
(dp6683
VLechriodus
p6684
(lp6685
Vmelanopyga
p6686
asVNeobatrachus
p6687
(lp6688
Vpictus
p6689
assVDiscoglossidae
p6690
(dp6691
VBarbourula
p6692
(lp6693
Vbusuangensis
p6694
assVLeiopelmatidae
p6695
(dp6696
VAscaphus
p6697
(lp6698
Vtruei
p6699
aVmontanus
p6700
asVLeiopelma
p6701
(lp6702
Vhamiltoni
p6703
assVMegophryidae
p6704
(dp6705
VLeptolalax
p6706
(lp6707
Vaereus
p6708
asVOphryophryne
p6709
(lp6710
Vpachyproctus
p6711
asVBrachytarsophrys
p6712
(lp6713
Vcarinensis
p6714
asVXenophrys
p6715
(lp6716
Vmajor
p6717
assVCycloramphidae
p6718
(dp6719
VThoropa
p6720
(lp6721
Vtaophora
p6722
asVCycloramphus
p6723
(lp6724
Vasper
p6725
asVZachaenus
p6726
(lp6727
Vparvulus
p6728
assVCeratophryidae
p6729
(dp6730
VLepidobatrachus
p6731
(lp6732
Vlaevis
p6733
asVCeratophrys
p6734
(lp6735
Vaurita
p6736
assVAlytidae
p6737
(dp6738
VAlytes
p6739
(lp6740
Vobstetricans
p6741
asVDiscoglossus
p6742
(lp6743
Vpictus
p6744
aVsardus
p6745
assVDicroglossidae
p6746
(dp6747
VQuasipaa
p6748
(lp6749
Vboulengeri
p6750
asVLimnonectes
p6751
(lp6752
Vmacrocephalus
p6753
aVblythii
p6754
asVHoplobatrachus
p6755
(lp6756
Voccipitalis
p6757
assVHylidae
p6758
(dp6759
VPhyllodytes
p6760
(lp6761
Vluteolus
p6762
asVNyctimantis
p6763
(lp6764
Vrugiceps
p6765
asVAgalychnis
p6766
(lp6767
Vcalcarifer
p6768
asVPseudacris
p6769
(lp6770
Vornata
p6771
asVHyla
p6772
(lp6773
Vfemoralis
p6774
aVavivoca
p6775
aVandersonii
p6776
aVboans
p6777
aVchrysoscelis
p6778
aVcinerea
p6779
asVAnotheca
p6780
(lp6781
Vspinosa
p6782
asVAcris
p6783
(lp6784
Vcrepitans
p6785
aVgryllus
p6786
asVLitoria
p6787
(lp6788
Vaurea
p6789
asVTepuihyla
p6790
(lp6791
Vrodriguezi
p6792
asVStefania
p6793
(lp6794
Vscalae
p6795
asVCorythomantis
p6796
(lp6797
Vgreeningi
p6798
asVArgenteohyla
p6799
(lp6800
Vsiemersi
p6801
asVTriprion
p6802
(lp6803
Vpetasatus
p6804
assVPyxicephalidae
p6805
(dp6806
VAnhydrophryne
p6807
(lp6808
Vrattrayi
p6809
asVPoyntonia
p6810
(lp6811
Vpaludicola
p6812
asVPyxicephalus
p6813
(lp6814
Vadspersus
p6815
asVMicrobatrachella
p6816
(lp6817
Vcapensis
p6818
asVNothophryne
p6819
(lp6820
Vbroadleyi
p6821
assVPtychadenidae
p6822
(dp6823
VHildebrandtia
p6824
(lp6825
Vornata
p6826
assVHylodidae
p6827
(dp6828
VHylodes
p6829
(lp6830
Vasper
p6831
asVCrossodactylus
p6832
(lp6833
Vgaudichaudii
p6834
assVArthroleptidae
p6835
(dp6836
VLeptopelis
p6837
(lp6838
Vnotatus
p6839
asVCardioglossa
p6840
(lp6841
Vcyaneospila
p6842
asVLeptodactylodon
p6843
(lp6844
Vovatus
p6845
asVTrichobatrachus
p6846
(lp6847
Vrobustus
p6848
asVArthroleptis
p6849
(lp6850
Vbioko
p6851
aVtanneri
p6852
aVbivittatus
p6853
aVlonnbergi
p6854
asVAstylosternus
p6855
(lp6856
Vdiadematus
p6857
asVNyctibates
p6858
(lp6859
Vcorrugatus
p6860
assVHylinae
p6861
(dp6862
VAparasphenodon
p6863
(lp6864
Vbrunoi
p6865
assVPipidae
p6866
(dp6867
VPipa
p6868
(lp6869
Vparva
p6870
asVXenopus
p6871
(lp6872
Vclivii
p6873
assVMicrohylidae
p6874
(dp6875
VXenorhina
p6876
(lp6877
Vmehelyi
p6878
asVCallulina
p6879
(lp6880
Vkisiwamsitu
p6881
asVGastrophryne
p6882
(lp6883
Vcarolinensis
p6884
asVElachistocleis
p6885
(lp6886
Vbicolor
p6887
asVChaperina
p6888
(lp6889
Vfusca
p6890
asVPaedophryne
p6891
(lp6892
Vswiftorum
p6893
aVkathismaphlox
p6894
aVsp.
p6895
aVtitan
p6896
asVBalebreviceps
p6897
(lp6898
Vhillmani
p6899
asVChiasmocleis
p6900
(lp6901
Valtomontana
p6902
aVcapixaba
p6903
aVgnoma 
p6904
aValbopunctata
p6905
aVmantiqueira
p6906
aVroyi
p6907
aVcrucis
p6908
asVMelanobatrachus
p6909
(lp6910
Vindicus
p6911
asVPlethodontohyla
p6912
(lp6913
Valluaudi
p6914
aVlaevis
p6915
asVUperodon
p6916
(lp6917
Vmontanus
p6918
aVsystoma
p6919
asVSyncope
p6920
(lp6921
Vantenori
p6922
asVRhombophryne
p6923
(lp6924
Vcoronata
p6925
aVguentherpetersi
p6926
aVornata
p6927
aVtany
p6928
aVvaventy
p6929
aVserratopalpebrosa
p6930
aValluaudi
p6931
asVStumpffia
p6932
(lp6933
Vpygmaea
p6934
assVPelobatidae
p6935
(dp6936
VPelobates
p6937
(lp6938
Vfuscus
p6939
aVvaraldii
p6940
asVScaphiopus
p6941
(lp6942
Vholbrookii
p6943
asVLeptobrachium
p6944
(lp6945
Vhasseltii
p6946
assVHeleophrynidae
p6947
(dp6948
VHeleophryne
p6949
(lp6950
Vnatalensis
p6951
aVpurcelli
p6952
asVHadromophryne
p6953
(lp6954
Vnatalensis
p6955
assVBatrachylidae
p6956
(dp6957
VHylorina
p6958
(lp6959
Vsylvatica
p6960
asVBatrachyla
p6961
(lp6962
Vtaeniata
p6963
assVHemiphractidae
p6964
(dp6965
VCryptobatrachus
p6966
(lp6967
Vboulengeri
p6968
asVHemiphractus
p6969
(lp6970
Vfasciatus
p6971
aVproboscideus
p6972
aVelioti
p6973
aVkaylockae
p6974
asVGastrotheca
p6975
(lp6976
Vperuana
p6977
assVBombinatoridae
p6978
(dp6979
VBombina
p6980
(lp6981
Vmaxima
p6982
assVAlsodidae
p6983
(dp6984
VAlsodes
p6985
(lp6986
Vnodosus
p6987
asVEupsophus
p6988
(lp6989
Vroseus
p6990
asVLimnomedusa
p6991
(lp6992
Vmacroglossa
p6993
assVRanixalidae
p6994
(dp6995
VIndirana
p6996
(lp6997
Vphrynoderma
p6998
assVNasikabatrachidae
p6999
(dp7000
VNasikabatrachus
p7001
(lp7002
Vsahyadrensis
p7003
assVHemisotidae
p7004
(dp7005
VHemisus
p7006
(lp7007
Vguineensis
p7008
assVRhacophoridae
p7009
(dp7010
VRaorchestes
p7011
(lp7012
Vmanohari
p7013
aVprimarrumpfi
p7014
aVflaviocularas
p7015
aVnerostegona
p7016
aVochlandrae
p7017
aVresplendens
p7018
aVparvulus
p7019
aVchalazodes
p7020
asVTheloderma
p7021
(lp7022
Vphrynoderma
p7023
asVNyctixalus
p7024
(lp7025
Vpictus
p7026
aVspinosus
p7027
asVRhacophorus
p7028
(lp7029
Vschlegeli
p7030
aVnigripunctatus
p7031
aVappendiculatus
p7032
aVcatamitus
p7033
aVbatakensis
p7034
aVfeae
p7035
asVFeihyla
p7036
(lp7037
Vpalpebralis
p7038
asVPolypedates
p7039
(lp7040
Vmacrotis
p7041
asVPhilautus
p7042
(lp7043
Vpetersi
p7044
aVsurdus
p7045
aVworcesteri
p7046
asVChiromantis
p7047
(lp7048
Vrufescens
p7049
asVBuergeria
p7050
(lp7051
Vjaponica
p7052
assVCraugastoridae
p7053
(dp7054
VCraugastor
p7055
(lp7056
Vlaticeps
p7057
assVBufonidae
p7058
(dp7059
VNectophryne
p7060
(lp7061
Vafra
p7062
asVMelanophryniscus
p7063
(lp7064
Vstelzneri
p7065
asVNectophrynoides
p7066
(lp7067
Vviviparus
p7068
asVAtelopus
p7069
(lp7070
Voxyrhynchus
p7071
aVignescens
p7072
asVAnsonia
p7073
(lp7074
Vmcgregori
p7075
asVFrostius
p7076
(lp7077
Vpernambucensis
p7078
asVDidynamipus
p7079
(lp7080
Vsjostedti
p7081
asVAltiphrynoides
p7082
(lp7083
Vmalcomi
p7084
asVAdenomus
p7085
(lp7086
Vkelaartii
p7087
asVMertensophryne
p7088
(lp7089
Vmicranotis
p7090
asVPeltophryne
p7091
(lp7092
Vguentheri
p7093
asVSchismaderma
p7094
(lp7095
Vcarens
p7096
asVTruebella
p7097
(lp7098
Vtothastes
p7099
aVskoptes
p7100
asVAnaxyrus
p7101
(lp7102
Vfowleri
p7103
aVquercicus
p7104
aVterrestris
p7105
asVLaurentophryne
p7106
(lp7107
Vparkeri
p7108
asVWolterstorffina
p7109
(lp7110
Vparvipalmata
p7111
assVStrabomantidae
p7112
(dp7113
VOreobates
p7114
(lp7115
Vquixensis
p7116
asVStrabomantis
p7117
(lp7118
Vanomalus
p7119
assVCeratobatrachidae
p7120
(dp7121
VAlcalus
p7122
(lp7123
Vmariae
p7124
asVPlatymantis
p7125
(lp7126
Vpolillensis
p7127
asVCornufer
p7128
(lp7129
Vguppyi
p7130
aVguentheri
p7131
assVScaphiopodidae
p7132
(dp7133
VSpea
p7134
(lp7135
Vmultiplicata
p7136
assVEleutherodactylidae
p7137
(dp7138
VPhyzelaphryne
p7139
(lp7140
Vmiriamae
p7141
asVEleutherodactylus
p7142
(lp7143
Vorientalis
p7144
aVdimidiatus
p7145
aVglaphycompus
p7146
aVjohnstonei
p7147
aVkarlschmidti
p7148
aVatkinsi
p7149
assVDendrobatidae
p7150
(dp7151
VOophaga
p7152
(lp7153
Vpumilio
p7154
asVAmeerega
p7155
(lp7156
Vtrivittata
p7157
asVPhyllobates
p7158
(lp7159
Vbicolor
p7160
asVColostethus
p7161
(lp7162
Vsylvaticus
p7163
asVMannophryne
p7164
(lp7165
Volmonae
p7166
aVtrinitatis
p7167
asVAllobates
p7168
(lp7169
Vkingsburyi
p7170
asVRheobates
p7171
(lp7172
Vpalmatus
p7173
assVRanidae
p7174
(dp7175
VOccidozyga
p7176
(lp7177
Vlaevis
p7178
asVNyctibatrachus
p7179
(lp7180
Valiciae
p7181
aVmajor
p7182
asVCacosternum
p7183
(lp7184
Vboettgeri
p7185
aVnamaquense
p7186
asVAmnirana
p7187
(lp7188
Valbolabris
p7189
asVLithobates
p7190
(lp7191
Vgrylio
p7192
asVAmolops
p7193
(lp7194
Vcompotrix
p7195
aVspinapectoralis
p7196
asVNatalobatrachus
p7197
(lp7198
Vbonebergi
p7199
asVOdorrana
p7200
(lp7201
Vchapaensis
p7202
asVArthroleptella
p7203
(lp7204
Vlightfooti
p7205
asVMicrixalus
p7206
(lp7207
Vadonis
p7208
aVherrei
p7209
asVRana
p7210
(lp7211
Vclamitans
p7212
aVcapito
p7213
asVPhrynobatrachus
p7214
(lp7215
Vkrefftii
p7216
asVTomopterna
p7217
(lp7218
Vdelandii
p7219
aVmarmorata
p7220
aVtuberculosa
p7221
asVHylarana
p7222
(lp7223
Verythraea
p7224
asVFejervarya
p7225
(lp7226
Vlimnocharis
p7227
asssVCaudata
p7228
(dp7229
VProteidae
p7230
(dp7231
VNecturus
p7232
(lp7233
Vlewisi
p7234
aVbeyeri
p7235
assVSalamandridae
p7236
(dp7237
VTriturus
p7238
(lp7239
Vcristatus
p7240
asVIchthyosaura
p7241
(lp7242
Valpestris
p7243
asVCalotriton
p7244
(lp7245
Varnoldi
p7246
asVPachytriton
p7247
(lp7248
Vlabiatus
p7249
asVPleurodeles
p7250
(lp7251
Vwaltl
p7252
asVNotophthalmus
p7253
(lp7254
Vviridescens
p7255
aVmeridionalis
p7256
asVCynops
p7257
(lp7258
Vpyrrhogaster
p7259
asVTylototriton
p7260
(lp7261
Vpanhai
p7262
asVLissotriton
p7263
(lp7264
Vhelviticus
p7265
aVvulgaris
p7266
assVAmphiumidae
p7267
(dp7268
VAmphiuma
p7269
(lp7270
Vmeans
p7271
assVCryptobranchidae
p7272
(dp7273
VCryptobranchus
p7274
(lp7275
Valleganiensis
p7276
assVAmbystomatidae
p7277
(dp7278
VAmbystoma
p7279
(lp7280
Vmavortium
p7281
aVmaculatum
p7282
assVPlethodontidae
p7283
(dp7284
VBolitoglossa
p7285
(lp7286
Vfranklini
p7287
aVmexicana
p7288
asVDesmognathus
p7289
(lp7290
Vauriculatus
p7291
aVapalachicolae
p7292
aVsp
p7293
aVfloridanus 
p7294
aVconanti
p7295
aVvalentinei
p7296
asVGyrinophilus
p7297
(lp7298
Vporphyriticus
p7299
assVSirenidae
p7300
(dp7301
VSiren
p7302
(lp7303
Vintermedia
p7304
assssVChondrichthys
p7305
(dp7306
sss.