(dp1
VAnimalia
p2
(dp3
VArthropoda
p4
(dp5
S'Malacostraca'
p6
(dp7
S'Decapoda'
p8
(dp9
S'Nephropidae'
p10
(dp11
VHomarus
p12
(lp13
Vamericanus
p14
asssssVChordata
p15
(dp16
VSarcopterygii
p17
(dp18
VLepidosireniformes
p19
(dp20
VLepidosirenidae
p21
(dp22
VLepidosiren
p23
(lp24
Vparadoxa
p25
asssS'Crossopterygii'
p26
(dp27
S'Panderichthyidae'
p28
(dp29
VTiktaalik
p30
(lp31
Vroseae
p32
assssVActinopterygii
p33
(dp34
VPercopsiformes
p35
(dp36
S'Percopsidae'
p37
(dp38
VPercopsis
p39
(lp40
Vomiscomaycus
p41
assVAmblyopsidae
p42
(dp43
VForbesichthys
p44
(lp45
Vagassizii
p46
asVChologaster
p47
(lp48
Vcornuta
p49
asVTyphlichthys
p50
(lp51
Vsubterraneus
p52
asssS'Lophiiformes'
p53
(dp54
S'Melanocetidae'
p55
(dp56
VMelanocetus
p57
(lp58
Vjohnsoni
p59
assVOgcocephalidae
p60
(dp61
VOgcocephalus
p62
(lp63
Vdarwini
p64
aVcubifrons
p65
asssVGobiesociformes
p66
(dp67
VGobiesocidae
p68
(dp69
VPherallodiscus
p70
(lp71
Vfunebris
p72
asVAcyrtops
p73
(lp74
Vberyllinus
p75
asVArcos
p76
(lp77
Vmacrophthalmus
p78
aVerythrops
p79
aVpoecilophthalmos
p80
aVnudus
p81
asVCochleoceps
p82
(lp83
Vviridis
p84
aVspatula
p85
aVbassensis
p86
asVAspasmichthys
p87
(lp88
Vciconiae
p89
asVTomicodon
p90
(lp91
Vcryptus
p92
aVrupestris
p93
aVzebra
p94
aVfasciatus
p95
asVTrachelochismus
p96
(lp97
Vmelobesia
p98
asVDerilissus
p99
(lp100
Valtifrons
p101
aVnanus
p102
asVDellichthys
p103
(lp104
Vmorelandi
p105
asVDiscotrema
p106
(lp107
Vcrinophilum
p108
asVParvicrepis
p109
(lp110
Vparvipinnis
p111
asVCreocele
p112
(lp113
Vcardinalis
p114
asVLepadichthys
p115
(lp116
Vlineatus
p117
aVfrenatus
p118
aVbolini
p119
asVGymnoscyphus
p120
(lp121
Vascitus
p122
asVAspasmogaster
p123
(lp124
Vcostata
p125
aVtasmaniensis
p126
aVliorhyncha
p127
asVAcyrtus
p128
(lp129
Vartius
p130
aVrubiginosus
p131
asVPosidonichthys
p132
(lp133
Vhutchinsi
p134
asVDiplecogaster
p135
(lp136
Vbimaculata
p137
asVAspasmodes
p138
(lp139
Vbriggsi
p140
asVGouania
p141
(lp142
Vwilldenowi
p143
asVGobiesox
p144
(lp145
Vnigripinnis
p146
aVstrumosus
p147
aVfulvus
p148
aVmultitentaculus
p149
aVpinniger
p150
aVmarmoratus
p151
asVAlabes
p152
(lp153
Vhoesei
p154
asVDiademichthys
p155
(lp156
Vlineatus
p157
asVRimicola
p158
(lp159
Vmuscarum
p160
asssVPerciformes
p161
(dp162
VTripterygiidae
p163
(dp164
VNotoclinops
p165
(lp166
Vsegmentatus
p167
asVEnneanectes
p168
(lp169
Vmacrops
p170
aVreticulatus
p171
aVcarminalis
p172
asVNorfolkia
p173
(lp174
Vbrachylepis
p175
asVHelcogramma
p176
(lp177
Vdecurrens 
p178
asVAxoclinus
p179
(lp180
Vstoreyae
p181
aVnigricaudus
p182
asVHelcogrammoides
p183
(lp184
Vchilensis
p185
asVEnneapterygius
p186
(lp187
Vetheostoma 
p188
asVCrocodilichthys
p189
(lp190
Vgracilis
p191
assVAmmodytidae
p192
(dp193
VAmmodytes
p194
(lp195
Vpersonatus
p196
assVBathymasteridae
p197
(dp198
VBathymaster
p199
(lp200
Vleurolepis
p201
assVSparidae
p202
(dp203
VLagodon
p204
(lp205
Vrhomboides
p206
assVCichlidae
p207
(dp208
VLabeotropheus
p209
(lp210
Vtrewavasae
p211
asVLabidochromis
p212
(lp213
Vcaeruleus
p214
asVLamprologus
p215
(lp216
Vtigripictilis
p217
assVChaenopsidae
p218
(dp219
VProtemblemaria
p220
(lp221
Vperla
p222
aVbicirrus
p223
asVAcanthemblemaria
p224
(lp225
Vhancocki
p226
aVexilispinus
p227
aVcrockeri
p228
aVmaria
p229
aVbalanorum
p230
aVrivasi
p231
aVchaplini
p232
asVCoralliozetus
p233
(lp234
Vcardonae
p235
asVNeoclinus
p236
(lp237
Vtoshimaensis
p238
aVstephensae
p239
aVlacunicola
p240
aVbryope
p241
aVuninotatus
p242
aVblanchardi
p243
asVHemiemblemaria
p244
(lp245
Vsimulus
p246
asVChaenopsis
p247
(lp248
Valepidota
p249
aVcoheni
p250
asVStathmonotus
p251
(lp252
Vsinuscalifornici
p253
asVMccoskerichthys
p254
(lp255
Vsandae
p256
asVEmblemariopsis
p257
(lp258
Vrandalli
p259
asVEkemblemaria
p260
(lp261
Vnigra
p262
asVEmblemaria
p263
(lp264
Vatlantica
p265
aVdiphyodontis
p266
aVpandionis
p267
aVwalkeri
p268
aVnivipes
p269
assVBlenniidae
p270
(dp271
VParablennius
p272
(lp273
Vyatabei
p274
asVAndamia
p275
(lp276
Vtetradactylus
p277
asVMeiacanthus
p278
(lp279
Vatrodorsalis
p280
aVnigrolineatus
p281
aVkamoharai
p282
asVAntennablennius
p283
(lp284
Vbifilum
p285
asVHirculops
p286
(lp287
Vcornifer
p288
asVEcsenius
p289
(lp290
Vnamiyei
p291
asVOmobranchus
p292
(lp293
Vpunctatus
p294
asVSalarias
p295
(lp296
Vfasciatus
p297
asVLupinoblennius
p298
(lp299
Vvinctus
p300
asVPlagiotremus
p301
(lp302
Vtapeinosoma
p303
aVrhinorhynchos
p304
asVHypleurochilus
p305
(lp306
Vpseudoaequipinnis
p307
aVspringeri
p308
asVPetroscirtes
p309
(lp310
Vmitratus
p311
asVHypsoblennius
p312
(lp313
Vbrevipinnis
p314
aVrobustus
p315
aVstriatus
p316
aVgilberti
p317
aVjenkinsi
p318
asVRhabdoblennius
p319
(lp320
Vnitidus
p321
asVXiphasia
p322
(lp323
Vmatsubarai
p324
asVAtrosalarias
p325
(lp326
Vfuscus
p327
asVAspidontus
p328
(lp329
Vtaeniatus
p330
assVGobiidae
p331
(dp332
VRisor
p333
(lp334
Vruber
p335
asVGobiopterus
p336
(lp337
Vchuno
p338
asVSicydium
p339
(lp340
Vplumieri
p341
asVGillichthys
p342
(lp343
Vmirabilis
p344
assVSerranidae
p345
(dp346
VMirolabrichthys
p347
(lp348
Vdispar
p349
asVEpinephelus
p350
(lp351
Vnigritus
p352
assVAnarhichadidae
p353
(dp354
VAnarhichas
p355
(lp356
Vorientalis
p357
asVAnarrhichthys
p358
(lp359
Vocellatus
p360
assVZaproridae
p361
(dp362
VZaprora
p363
(lp364
Vsilenus
p365
assVGrammatidae
p366
(dp367
VGramma
p368
(lp369
Vloreto
p370
assVZoarcidae
p371
(dp372
VBothrocara
p373
(lp374
Vnyx
p375
aVbrunneum
p376
assVDactyloscopidae
p377
(dp378
VHeteristius
p379
(lp380
Vcinctus
p381
asVGillellus
p382
(lp383
Vsearcheri
p384
asVDactyloscopus
p385
(lp386
Vpectoralis
p387
asVPlatygillellus
p388
(lp389
Vrubrocinctus
p390
assVCryptacanthodidae
p391
(dp392
VCryptacanthodes
p393
(lp394
Vgiganteus
p395
assVTrichodontidae
p396
(dp397
VTrichodon
p398
(lp399
Vtrichodon
p400
assVLabrisomidae
p401
(dp402
VLabrisomus
p403
(lp404
Vnuchipinnis
p405
asVParaclinus
p406
(lp407
Vwalkeri
p408
aVintegripinnis
p409
aValtivelis
p410
aVmonophthalmus
p411
aVsini
p412
asVMalacoctenus
p413
(lp414
Vboehlkei
p415
aVebisui
p416
aVhubbsi
p417
aVtriangulatus
p418
aVmargaritae
p419
aVzonogaster
p420
aVzonifer
p421
asVXenomedea
p422
(lp423
Vrhodopyga
p424
asVDialommus
p425
(lp426
Vfuscus
p427
asVExerpes
p428
(lp429
Vasper
p430
asVStarksia
p431
(lp432
Vspinipenis
p433
aVfulva
p434
assVClinidae
p435
(dp436
VHeteroclinus
p437
(lp438
Vwhiteleggii
p439
asVHeterostichus
p440
(lp441
Vrostratus
p442
asVCristiceps
p443
(lp444
Vaustralis
p445
asVClinus
p446
(lp447
Vcottoides
p448
asVClimacoporus
p449
(lp450
Vnavalis
p451
asVPavoclinus
p452
(lp453
Vgraminis
p454
assVEmbiotocidae
p455
(dp456
VZalembius
p457
(lp458
Vrosaceus
p459
asVCymatogaster
p460
(lp461
Vaggregata
p462
asVEmbiotoca
p463
(lp464
Vjacksoni
p465
aVlateralis
p466
asVHysterocarpus
p467
(lp468
Vtraskii
p469
asVBrachyistius
p470
(lp471
Vfrenatus
p472
asVHyperprosopon
p473
(lp474
Vanale
p475
aVargenteum
p476
asVPhanerodon
p477
(lp478
Vfurcatus
p479
asVAmphistichus
p480
(lp481
Vkoelzi
p482
aVargenteus
p483
aVrhodoterus
p484
asVMicrometrus
p485
(lp486
Vminimus
p487
aVaurora
p488
asVRhacochilus
p489
(lp490
Vtoxotes
p491
aVvacca
p492
asVDitrema
p493
(lp494
Vtemminckii
p495
asVNeoditrema
p496
(lp497
Vransonnetii
p498
asVHypsurus
p499
(lp500
Vcaryi
p501
asssVGymnotiformes
p502
(dp503
VSternopygidae
p504
(dp505
VSternopygus
p506
(lp507
Varenatus
p508
aVpejeraton
p509
asVArcholaemus
p510
(lp511
Vblax
p512
asVRhabdolichops
p513
(lp514
Vcaviceps
p515
aVeastwardi
p516
aVzareti
p517
aVelectrogrammus
p518
asVEigenmannia
p519
(lp520
Vmacrops
p521
aVvirescens
p522
assVApteronotidae
p523
(dp524
VApteronotus
p525
(lp526
Vmacrostomus
p527
asVCompsaraia
p528
(lp529
Vsamueli
p530
asVSternarchorhynchus
p531
(lp532
Vcramptoni
p533
asVMagosternarchus
p534
(lp535
Vraptor
p536
asssS'Amiiformes'
p537
(dp538
VAmiidae
p539
(dp540
VAmia
p541
(lp542
Vcalva
p543
asssS'Hiodontiformes'
p544
(dp545
S'Hiodontidae'
p546
(dp547
VHiodon
p548
(lp549
Valosoides
p550
asssVGadiformes
p551
(dp552
VMerlucciidae
p553
(dp554
VMerluccius
p555
(lp556
Vsenegalensis
p557
assVMacrouridae
p558
(dp559
VAlbatrossia
p560
(lp561
Vpectoralis
p562
asVNezumia
p563
(lp564
Vliolepis
p565
asVCoryphaenoides
p566
(lp567
V
aVlongifilis
p568
aVfilifer
p569
aVcinereus
p570
aVacrolepis
p571
assVMelanonidae
p572
(dp573
VMelanonus
p574
(lp575
Vzugmayeri
p576
asssVClupeiformes
p577
(dp578
VEngraulidae
p579
(dp580
VAmazonsprattus
p581
(lp582
Vscintilla
p583
asVEngraulis
p584
(lp585
Vmordax
p586
aVjaponicus
p587
asVEncrasicholina
p588
(lp589
Vpurpurea
p590
aVpunctifer
p591
aVheteroloba
p592
asVThryssa
p593
(lp594
Vdussumieri
p595
aVsetirostris
p596
aVhamiltonii
p597
aVspinidens
p598
aVkammalensis
p599
aVbaelama
p600
asVSetipinna
p601
(lp602
Vtenuifilis
p603
aVtaty
p604
asVAnchoa
p605
(lp606
Vmitchilli
p607
aVhepsetus
p608
asVStolephorus
p609
(lp610
Vwaitei
p611
aVchinensis
p612
aVbrachycephalus
p613
aVindicus
p614
aVnelsoni
p615
assVPristigasteridae
p616
(dp617
VIlisha
p618
(lp619
Vmelastoma
p620
asVOpisthopterus
p621
(lp622
Vtardoore
p623
assVClupeidae
p624
(dp625
VEscualosa
p626
(lp627
Vthoracata
p628
asVAmblygaster
p629
(lp630
V
aVsp.
p631
aVsirm
p632
asVHerklotsichthys
p633
(lp634
Vcastelnaui
p635
aVdispilonotus
p636
asVSardinella
p637
(lp638
Valbella
p639
asVNematalosa
p640
(lp641
Vcome
p642
aVnasus
p643
asVAnodontostoma
p644
(lp645
Vchacunda
p646
asVSardinops
p647
(lp648
Vsagax
p649
asVBrevoortia
p650
(lp651
Vtyrannus
p652
asVOpisthonema
p653
(lp654
Vlibertate
p655
asVClupeichthys
p656
(lp657
Vaesarnensis
p658
asVClupea
p659
(lp660
Vpallasii
p661
asVAlosa
p662
(lp663
Vpseudoharengus
p664
aVaestivalis
p665
asVDussumieria
p666
(lp667
Vacuta
p668
asVDorosoma
p669
(lp670
Vcepedianum
p671
asssVScorpaeniformes
p672
(dp673
VAnoplopomatidae
p674
(dp675
VAnoplopoma
p676
(lp677
Vfimbria
p678
asVErilepis
p679
(lp680
Vzonifer
p681
assVAbyssocottidae
p682
(dp683
VAsprocottus
p684
(lp685
Vherzensteini
p686
asVAbyssocottus
p687
(lp688
Vkorotneffi
p689
assVRhamphocottidae
p690
(dp691
VRhamphocottus
p692
(lp693
Vrichardsonii
p694
assVScorpaenidae
p695
(dp696
VSebastolobus
p697
(lp698
Valascanus
p699
assVNormanichthyidae
p700
(dp701
VNormanichthys
p702
(lp703
Vcrockeri
p704
assVLiparidae
p705
(dp706
VCrystallias
p707
(lp708
Vmatsushimae
p709
asVRhinoliparis
p710
(lp711
Vbarbulifer
p712
aVattenuatus
p713
asVAcantholiparis
p714
(lp715
Vopercularis
p716
asVCrystallichthys
p717
(lp718
Vcyclospilus
p719
asVCareproctus
p720
(lp721
Vfaunus
p722
aVstaufferi
p723
aVovigerus
p724
aVrastrinus
p725
aVcypselurus
p726
aVostentum
p727
aVsimus
p728
aVabbreviatus
p729
aVcurilanus
p730
aVectenes
p731
aVfurcellus
p732
aVgilberti
p733
aVbowersianus
p734
aVcanus
p735
aVlycopersicus
p736
aVzachirus
p737
aVseraphimae
p738
aVnelsoni
p739
aVcomus
p740
aVacanthodes
p741
aVphasma
p742
aVmelanurus
p743
aVcolletti
p744
aVkamikawai
p745
asVParaliparis
p746
(lp747
Vbullacephalus
p748
aVpenicillus
p749
aVulochir
p750
aVpaucidens
p751
aVgrandis
p752
aVdactylosus
p753
aVrosaceus
p754
aVcephalus
p755
aVholomelas
p756
aVmento
p757
aVpectoralis
p758
aValbeolus
p759
aVadustus
p760
asVLiparis
p761
(lp762
Vflorae
p763
aVdennyi
p764
aVrutteri
p765
aVbristolensis
p766
aVtunicatus
p767
aVfabricii
p768
aVmarmoratus
p769
aVtessellatus
p770
aVcyclopus
p771
aVfucensis
p772
aVmiostomus
p773
aVmucosus
p774
aVpulchellus
p775
aVgibbus
p776
asVLopholiparis
p777
(lp778
Vflerxi
p779
asVNectoliparis
p780
(lp781
Vpelagicus
p782
asVElassodiscus
p783
(lp784
Vtremebundus
p785
aVcaudatus
p786
asVPrognatholiparis
p787
(lp788
Vptychomandibularis
p789
asVGyrinichthys
p790
(lp791
Vminytremus
p792
asVPolypera
p793
(lp794
Vsimushirae
p795
aVgreeni
p796
asVAllocareproctus
p797
(lp798
Vjordani
p799
aVtanix
p800
aVunangas
p801
aVungak
p802
aVkallaion
p803
asVLipariscus
p804
(lp805
Vnanus
p806
aVcallyodon
p807
aVcurilensis
p808
aVbrashnikovi
p809
asVPalmoliparis
p810
(lp811
Vbeckeri
p812
assVPlatycephalidae
p813
(dp814
VElates
p815
(lp816
Vransonnettii
p817
asVGrammoplites
p818
(lp819
Vscaber
p820
assVHemitripteridae
p821
(dp822
VBlepsias
p823
(lp824
Vcirrhosus
p825
aVbilobus
p826
asVHemitripterus
p827
(lp828
Vamericanus
p829
aVbolini
p830
asVNautichthys
p831
(lp832
Voculofasciatus
p833
aVpribilovius
p834
assVComephoridae
p835
(dp836
VComephorus
p837
(lp838
Vdybowskii
p839
assVHexagrammidae
p840
(dp841
VOxylebius
p842
(lp843
Vpictus
p844
asVPleurogrammus
p845
(lp846
Vmonopterygius
p847
asVHexagrammos
p848
(lp849
Vdecagrammus
p850
aVstelleri
p851
aVoctogrammus
p852
aVlagocephalus
p853
asVZaniolepis
p854
(lp855
Vlatipinnis
p856
aVfrenata
p857
asVOphiodon
p858
(lp859
Velongatus
p860
assVTriglidae
p861
(dp862
VPrionotus
p863
(lp864
Vlongispinosus
p865
aVmartis
p866
aVstearnsi
p867
aVophryas
p868
asVBellator
p869
(lp870
Vmilitaris
p871
assVCottidae
p872
(dp873
VOligocottus
p874
(lp875
Vmaculosus
p876
aVsnyderi
p877
asVEnophrys
p878
(lp879
Vtaurina
p880
aVlucasi
p881
aVbison
p882
aVdiceraus
p883
asVAtopocottus
p884
(lp885
Vtribranchius
p886
asVStlengis
p887
(lp888
Vdistoechus
p889
aVosensis
p890
asVFurcina
p891
(lp892
Vosimae
p893
aVishikawae
p894
asVOcynectes
p895
(lp896
Vmodestus
p897
asVStelgistrum
p898
(lp899
Vstejnegeri
p900
aVberingianum
p901
asVTriglops
p902
(lp903
Vdorothy
p904
aVforficatus
p905
aVjordani
p906
aVmacellus
p907
aVscepticus
p908
aVmurrayi
p909
aVmetopias
p910
aVxenostethus
p911
aVpingelii
p912
asVCottocomephorus
p913
(lp914
Vgrewingkii
p915
asVRastrinus
p916
(lp917
Vscutiger
p918
asVVellitor
p919
(lp920
Vminutus
p921
aVcentropomus
p922
asVPseudoblennius
p923
(lp924
Vmarmoratus
p925
asVChitonotus
p926
(lp927
Vpugetensis
p928
asVZesticelus
p929
(lp930
Vprofundorum
p931
asVCottiusculus
p932
(lp933
Vgonez
p934
asVCottus
p935
(lp936
Vasper
p937
aVchatahoochee
p938
aVhypselurus
p939
aVcognatus
p940
aVgobio
p941
aVgreenei
p942
aVricei
p943
aVhangiongensis
p944
aVpoecilopus
p945
aVimmaculatus
p946
aVpitensis
p947
aVspinulosus
p948
aVextensus
p949
aVklamathensis
p950
aVperplexus
p951
aVtenuis
p952
aVbaileyi
p953
aVcarolinae
p954
aVamblystomopsis
p955
aVgulosus
p956
aVasperrimus
p957
aVbairdii
p958
aVhubbsi
p959
aVechinatus
p960
aVbeldingii
p961
aVrhotheus
p962
aValeuticus
p963
aVprinceps
p964
aVpollux
p965
aVmarginatus
p966
aVleiopomus
p967
aVbendirei
p968
aVconfusus
p969
aVspecus
p970
asVPhasmatocottus
p971
(lp972
Vctenopterygius
p973
asVBolinia
p974
(lp975
Veuryptera
p976
asVMicrocottus
p977
(lp978
Vsellaris
p979
asVAscelichthys
p980
(lp981
Vrhodorus
p982
asVScorpaenichthys
p983
(lp984
Vmarmoratus
p985
asVCottunculus
p986
(lp987
Vmicrops
p988
asVRadulinopsis
p989
(lp990
Vderjavini
p991
asVParicelinus
p992
(lp993
Vhopliticus
p994
asVBero
p995
(lp996
Velegans
p997
asVParacottus
p998
(lp999
Vknerii
p1000
asVAsemichthys
p1001
(lp1002
Vtaylori
p1003
asVTrichocottus
p1004
(lp1005
Vbrashnikovi
p1006
asVRadulinus
p1007
(lp1008
Vvinculus
p1009
aVboleoides
p1010
aVasprellus
p1011
asVHemilepidotus
p1012
(lp1013
Vhemilepidotus
p1014
aVjordani
p1015
aVpapilio
p1016
aVzapus
p1017
aVspinosus
p1018
asVIcelus
p1019
(lp1020
Vbicornis
p1021
aVspatula
p1022
aVstenosomus
p1023
aVochotensis
p1024
aVspiniger
p1025
aVuncinalis
p1026
aVcanaliculatus
p1027
aVeuryops
p1028
asVMyoxocephalus
p1029
(lp1030
Vpolyacanthocephalus
p1031
aVniger
p1032
aVscorpius
p1033
aVscorpioides
p1034
aVquadricornis
p1035
aVstelleri
p1036
aVjaok
p1037
aVthompsonii
p1038
asVRicuzenius
p1039
(lp1040
Vnudithorax
p1041
aVpinetorum
p1042
asVThyriscus
p1043
(lp1044
Vanoplus
p1045
asVSigmistes
p1046
(lp1047
Vsmithi
p1048
asVSynchirus
p1049
(lp1050
Vgilli
p1051
asVJordania
p1052
(lp1053
Vzonope
p1054
asVIcelinus
p1055
(lp1056
Vpietschi
p1057
aVborealis
p1058
aVcavifrons
p1059
aVquadriseriatus
p1060
aVfilamentosus
p1061
aVoculatus
p1062
aVtenuis
p1063
aVburchami
p1064
asVArtedius
p1065
(lp1066
Vfenestralis
p1067
aVharringtoni
p1068
aVlateralis
p1069
aVnotospilotus
p1070
asVArchistes
p1071
(lp1072
Vbiseriatus
p1073
asVGymnocanthus
p1074
(lp1075
Vtricuspis
p1076
aVpistilliger
p1077
aVintermedius
p1078
aVgaleatus
p1079
aVdetrisus
p1080
asVRuscarius
p1081
(lp1082
Vmeanyi
p1083
asVLeiocottus
p1084
(lp1085
Vhirundo
p1086
asVLeptocottus
p1087
(lp1088
Varmatus
p1089
asVPhallocottus
p1090
(lp1091
Vobtusus
p1092
asVMegalocottus
p1093
(lp1094
Vplatycephalus
p1095
asVArtediellus
p1096
(lp1097
Vcamchaticus
p1098
aVpacificus
p1099
aVmiacanthus
p1100
aVfuscimentus
p1101
aVneyelovi
p1102
aVochotensis
p1103
aVdydymovi
p1104
aVgomojunovi
p1105
aVuncinatus
p1106
aVscaber
p1107
asVPorocottus
p1108
(lp1109
Vallisi
p1110
aVcamtschaticus
p1111
assVPsychrolutidae
p1112
(dp1113
VEurymen
p1114
(lp1115
Vgyrinus
p1116
asVPsychrolutes
p1117
(lp1118
Vparadoxus
p1119
aVphrictus
p1120
aVsigalutes
p1121
asVDasycottus
p1122
(lp1123
Vsetiger
p1124
asVMalacocottus
p1125
(lp1126
Vzonurus
p1127
aVkincaidi
p1128
assVCyclopteridae
p1129
(dp1130
VAptocyclus
p1131
(lp1132
Vventricosus
p1133
asVEumicrotremus
p1134
(lp1135
Vphrynoides
p1136
aVderjugini
p1137
aVandriashevi
p1138
aVspinosus
p1139
aVorbis
p1140
assVAgonidae
p1141
(dp1142
VBathyagonus
p1143
(lp1144
Vpentacanthus
p1145
aVnigripinnis
p1146
asVAgonomalus
p1147
(lp1148
Vmozinoi
p1149
aVproboscidalis
p1150
asVBothragonus
p1151
(lp1152
Voccidentalis
p1153
aVswani
p1154
asVAspidophoroides
p1155
(lp1156
Vmonopterygius
p1157
aVolrikii
p1158
asVStellerina
p1159
(lp1160
Vxyosterna
p1161
asVPodothecus
p1162
(lp1163
Vveternus
p1164
aVaccipenserinus
p1165
asVAgonopsis
p1166
(lp1167
Vchiloensis
p1168
aVvulsa
p1169
aVsterletus
p1170
asVHypsagonus
p1171
(lp1172
Vquadricornis
p1173
aVcorniger
p1174
asVSarritor
p1175
(lp1176
Vleptorhynchus
p1177
aVfrenatus
p1178
asVXeneretmus
p1179
(lp1180
Vleiops
p1181
aVtriacanthus
p1182
aVlatifrons
p1183
aVritteri
p1184
asVOdontopyxis
p1185
(lp1186
Vtrispinosa
p1187
asVLeptagonus
p1188
(lp1189
Vdecagonus
p1190
asVAgonus
p1191
(lp1192
Vcataphractus
p1193
asVBrachyopsis
p1194
(lp1195
Vsegaliensis
p1196
asVPercis
p1197
(lp1198
Vjaponica
p1199
asVAnoplagonus
p1200
(lp1201
Vinermis
p1202
asVOccella
p1203
(lp1204
Vdodecaedron
p1205
asssVElopiformes
p1206
(dp1207
VElopidae
p1208
(dp1209
VElops
p1210
(lp1211
Vsaurus
p1212
asssVAnguilliformes
p1213
(dp1214
VCongridae
p1215
(dp1216
VHeteroconger
p1217
(lp1218
Vlongissimus
p1219
assVAnguillidae
p1220
(dp1221
VAnguilla
p1222
(lp1223
Vrostrata
p1224
assS'Muraenidae'
p1225
(dp1226
VGymnothorax
p1227
(lp1228
Vchilospilus
p1229
asssVSalmoniformes
p1230
(dp1231
VSalmonidae
p1232
(dp1233
VOncorhynchus
p1234
(lp1235
Vmykiss
p1236
asssVSynbranchiformes
p1237
(dp1238
VMastacembelidae
p1239
(dp1240
VMastacembelus
p1241
(lp1242
Vsimbi
p1243
aVcrassus
p1244
aVaviceps
p1245
asssVOsteoglossiformes
p1246
(dp1247
VMormyridae
p1248
(dp1249
VMormyrus
p1250
(lp1251
Vrume
p1252
asVBrevimyrus
p1253
(lp1254
Vniger
p1255
assVOsteoglossidae
p1256
(dp1257
VOsteoglossum
p1258
(lp1259
Vbicirrhosum
p1260
assVNotopteridae
p1261
(dp1262
VNotopterus
p1263
(lp1264
Vnotopterus
p1265
asssVAulopiformes
p1266
(dp1267
VIpnopidae
p1268
(dp1269
VBathypterois
p1270
(lp1271
Vquadrifilis
p1272
asssVBatrachoidiformes
p1273
(dp1274
VBatrachoididae
p1275
(dp1276
VAphos
p1277
(lp1278
Vporosus
p1279
asVPerulibatrachus
p1280
(lp1281
Vrossignoli
p1282
asVHalophryne
p1283
(lp1284
Vocellatus
p1285
aVdiemensis
p1286
asVThalassophryne
p1287
(lp1288
Vamazonica
p1289
aVnattereri
p1290
aVmaculosa
p1291
asVDaector
p1292
(lp1293
Vreticulata
p1294
aVdowi
p1295
asVBarchatus
p1296
(lp1297
Vindicus
p1298
aVcirrhosus
p1299
asVSanopus
p1300
(lp1301
Vreticulatus
p1302
aVastrifer
p1303
aVgreenfieldorum
p1304
asVTriathalassothia
p1305
(lp1306
Vargentina
p1307
asVChatrabus
p1308
(lp1309
Vmelanurus
p1310
asVOpsanus
p1311
(lp1312
Vpardus
p1313
aVphobetron
p1314
aVbeta
p1315
asVAllenbatrachus
p1316
(lp1317
Vreticulatus
p1318
asVColletteichthys
p1319
(lp1320
Vdussumieri
p1321
aVoccidentalis
p1322
asVPorichthys
p1323
(lp1324
Vbathoiketes
p1325
aVgreenei
p1326
aVpauciradiatus
p1327
aVporosissimus
p1328
aVmargaritatus
p1329
aVplectrodon
p1330
asVVladichthys
p1331
(lp1332
Vgloverensis
p1333
asVBifax
p1334
(lp1335
Vlacinia
p1336
asVBatrachomoeus
p1337
(lp1338
Vdubius
p1339
aVtrispinosus
p1340
asVAmphichthys
p1341
(lp1342
Vcryptocentrus
p1343
asssVCypriniformes
p1344
(dp1345
VNemacheilidae
p1346
(dp1347
VPhysoschistura
p1348
(lp1349
Vpseudobrunneana
p1350
asVTraccatichthys
p1351
(lp1352
Vpulcher
p1353
asVNeonoemacheilus
p1354
(lp1355
Vlabeosus
p1356
asVSchistura
p1357
(lp1358
Vaurantiaca
p1359
asVTuberoschistura
p1360
(lp1361
Vbaenzigeri
p1362
asVNemacheilus
p1363
(lp1364
Vpallidus
p1365
aVmasyae
p1366
assVCatostomidae
p1367
(dp1368
VMinytrema
p1369
(lp1370
Vmelanops
p1371
asVMoxostoma
p1372
(lp1373
Vpoecilurum
p1374
asVCarpiodes
p1375
(lp1376
Vcarpio
p1377
aVcyprinus
p1378
assVSerpenticobitidae
p1379
(dp1380
VSerpenticobitis
p1381
(lp1382
Vzonata
p1383
assVPsilorhynchidae
p1384
(dp1385
VPsilorhynchus
p1386
(lp1387
Vsucatio
p1388
assVBotiidae
p1389
(dp1390
VChromobotia
p1391
(lp1392
Vmacracanthus
p1393
assVCyprinidae
p1394
(dp1395
VMeda
p1396
(lp1397
Vfulgida
p1398
asVCosmochilus
p1399
(lp1400
Vharmandi
p1401
asVBarbus
p1402
(lp1403
Vaspilus
p1404
aVditinensis
p1405
aVanema
p1406
aVdialonensis
p1407
aVbigornei
p1408
aVeburneensis
p1409
aVfoutensis
p1410
aVcallipterus
p1411
aVmagdalenae
p1412
aVapleurogramma
p1413
aVaspius
p1414
aVcamptacanthus
p1415
aVsp.
p1416
aVmacrops
p1417
aVperince
p1418
aVsublineatus
p1419
aVtiekoroi
p1420
aVmawambiensis
p1421
aVfasciolatus
p1422
aVtrispilos
p1423
aVbifrenatus
p1424
aVtrimaculatus
p1425
aVmultilineatus
p1426
aVkerstenii
p1427
aVholotaenia
p1428
aVneumayeri
p1429
aVpoechii
p1430
aVmartorelli
p1431
aVablabes
p1432
aVneefi
p1433
aVatromaculatus
p1434
aVpunctitaeniatus
p1435
aVlineomaculatus
p1436
aVbrevidorsalis
p1437
aVguineensis
p1438
aVpaludinosus
p1439
aVeutaenia
p1440
aVatkinsoni
p1441
aVradiatus
p1442
aVwaageni
p1443
aVguildi
p1444
aVviviparus
p1445
aVvittatus
p1446
aVraimbaulti
p1447
aVoligolepis
p1448
aVniokoloensis
p1449
aVasper
p1450
aVtrispilopleura
p1451
aVafrovernayi
p1452
aVtrispilomimus
p1453
aVguirali
p1454
aVafer
p1455
aVbarotseensis
p1456
aVmacinensis
p1457
aVcastrasibutum
p1458
aVchlorotaenia
p1459
aVjae
p1460
aVhuguenyi
p1461
aVpobeguini
p1462
aVanoplus
p1463
aVunitaeniatus
p1464
aVarcislongae
p1465
aVspurrelli
p1466
aVinaequalis
p1467
aVnigeriensis
p1468
aVcf. macrops
p1469
aVcallensis
p1470
aVbynni
p1471
aVafrohamiltoni
p1472
aVzanzibaricus
p1473
aValtus
p1474
aVbarbus
p1475
aVconcharius
p1476
aVmiolepis
p1477
aVgurneyi
p1478
aVhumilis
p1479
aVnigrofasciatus
p1480
aVwerneri
p1481
aVtitius
p1482
aVluteus
p1483
aVaeneus
p1484
aVburchelli
p1485
aVlujae
p1486
aVtrevelyani
p1487
aVmacrotaenia
p1488
aVstigmatopygus
p1489
aVeveretti
p1490
aVspp.
p1491
aVmeridionalis
p1492
aVkessleri
p1493
aVlaticeps
p1494
aVsp. 1
p1495
aVinnocens
p1496
aVcyclolepis
p1497
aVnatalensis
p1498
aVoxyrhynchus
p1499
aVmattozi
p1500
asVNeolissochilus
p1501
(lp1502
Vsoroides
p1503
asVMicrodevario
p1504
(lp1505
Vkubotai
p1506
asVLabeo
p1507
(lp1508
Vlongipinnis
p1509
aVlineatus
p1510
aVnasus
p1511
aVparvus
p1512
aVlukulae
p1513
asVDionda
p1514
(lp1515
Vdiaboli
p1516
aVmelanops
p1517
aVepiscopa
p1518
aVserena
p1519
aVargentosa
p1520
aVnigrotaeniata
p1521
asVPseudobarbus
p1522
(lp1523
Vafer
p1524
aVphlegethon
p1525
aVasper
p1526
asVSemotilus
p1527
(lp1528
Vatromaculatus
p1529
aVcorporalis
p1530
aVthoreauianus
p1531
asVChrosomus
p1532
(lp1533
Verythrogaster
p1534
aVeos
p1535
aVoreas
p1536
aVsaylori
p1537
asVErimystax
p1538
(lp1539
Vharryi
p1540
aVinsignis
p1541
aVdissimilis
p1542
asVHypophthalmichthys
p1543
(lp1544
Vnobilis
p1545
asVTampichthys
p1546
(lp1547
Vipni
p1548
asVCampostoma
p1549
(lp1550
Vpullum
p1551
aVanomalum
p1552
aVoligolepis
p1553
aVspadiceum
p1554
aVornatum
p1555
aVpauciradii
p1556
asVSnyderichthys
p1557
(lp1558
Vcopei
p1559
asVPimephales
p1560
(lp1561
Vvigilax
p1562
aVnotatus
p1563
aVtenellus
p1564
aVpromelas
p1565
asVCouesius
p1566
(lp1567
Vplumbeus
p1568
asVMylocheilus
p1569
(lp1570
Vcaurinus
p1571
asVPlatygobio
p1572
(lp1573
Vgracilis
p1574
asVGila
p1575
(lp1576
Vcoerulea 
p1577
asVMargariscus
p1578
(lp1579
Vmargarita
p1580
asVRichardsonius
p1581
(lp1582
Vegregius
p1583
asVNocomis
p1584
(lp1585
Vasper
p1586
aVraneyi
p1587
aVbiguttatus
p1588
aVleptocephalus
p1589
aVmicropogon
p1590
aVeffusus
p1591
asVMylopharodon
p1592
(lp1593
Vconocephalus
p1594
asVRhinichthys
p1595
(lp1596
Vcataractae
p1597
aVevermanni
p1598
asVYuriria
p1599
(lp1600
Valta
p1601
asVRaiamas
p1602
(lp1603
Vsenegalensis
p1604
asVPogonichthys
p1605
(lp1606
Vciscoides
p1607
asVAcrocheilus
p1608
(lp1609
Valutaceus
p1610
asVLepidomeda
p1611
(lp1612
Valbivallis
p1613
aVmollispinis
p1614
asVCyprinella
p1615
(lp1616
Vlepida
p1617
aVlutrensis
p1618
aVcamura
p1619
aVgalactura
p1620
aVspiloptera
p1621
aVcallistia
p1622
aVxaenurus
p1623
aVvenusta
p1624
aVleedsi
p1625
aVwhipplei
p1626
aVnivea
p1627
aVformosa
p1628
aVmonacha
p1629
aVproserpina
p1630
aVanalostana
p1631
aVlabrosa
p1632
aVvenusta cercostigma
p1633
aVtrichroistia
p1634
asVGarra
p1635
(lp1636
Vfuliginosa
p1637
asVCandidia
p1638
(lp1639
Vbarbata
p1640
asVLuxilus
p1641
(lp1642
Vchrysocephalus
p1643
aVcoccogenis
p1644
aVcerasinus
p1645
aVcardinalis
p1646
aVzonatus
p1647
aValbeolus
p1648
aVcornutus
p1649
aVpilsbryi
p1650
asVPhoxinus
p1651
(lp1652
Vsemotilus
p1653
asVAlgansea
p1654
(lp1655
Vlacustris
p1656
aVtincella
p1657
aVrubescens
p1658
aVaphanea
p1659
aVmonticola
p1660
asVLavinia
p1661
(lp1662
Vexilicauda
p1663
asVHybopsis
p1664
(lp1665
Vlineapunctata
p1666
aVwinchelli
p1667
asVAztecula
p1668
(lp1669
Vsallaei
p1670
asVClinostomus
p1671
(lp1672
Velongatus
p1673
asVLythrurus
p1674
(lp1675
Vfasciolaris
p1676
aVardens
p1677
aVbellus
p1678
aVfumeus
p1679
aVmatutinus
p1680
asVCodoma
p1681
(lp1682
Vornata
p1683
asVPuntius
p1684
(lp1685
Vterio
p1686
asVRelictus
p1687
(lp1688
Vsolitarius
p1689
asVExoglossum
p1690
(lp1691
Vlaurae
p1692
aVmaxillingua
p1693
asVClypeobarbus
p1694
(lp1695
Vpleuropholis
p1696
aVhypsolepis
p1697
aVcongicus
p1698
asVLabeobarbus
p1699
(lp1700
Vmawambiensis
p1701
aVhabereri
p1702
aVwurtzi
p1703
aVpetitjeani
p1704
aVsacratus
p1705
aVcaudovittatus
p1706
aVbatesii
p1707
aVpolylepis
p1708
aVmarequensis
p1709
asVOsteochilus
p1710
(lp1711
Vmelanopleurus
p1712
asVPtychocheilus
p1713
(lp1714
Vumpquae
p1715
aVgrandis
p1716
asVNotropis
p1717
(lp1718
VNotropis 
p1719
aVrubricroceus 
p1720
aVbuccula 
p1721
aVhypsilepis
p1722
asVHybognathus
p1723
(lp1724
Vhayi
p1725
aVplacitus
p1726
aVhankinsoni
p1727
aVregius
p1728
aVargyritis
p1729
asVPhenacobius
p1730
(lp1731
Vmirabilis
p1732
aVcatostomus
p1733
asVEremichthys
p1734
(lp1735
Vacros
p1736
asVHenicorhynchus
p1737
(lp1738
Vlobatus
p1739
asVMacrhybopsis
p1740
(lp1741
Vstoreriana
p1742
aVaustralis
p1743
assVCobitidae
p1744
(dp1745
VSectoria
p1746
(lp1747
Vatriceps
p1748
asVAcantopsis
p1749
(lp1750
Vsp
p1751
asVSabanejewia
p1752
(lp1753
Vlarvata
p1754
assVBarbuccidae
p1755
(dp1756
VBarbucca
p1757
(lp1758
Vdiabolica
p1759
assVBalitoridae
p1760
(dp1761
VBalitora
p1762
(lp1763
Vbrucei
p1764
aVburmanica
p1765
asVSewellia
p1766
(lp1767
Velongata
p1768
asVSinogastromyzon
p1769
(lp1770
Vpuliensis
p1771
asVBeaufortia
p1772
(lp1773
Vkweichowensis
p1774
asVBalitoropsis
p1775
(lp1776
Vophiolepis
p1777
aVzollingeri
p1778
asVPseudohomaloptera
p1779
(lp1780
Vsexmaculata
p1781
asVHomalopterula
p1782
(lp1783
Vripleyi
p1784
aVgymnogaster
p1785
asVHomalopteroides
p1786
(lp1787
Vnebulosus
p1788
aVsmithi
p1789
aVrupicola
p1790
aVweberi
p1791
aVavii
p1792
aVwassinkii
p1793
asVFormosania
p1794
(lp1795
Vlacustre
p1796
asVNeohomaloptera
p1797
(lp1798
Vjohorensis
p1799
aV johorensis
p1800
asVBarbatula
p1801
(lp1802
Vbarbatula
p1803
asVYaoshania
p1804
(lp1805
Vpachychilus
p1806
asVHemimyzon
p1807
(lp1808
Vformosanus
p1809
asVGastromyzon
p1810
(lp1811
Vborneensis
p1812
asssVSiluriformes
p1813
(dp1814
VAuchenipteridae
p1815
(dp1816
VTrachycorystes
p1817
(lp1818
Vporosus
p1819
assS'Clariidae'
p1820
(dp1821
VClarias
p1822
(lp1823
Vbatrachus
p1824
assVIctaluridae
p1825
(dp1826
VAmeiurus
p1827
(lp1828
Vmelas
p1829
asVTrogloglanis
p1830
(lp1831
Vpattersoni
p1832
asVSatan
p1833
(lp1834
Veurystomus
p1835
asVPylodictis
p1836
(lp1837
Volivaris
p1838
asVNoturus
p1839
(lp1840
Vnocturnus
p1841
aVflavus
p1842
aVphaeus
p1843
asVIctalurus
p1844
(lp1845
Vpunctatus
p1846
assVTrichomycteridae
p1847
(dp1848
VTrichomycterus
p1849
(lp1850
V
aVareolatus
p1851
aVguianense
p1852
assS'Helogeneidae'
p1853
(dp1854
VHelogenes
p1855
(lp1856
Vmarmoratus
p1857
assVPimelodidae
p1858
(dp1859
VPimelodus
p1860
(lp1861
Vblochii
p1862
assVBagridae
p1863
(dp1864
VMystus
p1865
(lp1866
Varmatus
p1867
assVCallichthyidae
p1868
(dp1869
VCorydoras
p1870
(lp1871
Vsp.
p1872
assVAriidae
p1873
(dp1874
VBagre
p1875
(lp1876
Vmarinus
p1877
assVSisoridae
p1878
(dp1879
VBagarius
p1880
(lp1881
Vbagarius
p1882
asVMyersglanis
p1883
(lp1884
Vblythii
p1885
asVPseudolaguvia
p1886
(lp1887
Vkapuri
p1888
assVAspredinidae
p1889
(dp1890
VBunocephalus
p1891
(lp1892
Vcoracoideus
p1893
assVHeptapteridae
p1894
(dp1895
VRhamdia
p1896
(lp1897
Vquelen
p1898
assVHeteropneustidae
p1899
(dp1900
VHeteropneustes
p1901
(lp1902
Vfossilis
p1903
asssVOsmeriformes
p1904
(dp1905
VOsmeridae
p1906
(dp1907
VHypomesus
p1908
(lp1909
Vpretiosus
p1910
aVnipponensis
p1911
asssVStomiiformes
p1912
(dp1913
VGonostomatidae
p1914
(dp1915
VGonostoma
p1916
(lp1917
Velongatum
p1918
assVSternoptychidae
p1919
(dp1920
VSternoptyx
p1921
(lp1922
Vobscura
p1923
aVdiaphana
p1924
aVpseudobscura
p1925
asVPolyipnus
p1926
(lp1927
Vindicus
p1928
asVArgyropelecus
p1929
(lp1930
Vlychnus
p1931
aVolfersii
p1932
aVsladeni
p1933
aVaffinis
p1934
assVStomiidae
p1935
(dp1936
VStomias
p1937
(lp1938
Vatriventer
p1939
asVEustomias
p1940
(lp1941
Vbifilis
p1942
assS'Chauliodontidae'
p1943
(dp1944
VChauliodus
p1945
(lp1946
Vsloani
p1947
asssVGasterosteiformes
p1948
(dp1949
VSyngnathidae
p1950
(dp1951
VHippocampus
p1952
(lp1953
Vbargibanti
p1954
asssVPolypteriformes
p1955
(dp1956
VPolypteridae
p1957
(dp1958
VPolypterus
p1959
(lp1960
Vsenegalus
p1961
asssVCyprinodontiformes
p1962
(dp1963
VPoeciliidae
p1964
(dp1965
VPoecilia
p1966
(lp1967
Vreticulata
p1968
asssVMugiliformes
p1969
(dp1970
VMugilidae
p1971
(dp1972
VMugil
p1973
(lp1974
Vcephalus
p1975
asssVPleuronectiformes
p1976
(dp1977
VAchiridae
p1978
(dp1979
VTrinectes
p1980
(lp1981
Vmaculatus
p1982
aVfimbriatus
p1983
aVfonsecensis
p1984
aVfluviatilis
p1985
asVHypoclinemus
p1986
(lp1987
Vmentalis
p1988
asVAchirus
p1989
(lp1990
Vscutum
p1991
aVlineatus
p1992
asVGymnachirus
p1993
(lp1994
Vmelas
p1995
assVPleuronectidae
p1996
(dp1997
VParophrys
p1998
(lp1999
Vvetulus
p2000
asssVLepisosteiformes
p2001
(dp2002
VLepisosteidae
p2003
(dp2004
VLepisosteus
p2005
(lp2006
Vplatyrhincus
p2007
aVoculatus
p2008
asssVAtheriniformes
p2009
(dp2010
VAtherinopsidae
p2011
(dp2012
VLabidesthes
p2013
(lp2014
Vsicculus
p2015
aVvanhyningi
p2016
asVMenidia
p2017
(lp2018
Vberyllina
p2019
asssVPolymixiiformes
p2020
(dp2021
VPolymixiidae
p2022
(dp2023
VPolymixia
p2024
(lp2025
Vlowei
p2026
asssVAngulliformes
p2027
(dp2028
VNettastomatidae
p2029
(dp2030
VSaurenchelys
p2031
(lp2032
Vcognita
p2033
assVOphichthidae
p2034
(dp2035
VOphichthus
p2036
(lp2037
Vrex
p2038
asVApterichtus
p2039
(lp2040
Vkendalli
p2041
asssVTetraodontiformes
p2042
(dp2043
VDiodontidae
p2044
(dp2045
VDiodon
p2046
(lp2047
Vhystrix
p2048
assVOstraiontidae
p2049
(dp2050
VAcanthostracion
p2051
(lp2052
Vquadricornis
p2053
assVTetraodontidae
p2054
(dp2055
VLagocephalus
p2056
(lp2057
Vlaevigatus
p2058
aVlagocephalus
p2059
aVsceleratus
p2060
aVinermis
p2061
aVlunaris
p2062
aVguentheri
p2063
asVTakifugu
p2064
(lp2065
Voblongus
p2066
asVColomesus
p2067
(lp2068
Vpsittacus
p2069
aVtocantinensis
p2070
asVPelagocephalus
p2071
(lp2072
Vmarki
p2073
asVTetraodon
p2074
(lp2075
Vfluviatilis
p2076
aVmiurus
p2077
aVerythrotaenia
p2078
aVpustulatus
p2079
aVlineatus
p2080
asVTylerius
p2081
(lp2082
Vspinosissimus
p2083
asVCarinotetraodon
p2084
(lp2085
Vlorteti
p2086
asVArothron
p2087
(lp2088
Vmanilensis
p2089
aVhispidus
p2090
aVnigropunctatus
p2091
aVmeleagris
p2092
aVimmaculatus
p2093
aVdiadematus
p2094
aVmappa
p2095
asVLeiodon
p2096
(lp2097
Vcutcutia
p2098
asVAuriglobus
p2099
(lp2100
Vsilus
p2101
aVmodestus
p2102
asVSphoeroides
p2103
(lp2104
Vlobatus
p2105
aVtestudineus
p2106
aVmaculatus
p2107
aVpachygaster
p2108
aVparvus
p2109
aVnephelus
p2110
aVspengleri
p2111
aVdorsalis
p2112
aVlispus
p2113
asVCanthigaster
p2114
(lp2115
Vfigueiredoi
p2116
aVrostrata
p2117
aVsolandri
p2118
aVpunctatissima
p2119
aVcoronata
p2120
aVvalentini
p2121
aVjactator
p2122
aVbennetti
p2123
aVamboinensis
p2124
aVsmithae
p2125
aVcompressa
p2126
aVpapua
p2127
asVPao
p2128
(lp2129
Vleiurus
p2130
aVcambodgiensis
p2131
aVsuvattii
p2132
assVBalitoridae:balitorinae
p2133
(dp2134
VHomaloptera
p2135
(lp2136
Vrupicola
p2137
aVmontana
p2138
aVsexmaculata
p2139
aVstephensoni
p2140
aVgymnogaster
p2141
aVocellata
p2142
assVBalistidae
p2143
(dp2144
VOxymonacanthus
p2145
(lp2146
Vlongirostris
p2147
asVSufflamen
p2148
(lp2149
Vchrysopterum
p2150
asVCanthidermis
p2151
(lp2152
Vmacrolepis
p2153
asVBalistapus
p2154
(lp2155
Vundulatus
p2156
asVBalistes
p2157
(lp2158
VBalistes
p2159
aVchrysopterus
p2160
aVpolylepis
p2161
asVMelichthys
p2162
(lp2163
Vniger
p2164
asVOdonus
p2165
(lp2166
Vniger
p2167
asVPervagor
p2168
(lp2169
Vspilosoma
p2170
aVjanthinosoma
p2171
asVRhinecanthus
p2172
(lp2173
Vaculeatus
p2174
aVverrucosus
p2175
assVTriacanthodidae
p2176
(dp2177
VTydemania
p2178
(lp2179
Vnavigatoris
p2180
assVMolidae
p2181
(dp2182
VRanzania
p2183
(lp2184
Vlaevis
p2185
assVMonacanthidae
p2186
(dp2187
VCantherhines
p2188
(lp2189
Vsandwichiensis
p2190
aVpardalis
p2191
asVMonacanthus
p2192
(lp2193
Vciliatus
p2194
asVAcreichthys
p2195
(lp2196
Vtomentosus
p2197
asVStephanolepis
p2198
(lp2199
Vhispidus
p2200
aVtomentosus
p2201
aVdiaspros
p2202
asVAlutera
p2203
(lp2204
Vscripta
p2205
asssVBeryciformes
p2206
(dp2207
VAnoplogastridae
p2208
(dp2209
VAnoplogaster
p2210
(lp2211
Vcornuta
p2212
asssVEsociformes
p2213
(dp2214
VEsocidae
p2215
(dp2216
VEsox
p2217
(lp2218
Vamericanus
p2219
asssVOphidiiformes
p2220
(dp2221
VOphidiidae
p2222
(dp2223
VPorogadus
p2224
(lp2225
Vmiles
p2226
asVBassozetus
p2227
(lp2228
Vzenkevitchi
p2229
asssVBeloniformes
p2230
(dp2231
VHemiramphidae
p2232
(dp2233
VDermogenys
p2234
(lp2235
Vbruneiensis
p2236
assVBelonidae
p2237
(dp2238
VPetalichthys
p2239
(lp2240
Vcapensis
p2241
asVBelonion
p2242
(lp2243
Vapodion
p2244
aVdibranchodon
p2245
asVPseudotylosurus
p2246
(lp2247
Vangusticeps
p2248
asVStrongylura
p2249
(lp2250
Vfluviatilis
p2251
aVkrefftii
p2252
asssVCharaciformes
p2253
(dp2254
VProchilodontidae
p2255
(dp2256
VProchilodus
p2257
(lp2258
Vnigricans
p2259
assVGasteropelecidae
p2260
(dp2261
VThoracocharax
p2262
(lp2263
Vstellatus
p2264
assVCynodontidae
p2265
(dp2266
VCynodon
p2267
(lp2268
Vgibbus
p2269
assVSerrasalmidae
p2270
(dp2271
VMylesinus
p2272
(lp2273
Vpaucisquamatus
p2274
asVAcnodon
p2275
(lp2276
Vnormani
p2277
asVOssubtus
p2278
(lp2279
Vxinguense
p2280
asVMyloplus
p2281
(lp2282
Vrhomboidalis
p2283
aVrubripinnis
p2284
asVCatoprion
p2285
(lp2286
Vmento
p2287
asVMyleus
p2288
(lp2289
Vrubripinnis
p2290
aVrhomboidalis
p2291
aVschomburgkii
p2292
aVsetiger
p2293
aVtorquatus
p2294
aVlevis
p2295
aVasterias
p2296
asVSerrasalmus
p2297
(lp2298
Vmanueli
p2299
aVmedinai
p2300
aVeigenmanni
p2301
aVmaculatus
p2302
aVspilopleura
p2303
aVirritans
p2304
aVbrandtii
p2305
aVrhombeus
p2306
aVelongatus
p2307
aVmarginatus
p2308
asVPygopristis
p2309
(lp2310
Vdenticulata
p2311
asVPygocentrus
p2312
(lp2313
Vnattereri
p2314
aVpiraya
p2315
aVcariba
p2316
assVTriportheidae
p2317
(dp2318
VTriportheus
p2319
(lp2320
Velongatus
p2321
assVChalceidae
p2322
(dp2323
VChalceus
p2324
(lp2325
Vmacrolepidotus
p2326
assVAnostomidae
p2327
(dp2328
VPseudanos
p2329
(lp2330
Vtrimaculatus
p2331
aVgracilis
p2332
aVirinae
p2333
asVLeporellus
p2334
(lp2335
Vvittatus
p2336
asVHypomasticus
p2337
(lp2338
Vmegalepis
p2339
asVLaemolyta
p2340
(lp2341
Vgarmani
p2342
asVPetulanos
p2343
(lp2344
Vspiloclistron
p2345
asVLeporinus
p2346
(lp2347
Vfasciatus
p2348
aVortomaculatus
p2349
aVnigrotaeniatus
p2350
aVagassizii
p2351
aVtrifasciatus
p2352
aVtaeniatus
p2353
asVRhytiodus
p2354
(lp2355
Vlauzannei
p2356
asVSynaptolaemus
p2357
(lp2358
Vcingulatus
p2359
asVAnostomus
p2360
(lp2361
Vanostomus
p2362
aVternetzi
p2363
assVCharacidae
p2364
(dp2365
VRhaphiodon
p2366
(lp2367
Vvulpinus
p2368
asVPristobrycon
p2369
(lp2370
Vcalmoni
p2371
aVstriolatus
p2372
asVAstyanax
p2373
(lp2374
Vmexicanus
p2375
asVMylossoma
p2376
(lp2377
Vduriventre
p2378
asVExodon
p2379
(lp2380
Vparadoxus
p2381
asVMetynnis
p2382
(lp2383
Vhypsauchen
p2384
aVluna
p2385
aValtidorsalis
p2386
asVColossoma
p2387
(lp2388
Vmacropomum
p2389
asVRoeboides
p2390
(lp2391
Vdayi
p2392
aVoccidentalis
p2393
aVbouchellei
p2394
aVguatemalensis
p2395
aVmyersii
p2396
aVaffinis
p2397
asVAgoniates
p2398
(lp2399
V
aVsp.
p2400
asVPiaractus
p2401
(lp2402
Vbrachypomus
p2403
assssS'Myxini'
p2404
(dp2405
VMyxiniformes
p2406
(dp2407
VMyxinidae
p2408
(dp2409
VEptatretus
p2410
(lp2411
Vlopheliae
p2412
assssVChondrichthyes
p2413
(dp2414
VTorpediniformes
p2415
(dp2416
VNarcinidae
p2417
(dp2418
VDiplobatis
p2419
(lp2420
Vpictus
p2421
asVNarke
p2422
(lp2423
Vdipterygia
p2424
assS'Torpedinidae'
p2425
(dp2426
VNarcine
p2427
(lp2428
Vwestaustraliensis
p2429
asssVMyliobatiformes
p2430
(dp2431
VUrolophidae
p2432
(dp2433
VUrotrygon
p2434
(lp2435
Vnana
p2436
aVrogersi
p2437
aVchilensis
p2438
aVsimulatrix
p2439
aVvenezuelae
p2440
aVaspidura
p2441
asVUrobatis
p2442
(lp2443
Vtumbesensis
p2444
aVhalleri
p2445
asVUrolophus
p2446
(lp2447
Vcruciatus
p2448
assVDasyatidae
p2449
(dp2450
VHimantura
p2451
(lp2452
Vimbricata
p2453
aVwalga
p2454
asVTaeniura
p2455
(lp2456
Vlymma
p2457
asVNeotrygon
p2458
(lp2459
Vkuhlii
p2460
asVDasyatis
p2461
(lp2462
Vakajei
p2463
aVzugei
p2464
aVguttata
p2465
aVamericana
p2466
asssVEugeneodontida
p2467
(dp2468
VEdestidae
p2469
(dp2470
VEdestus
p2471
(lp2472
Vheinrichi
p2473
asssVSqualiformes
p2474
(dp2475
VEtmopteridae
p2476
(dp2477
VEtmopterus
p2478
(lp2479
Vvirens
p2480
asssVCtenacanthiformes
p2481
(dp2482
VCtenacanthidae
p2483
(dp2484
VCarcharopsis
p2485
(lp2486
Vwortheni
p2487
asssVLamniformes
p2488
(dp2489
VLamnidae
p2490
(dp2491
VCarcharocles
p2492
(lp2493
Vauriculatus
p2494
aVmegalodon
p2495
asssVRajiformes
p2496
(dp2497
VPotamotrygonidae
p2498
(dp2499
VPotamotrygon
p2500
(lp2501
Vsp
p2502
asssVPristiformes
p2503
(dp2504
VPristidae
p2505
(dp2506
VPristis
p2507
(lp2508
Vpectinata
p2509
assssS'Mammalia (and fossil outgroups)'
p2510
(dp2511
V
(dp2512
VAdapisoriculidae
p2513
(dp2514
VAfrodon
p2515
(lp2516
Vgheerbranti
p2517
asVBustylus
p2518
(lp2519
Vmarandati
p2520
assVSudamericidae
p2521
(dp2522
VVintana
p2523
(lp2524
Vsertichi
p2525
asssVDocodonta
p2526
(dp2527
VDocodontidae
p2528
(dp2529
VKrusatodon
p2530
(lp2531
Vkirtlingtonensis
p2532
asssVPholidota
p2533
(dp2534
VManidae
p2535
(dp2536
VManis
p2537
(lp2538
Vsp.
p2539
asssVRodentia
p2540
(dp2541
V
(dp2542
VMubhammys
p2543
(lp2544
Vvadumensis
p2545
asVBirkamys
p2546
(lp2547
Vkorai
p2548
assVMuridae
p2549
(dp2550
VMicromys
p2551
(lp2552
Vminutus
p2553
asVMus
p2554
(lp2555
Vmusculus
p2556
asVApomys
p2557
(lp2558
Vmicrodon
p2559
asVMeriones
p2560
(lp2561
Vhurrianae
p2562
asVAkodon
p2563
(lp2564
Vaffinis
p2565
asVPhloeomys
p2566
(lp2567
Vcumingi
p2568
asVGerbillus
p2569
(lp2570
Vcheesmani
p2571
aVnanus
p2572
asVRattus
p2573
(lp2574
Vturkestanicus
p2575
aVpyctoris
p2576
asVRhizomys
p2577
(lp2578
Vsumatrensis
p2579
asVNesokia
p2580
(lp2581
Vindica
p2582
asVPsammomys
p2583
(lp2584
Vobesus
p2585
asVPrionomys
p2586
(lp2587
Vbatesi
p2588
asVAcomys
p2589
(lp2590
Vcahirinus
p2591
asVTatera
p2592
(lp2593
Vindica
p2594
assVNesomyidae
p2595
(dp2596
VCricetomys
p2597
(lp2598
Vgambianus
p2599
assVCaviidae
p2600
(dp2601
VProdolichotis
p2602
(lp2603
Vpridiana
p2604
asVPhugatherium
p2605
(lp2606
Vdichroplax
p2607
assVCuniculidae
p2608
(dp2609
VCuniculus
p2610
(lp2611
Vpaca
p2612
assVReithroparamyidae
p2613
(dp2614
VReithroparamys
p2615
(lp2616
Vsp.
p2617
assVAlagomyidae
p2618
(dp2619
VAlagomys
p2620
(lp2621
Vrusselli
p2622
aVdashzevegi
p2623
aVsp.
p2624
assVErethizontidae
p2625
(dp2626
VCoendou
p2627
(lp2628
Vprehensilis
p2629
asVErethizon
p2630
(lp2631
Vdorsatum
p2632
assS'Jimomyidae'
p2633
(dp2634
S'Texomys'
p2635
(lp2636
Vstewarti
p2637
aVsp. 
p2638
assVIschyromyidae
p2639
(dp2640
VAcritoparamys
p2641
(lp2642
Vatavus
p2643
aVatwateri
p2644
asVMicroparamys
p2645
(lp2646
Vcheradius
p2647
asVParamys
p2648
(lp2649
Vdelicatus
p2650
asVIschyromys
p2651
(lp2652
Vtypus
p2653
assVSciuridae
p2654
(dp2655
VDremomys
p2656
(lp2657
Vrufigenis
p2658
asVHeliosciurus
p2659
(lp2660
Vrufobrachium
p2661
asVSpermophilus
p2662
(lp2663
Vsp.
p2664
asVHylopetes
p2665
(lp2666
Vspadiceus
p2667
asVTamiasciurus
p2668
(lp2669
Vdouglasii
p2670
asVGlaucomys
p2671
(lp2672
Vvolans
p2673
asVLariscus
p2674
(lp2675
Vinsignis
p2676
asVPetinomys
p2677
(lp2678
Vsetosus
p2679
asVProtoxerus
p2680
(lp2681
Vstangeri
p2682
asVParaxerus
p2683
(lp2684
Vcepapi
p2685
asVCallosciurus
p2686
(lp2687
Vsp
p2688
asVEutamias
p2689
(lp2690
Vminimus
p2691
asVPetaurista
p2692
(lp2693
Vpetaurista
p2694
asVFunisciurus
p2695
(lp2696
Vpyrropus
p2697
asVRatufa
p2698
(lp2699
Vaffinis
p2700
asVRhinosciurus
p2701
(lp2702
Vlaticaudatus
p2703
asVSciurus
p2704
(lp2705
Vcarolinensis
p2706
aVgranatensis
p2707
aVsp.
p2708
asVAeromys
p2709
(lp2710
Vtephromelas
p2711
assVCricetidae
p2712
(dp2713
VOtotylomys
p2714
(lp2715
Vphyllotis
p2716
asVNyctomys
p2717
(lp2718
Vsumichrasti
p2719
asVCopemys
p2720
(lp2721
Vlindsayi
p2722
asVPeromyscus
p2723
(lp2724
Vgossypinus
p2725
aVpulverulenus
p2726
aVleucopus
p2727
asVMyodes
p2728
(lp2729
Vgapperi
p2730
asVOchrotomys
p2731
(lp2732
Vnuttalli
p2733
asVOnychomys
p2734
(lp2735
Vtorridus
p2736
asVAlticola
p2737
(lp2738
Vargentatus
p2739
asVNeofiber
p2740
(lp2741
Valleni
p2742
asVBaiomys
p2743
(lp2744
Vtaylori
p2745
asVNeotoma
p2746
(lp2747
Valbigula
p2748
aVcinerea
p2749
aVfloridana
p2750
asVLemmus
p2751
(lp2752
Vtrimucronatus
p2753
asVNectomys
p2754
(lp2755
Vsquamipes
p2756
asVSynaptomys
p2757
(lp2758
Vcooperi
p2759
asVMesocricetus
p2760
(lp2761
Vauratus
p2762
asVPodomys
p2763
(lp2764
Vfloridanus
p2765
asVMicrotus
p2766
(lp2767
Vochrogaster
p2768
aVmontanus
p2769
aVpinetorum
p2770
asVHyperacrius
p2771
(lp2772
Vfertilis
p2773
asVReithrodontomys
p2774
(lp2775
Vhumulis
p2776
aVmegalotis
p2777
assVDipodidae
p2778
(dp2779
VZapus
p2780
(lp2781
Vhudsonius
p2782
asVNapaeozapus
p2783
(lp2784
Vinsignis
p2785
asVAllactaga
p2786
(lp2787
Vmajor
p2788
assVUnidentified
p2789
(dp2790
VRodent
p2791
(lp2792
Vsp.
p2793
assVAplodontidae
p2794
(dp2795
VAplodontia
p2796
(lp2797
Vrufa
p2798
asVCedromus
p2799
(lp2800
Vwilsoni
p2801
assVHeteromyidae
p2802
(dp2803
VChaetodipus
p2804
(lp2805
Vintermedius
p2806
asVDipodomys
p2807
(lp2808
Vordii
p2809
aVspectabilis
p2810
aVmerriami
p2811
asVHeteromys
p2812
(lp2813
Vdesmarestianus
p2814
assVNementchamyidae
p2815
(dp2816
VKabirmys
p2817
(lp2818
Vqarunensis
p2819
asssVNotoungulata
p2820
(dp2821
VInteratheriidae
p2822
(dp2823
VMiocochilius
p2824
(lp2825
Vanomopodus
p2826
asssVScandentia
p2827
(dp2828
VTupaiidae
p2829
(dp2830
VUrogale
p2831
(lp2832
Veveretti
p2833
asVTupaia
p2834
(lp2835
Vglis
p2836
aVminor
p2837
aVmontana
p2838
aVsp. (cf. glis)
p2839
aVbelangeri
p2840
aVsp.
p2841
aVtana
p2842
aVpalawanensis
p2843
asVDendrogale
p2844
(lp2845
Vminor
p2846
aVmelanura
p2847
aVmurina
p2848
assVPtilocercidae
p2849
(dp2850
VPtilocercus
p2851
(lp2852
Vlowii
p2853
asssVPilosa
p2854
(dp2855
VMegatheriidae
p2856
(dp2857
VEremotherium
p2858
(lp2859
Veomigrans
p2860
assVBradypodidae
p2861
(dp2862
VBradypus
p2863
(lp2864
Vvariegatus
p2865
aVtridactylus 
p2866
assVMegalonychidae
p2867
(dp2868
VCholoepus
p2869
(lp2870
Vsp.
p2871
aVdidactylus 
p2872
aVhoffmanni
p2873
asVMegalonyx
p2874
(lp2875
Vjeffersoni
p2876
aVleptostomus
p2877
asVAcratocnus
p2878
(lp2879
Vye
p2880
asVNeocnus
p2881
(lp2882
Vcomes
p2883
aVdousman
p2884
asVParocnus
p2885
(lp2886
Vserus
p2887
asssVHyracoidea
p2888
(dp2889
VPliohyracidae
p2890
(dp2891
VThyrohyrax
p2892
(lp2893
Vmeyeri
p2894
aVdomorictus
p2895
aVlitholagus
p2896
asVSaghatherium
p2897
(lp2898
Vbowni
p2899
aVantiquum
p2900
assVProcaviidae
p2901
(dp2902
VProcavia
p2903
(lp2904
Vtransvaalensis
p2905
aVantiqua
p2906
aVsp.
p2907
aVcapensis
p2908
asssVDasyuromorphia
p2909
(dp2910
VDasyuridae
p2911
(dp2912
VDasyurus
p2913
(lp2914
Vviverrinus
p2915
asVPlanigale
p2916
(lp2917
Vingrami
p2918
asVAntechinus
p2919
(lp2920
Vflavipes
p2921
asssVCimolesta
p2922
(dp2923
S'Apatemyidae'
p2924
(dp2925
VApatemys
p2926
(lp2927
Vchardini
p2928
asVLabidolemur
p2929
(lp2930
Vkayi
p2931
assVPantolestidae
p2932
(dp2933
VPalaeosinopa
p2934
(lp2935
Vincerta
p2936
aVveterrima
p2937
assVPalaeoryctidae
p2938
(dp2939
VDidelphodus
p2940
(lp2941
Vabsarokae
p2942
aVsp.
p2943
asVEoryctes
p2944
(lp2945
Vmelanus
p2946
assVPentacodontidae
p2947
(dp2948
VAphronorus
p2949
(lp2950
Vorieli
p2951
asssVPaucituberculata
p2952
(dp2953
VCaenolestidae
p2954
(dp2955
VRhyncholestes
p2956
(lp2957
Vraphanurus
p2958
asVLestoros
p2959
(lp2960
Vinca
p2961
asVPalaeothentes
p2962
(lp2963
Vminutus
p2964
asssVPerissodactyla
p2965
(dp2966
VHyrachyidae
p2967
(dp2968
VHyrachyus
p2969
(lp2970
Vmodestus
p2971
assVEquidae
p2972
(dp2973
VAnchitherium
p2974
(lp2975
Vclarencei
p2976
asVNeohipparion
p2977
(lp2978
Veurystyle
p2979
aVtrampasense
p2980
asVNannippus
p2981
(lp2982
Vpeninsulatus
p2983
aVaztecus
p2984
asVDinohippus
p2985
(lp2986
Vmexicanus
p2987
asVArchaeohippus
p2988
(lp2989
Vblackbergi
p2990
asVMesohippus
p2991
(lp2992
Vbairdi
p2993
aVsp.
p2994
asVPropalaeotherium
p2995
(lp2996
Visselanum
p2997
asVParahippus
p2998
(lp2999
Vleonensis
p3000
aVbarbouri
p3001
asVEurygnathohippus
p3002
(lp3003
Vcornelianus
p3004
asVSifrhippus
p3005
(lp3006
Vsandrae
p3007
asVCalippus
p3008
(lp3009
Vcerasinus
p3010
aVelachistus
p3011
asVEquus
p3012
(lp3013
Vsimplicidens
p3014
assVPalaeotheriidae
p3015
(dp3016
VMetanchilophus
p3017
(lp3018
Vcastrensis
p3019
asVPalaeotherium
p3020
(lp3021
Vlautricense
p3022
aVcurtum
p3023
aVmagnum
p3024
aVsp.
p3025
asVPlagiolophus
p3026
(lp3027
Vannectens
p3028
aVminor
p3029
assVTapiridae
p3030
(dp3031
VTapirus
p3032
(lp3033
Vhaysii
p3034
aVlundeliusi
p3035
aVveroensis
p3036
assVRhinocerotidae
p3037
(dp3038
VDiceros
p3039
(lp3040
Vbicornis
p3041
asVCeratotherium
p3042
(lp3043
Vsimum
p3044
asVDiaceratherium
p3045
(lp3046
Vlamilloquense
p3047
asVStephanorhinus
p3048
(lp3049
Vetruscus
p3050
asVRhinoceros
p3051
(lp3052
Vunicornis
p3053
asVProsantorhinus
p3054
(lp3055
Vdouvillei
p3056
asVBrachypotherium
p3057
(lp3058
Vbrachypus
p3059
asVDicerorhinus
p3060
(lp3061
Vsumatrensis
p3062
asVMolassitherium
p3063
(lp3064
Valbigense
p3065
assVLophiodontidae
p3066
(dp3067
VLophiodon
p3068
(lp3069
Visselense
p3070
aVlautricense
p3071
asssVDiprotodontia
p3072
(dp3073
VPhascolarctidae
p3074
(dp3075
VPhascolarctos
p3076
(lp3077
Vcinereus
p3078
assVPotoroidae
p3079
(dp3080
VBettongia
p3081
(lp3082
Vtropica
p3083
asVAepyprymnus
p3084
(lp3085
Vrufescens
p3086
asVPotorous
p3087
(lp3088
Vtridactylus
p3089
assVPetauridae
p3090
(dp3091
VDactylopsila
p3092
(lp3093
Vtrivirgata
p3094
assVVombatidae
p3095
(dp3096
VLasiorhinus
p3097
(lp3098
Vlatifrons
p3099
aVkrefftii
p3100
asVVombatus
p3101
(lp3102
Vursinus
p3103
assVMacropodidae
p3104
(dp3105
VMacropus
p3106
(lp3107
Veugenii
p3108
aVrufus
p3109
asVDendrolagus
p3110
(lp3111
Vinustus
p3112
assVPhalangeridae
p3113
(dp3114
VTrichosurus
p3115
(lp3116
Vvulpecula
p3117
asssVArtiodactyla
p3118
(dp3119
VGiraffidae
p3120
(dp3121
VGiraffa
p3122
(lp3123
Vcamelopardalis 
p3124
assVBovidae
p3125
(dp3126
VAntidorcas
p3127
(lp3128
Vrecki
p3129
asVRedunca
p3130
(lp3131
Vsp.
p3132
assVMerycoidodontidae
p3133
(dp3134
VMiniochoerus
p3135
(lp3136
Vgracilis
p3137
assVAnthracotheriidae
p3138
(dp3139
VBothriogenys
p3140
(lp3141
Vfraasi
p3142
aVrugulosus
p3143
assVSuidae
p3144
(dp3145
VPhacochoerus
p3146
(lp3147
Vantiquus
p3148
asVConohyus
p3149
(lp3150
Vsp.
p3151
asVMetridiochoerus
p3152
(lp3153
Vandrewsi
p3154
aVsp.
p3155
asVListriodon
p3156
(lp3157
Vsp.
p3158
assVCervidae
p3159
(dp3160
VCervalces
p3161
(lp3162
Vscotti
p3163
assVOreodontidae
p3164
(dp3165
VMerycoidodon
p3166
(lp3167
Vculbertsoni
p3168
asssVAfrosoricida
p3169
(dp3170
S''
(dp3171
S'Widanelfarasia'
p3172
(lp3173
Vbowni
p3174
assVTenrecidae
p3175
(dp3176
VTenrec
p3177
(lp3178
Vecaudatus
p3179
asVSetifer
p3180
(lp3181
Vsetosus
p3182
asVPotamogale
p3183
(lp3184
Vvelox
p3185
asVHemicentetes
p3186
(lp3187
Vsemispinosus
p3188
asVEchinops
p3189
(lp3190
Vtelfairi
p3191
asssVMicrobiotheria
p3192
(dp3193
VMicrobiotheriidae
p3194
(dp3195
VDromiciops
p3196
(lp3197
Vgliroides
p3198
asssVCetacea
p3199
(dp3200
VDelphinidae
p3201
(dp3202
VGlobicephala
p3203
(lp3204
Vmacrorhynchus
p3205
asVSteno
p3206
(lp3207
Vbredanensis
p3208
asVOrcinus
p3209
(lp3210
Vorca
p3211
asVStenella
p3212
(lp3213
Vattenuata
p3214
assVBalaenopteridae
p3215
(dp3216
VBalaenoptera
p3217
(lp3218
Vbonaerensis
p3219
aVphysalus
p3220
asVMegaptera
p3221
(lp3222
Vnovaeangliae
p3223
assVPhyseteridae
p3224
(dp3225
VKogia
p3226
(lp3227
Vbreviceps
p3228
assVIniidae
p3229
(dp3230
VPontoporia
p3231
(lp3232
Vblainvillei
p3233
asssVPrimates
p3234
(dp3235
V
(dp3236
VCarlocebus
p3237
(lp3238
Vcarmenensis
p3239
assVAotidae
p3240
(dp3241
VAotus
p3242
(lp3243
Vazarae
p3244
aVnigriceps
p3245
aVinfulatus
p3246
aVtrivirgatus
p3247
aVlemurinus
p3248
aVsp.
p3249
assVPlesiadapidae
p3250
(dp3251
VPlesiadapis
p3252
(lp3253
Vcookei
p3254
aVrex
p3255
aVtricuspidens
p3256
aVfodinatus
p3257
aVchurchilli
p3258
aVpraecursor
p3259
aVanceps
p3260
aVdubius
p3261
aVsp.
p3262
asVPronothodectes
p3263
(lp3264
Vmatthewi
p3265
aVjepi
p3266
aVgaoi
p3267
asVPlatychoerops
p3268
(lp3269
Vdaubrei
p3270
aVantiquus
p3271
aVsp.
p3272
asVNannodectes
p3273
(lp3274
Vgazini
p3275
aVintermedius
p3276
aVsimpsoni
p3277
aVgidleyi
p3278
asVChiromyoides
p3279
(lp3280
Vsp.
p3281
aVcampanicus
p3282
assVEosimiidae
p3283
(dp3284
VEosimias
p3285
(lp3286
Vsinensis
p3287
assVParomomyidae
p3288
(dp3289
VElwynella
p3290
(lp3291
Voreas
p3292
asVParomomys
p3293
(lp3294
Vdepressidens
p3295
aVmaturus
p3296
aVfarrandi
p3297
asVPhenacolemur
p3298
(lp3299
Varchus
p3300
aVcitatus
p3301
aVfortior
p3302
aVpraecox
p3303
aVsimonsi
p3304
aVwillwoodensis
p3305
aVpraecox-fortior
p3306
aVjepseni
p3307
aVpagei
p3308
asVAcidomomys
p3309
(lp3310
Vhebeticus
p3311
asVArcius
p3312
(lp3313
Vrougeri
p3314
aVlapparenti
p3315
aVfuscus
p3316
asVPalaechthon
p3317
(lp3318
Vproblematicus
p3319
asVIgnacius
p3320
(lp3321
Vgraybullianus
p3322
aVfrugivorus
p3323
aVclarkforkensis
p3324
aVfremontensis
p3325
asVEdworthia
p3326
(lp3327
Vlerbekmoi
p3328
assVCebidae
p3329
(dp3330
VCebupithecia
p3331
(lp3332
Vsarmientoi
p3333
asVCebus
p3334
(lp3335
Vapella
p3336
aVcapucinus
p3337
aVSp.
p3338
aVolivaceus
p3339
aValbifrons
p3340
asVNeosaimiri
p3341
(lp3342
Vfieldsi
p3343
asVDolichocebus
p3344
(lp3345
Vgaimanensis
p3346
asVBranisella
p3347
(lp3348
Vboliviana
p3349
asVTremacebus
p3350
(lp3351
Vharringtoni
p3352
asVCallimico
p3353
(lp3354
Vgoeldii
p3355
asVPanamacebus
p3356
(lp3357
Vtransitus
p3358
asVHomunculus
p3359
(lp3360
Vtatacoensis
p3361
aVpatagonicus
p3362
asVCallithrix
p3363
(lp3364
Vjacchus
p3365
aVpygmaea
p3366
aVsp.
p3367
aVargentata
p3368
aVhumeralifera
p3369
aVargentina
p3370
aVgeoffroyi
p3371
asVLeontopithecus
p3372
(lp3373
Vrosalia
p3374
asVSaimiri
p3375
(lp3376
Vboliviensis
p3377
aVsciureus
p3378
aVoerstedii
p3379
aVsanguinus
p3380
aVsaguinus
p3381
assVAdapidae
p3382
(dp3383
VMahgarita
p3384
(lp3385
Vstevensi
p3386
asS'Afradapis'
p3387
(lp3388
Vlongicristatus
p3389
aVSpecies-new
p3390
asVCaenopithecus
p3391
(lp3392
Vlemuroides
p3393
asVAdapis
p3394
(lp3395
Vparisiensis
p3396
aVsp.
p3397
aVschlosseri
p3398
asVAdapoides
p3399
(lp3400
Vtroglodytes
p3401
asS'Masradapis'
p3402
(lp3403
Vtahai
p3404
asVLeptadapis
p3405
(lp3406
Vmagnus
p3407
aVleenhardti
p3408
assVOligopithecidae
p3409
(dp3410
VCatopithecus
p3411
(lp3412
Vbrowni
p3413
assVCheirogaleidae
p3414
(dp3415
VMicrocebus
p3416
(lp3417
Vmurinus
p3418
aVcoquereli
p3419
aVgriseorufus
p3420
aVrufus
p3421
aVsp.
p3422
asVPhaner
p3423
(lp3424
Vfurcifer
p3425
asVMirza
p3426
(lp3427
Vcoquereli
p3428
aVzaza
p3429
asVCheirogaleus
p3430
(lp3431
Vmajor
p3432
aVmedius
p3433
aVsp.
p3434
assS'Cercamoniidae'
p3435
(dp3436
S'Asiadapis'
p3437
(lp3438
Vcambayensis
p3439
aVtapiensis
p3440
asS'Marcgodinotius'
p3441
(lp3442
Vindicus
p3443
asS'Donrussellia'
p3444
(lp3445
Vprovincialis
p3446
asS'Anchomomys'
p3447
(lp3448
Vfrontanyensis
p3449
assVCallitrichidae
p3450
(dp3451
VCebuella
p3452
(lp3453
Vpygmaea
p3454
asVSaguinus
p3455
(lp3456
Vmidas
p3457
aVmystax
p3458
aVoedipus
p3459
aVsp.
p3460
aVfuscicollis
p3461
assVPalaechthonidae
p3462
(dp3463
VPremnoides
p3464
(lp3465
Vdouglassi
p3466
assVSaxonellidae
p3467
(dp3468
VSaxonella
p3469
(lp3470
Vnaylori
p3471
aVcrepaturae
p3472
assVIndridae
p3473
(dp3474
VAvahi
p3475
(lp3476
Vlaniger
p3477
asVIndri
p3478
(lp3479
Vindri
p3480
asVPropithecus
p3481
(lp3482
Vdiadema
p3483
aVverreauxi
p3484
aVcoquereli
p3485
aVsp.
p3486
assVProteopithecidae
p3487
(dp3488
VSerapia
p3489
(lp3490
Veocaena
p3491
asVProteopithecus
p3492
(lp3493
Vsylviae
p3494
assVPitheciinae
p3495
(dp3496
VPithecia
p3497
(lp3498
Vmonachus
p3499
aVpithecia
p3500
aVhirsuta
p3501
assVCarpolestidae
p3502
(dp3503
VElphidotarsius
p3504
(lp3505
Vrusselli
p3506
aVcf. florencae
p3507
aVsp.
p3508
asVCarpolestes
p3509
(lp3510
Vsimpsoni
p3511
aVnigridens
p3512
aVdubius
p3513
aVhazelae
p3514
assVPurgatoriidae
p3515
(dp3516
VPurgatorius
p3517
(lp3518
Vsp.
p3519
aVcoracis
p3520
aVjanisae
p3521
assVPitheciidae
p3522
(dp3523
VCacajao
p3524
(lp3525
Vcalvus
p3526
aVmelanocephalus
p3527
aVsp.
p3528
asVChiropotes
p3529
(lp3530
Valbinasus
p3531
aVsatanas
p3532
aVsp.
p3533
aVchiropotes
p3534
asVCallicebus
p3535
(lp3536
Vsp.
p3537
assVTarsiidae
p3538
(dp3539
VTarsius
p3540
(lp3541
Vbancanus
p3542
aVborneanus
p3543
aVspectrum
p3544
aVsyricta
p3545
aVtarsier
p3546
aVsyrichta
p3547
aVsp.
p3548
asVCarlito
p3549
(lp3550
Vsyrichta
p3551
asVCephalopachus
p3552
(lp3553
Vbancanus
p3554
assVAtelidae
p3555
(dp3556
VAlouatta
p3557
(lp3558
Vpalliata
p3559
aVseniculus
p3560
aVcaraya
p3561
aVsp.
p3562
aVpaliatta
p3563
asVBrachyteles
p3564
(lp3565
Varachnoides
p3566
asVStirtonia
p3567
(lp3568
Vtatacoensis
p3569
aVvictoriae
p3570
asVAteles
p3571
(lp3572
Vbelzebuth
p3573
aVgeoffroyi
p3574
aVpaniscus
p3575
aVsp.
p3576
aVfusciceps
p3577
aVmarginatus
p3578
asVLagothrix
p3579
(lp3580
Vsp
p3581
aVlagotricha
p3582
aVlugens
p3583
aVlagothricha
p3584
assVArchaeolemuridae
p3585
(dp3586
VHadropithecus
p3587
(lp3588
Vspp.
p3589
aVstenognathus
p3590
asVArchaeolemur
p3591
(lp3592
Vcf. edwardsi
p3593
aVsp.
p3594
aVmajori
p3595
assVNotharctidae
p3596
(dp3597
VCantius
p3598
(lp3599
Vralstoni
p3600
aVtrigonodus
p3601
aVmckennai
p3602
aVfrugivorus
p3603
aVabditus
p3604
aVtorresi
p3605
aVnuniensis
p3606
aVfrugivorous
p3607
aVsp.
p3608
asVNotharctus
p3609
(lp3610
Vventicolus
p3611
aVsp.
p3612
aVtenebrosus
p3613
aVpugnax
p3614
aVrobustior
p3615
asVSmilodectes
p3616
(lp3617
Vsp.
p3618
aVgracilis
p3619
aVmcgrewi
p3620
assVAzibiidae
p3621
(dp3622
VAzibius
p3623
(lp3624
Vtrerki
p3625
aVsp
p3626
assVDendropithecidae
p3627
(dp3628
VMicropithecus
p3629
(lp3630
Vleakeyorum
p3631
assVParapithecidae
p3632
(dp3633
VParapithecus
p3634
(lp3635
Vgrangeri
p3636
aVfraasi
p3637
asVApidium
p3638
(lp3639
Vphiomense
p3640
aVsp.
p3641
aVbowni
p3642
aVmoustafi
p3643
aVmoustafai
p3644
asS'Arsinoea'
p3645
(lp3646
Vkallimos
p3647
asVQatrania
p3648
(lp3649
Vsp.
p3650
aVwingi
p3651
aVfleaglei
p3652
assVMicrosyopidae
p3653
(dp3654
VMicrosyops
p3655
(lp3656
Vscottianus
p3657
asVNiptomomys
p3658
(lp3659
Vdoreenae
p3660
assVOmomyidae
p3661
(dp3662
VRooneyia
p3663
(lp3664
Vviejaensis
p3665
asS'Microchoerus'
p3666
(lp3667
Verinaceus
p3668
asVWashakius
p3669
(lp3670
Vinsignis
p3671
aVizetti
p3672
asVTeilhardina
p3673
(lp3674
Vamericana
p3675
aVbelgica
p3676
aVbrandti
p3677
aVsp.
p3678
asVHemiacodon
p3679
(lp3680
Vgracilis
p3681
asVArapahovius
p3682
(lp3683
Vgazini
p3684
asVAbsarokius
p3685
(lp3686
Vsp.
p3687
aVabbotti
p3688
asVShoshonius
p3689
(lp3690
Vcooperi
p3691
asVOurayia
p3692
(lp3693
Vuintensis
p3694
asVNecrolemur
p3695
(lp3696
Vantiquus
p3697
aVzitteli
p3698
aVsp.
p3699
asVTetonius
p3700
(lp3701
Vhomunculus
p3702
aVmatthewi
p3703
asVAnemorhysis
p3704
(lp3705
Vpearcei
p3706
asVVastanomys
p3707
(lp3708
Vgracilis
p3709
aVmajor
p3710
aVsp.
p3711
assVGalagidae
p3712
(dp3713
VOtolemur
p3714
(lp3715
Vcrassicaudatus
p3716
aVgarnetti
p3717
aVgarnettii
p3718
asS'Karanisia'
p3719
(lp3720
Vclarki
p3721
aVarenula
p3722
asVGalago
p3723
(lp3724
Vsenegalensis
p3725
aValleni
p3726
aVdemidovii
p3727
aVmoholi
p3728
aVzanzibaricus
p3729
aVdemidoff
p3730
asVEuoticus
p3731
(lp3732
Velegantulus
p3733
asVSaharagalago
p3734
(lp3735
Vmisrensis
p3736
asVWadilemur
p3737
(lp3738
Velegans
p3739
assVPliopithecidae
p3740
(dp3741
VAegyptopithecus
p3742
(lp3743
Vzeuxis
p3744
asVOligopithecus
p3745
(lp3746
Vsavagei
p3747
asVPropliopithecus
p3748
(lp3749
Vchirobates
p3750
aV(?)
p3751
aV(sp?)
p3752
aVcheirorates
p3753
aVsp.
p3754
aVankeli
p3755
assVHomunculidae
p3756
(dp3757
VMazzonicebus
p3758
(lp3759
V almendrae
p3760
asVSoriacebus
p3761
(lp3762
Vameghinorum
p3763
assVLemuridae
p3764
(dp3765
VPachylemur
p3766
(lp3767
Vinsignis
p3768
asVLemur
p3769
(lp3770
Vcatta
p3771
aVsp.
p3772
asVProlemur
p3773
(lp3774
Vsimus
p3775
asVHapalemur
p3776
(lp3777
Vgiseus
p3778
aVgriseus
p3779
aVsimus
p3780
asVVarecia
p3781
(lp3782
Vvariegata
p3783
asVEulemur
p3784
(lp3785
Vfulvus
p3786
aVsp.
p3787
aVcoronatus
p3788
aVmacaco
p3789
aVsanfordi
p3790
aVrubriventer
p3791
assVDjebelemuridae
p3792
(dp3793
VDjebelemur
p3794
(lp3795
Vmartinezi
p3796
assVAfrotarsiidae
p3797
(dp3798
VAfrotarsius
p3799
(lp3800
Vchatrathi
p3801
assVDaubentoniidae
p3802
(dp3803
VDaubentonia
p3804
(lp3805
Vmadagascariensis
p3806
aVrobusta
p3807
asS'Plesiopithecus'
p3808
(lp3809
Vteras
p3810
assVProconsulidae
p3811
(dp3812
VAfropithecus
p3813
(lp3814
Vincertae sedis
p3815
aVturkanensis
p3816
asVNyanzapithecus
p3817
(lp3818
Vincertae sedis
p3819
aVpickfordi
p3820
aVvancouveringorum
p3821
assVLoridae
p3822
(dp3823
VPerodicticus
p3824
(lp3825
Vpotto
p3826
asVNycticebus
p3827
(lp3828
Vcoucang
p3829
aVpygmaeus
p3830
asVGalagoides
p3831
(lp3832
Vdemidovii
p3833
asVArctocebus
p3834
(lp3835
Vcalabarensis
p3836
asVLoris
p3837
(lp3838
Vtardigradus
p3839
aVlydekkerianus
p3840
assVMicromomyidae
p3841
(dp3842
VDryomomys
p3843
(lp3844
Vszalayi
p3845
assVHylobatidae
p3846
(dp3847
VBunopithecus
p3848
(lp3849
Vhoolock
p3850
asVHoolock
p3851
(lp3852
Vhoolock
p3853
asVHylobates
p3854
(lp3855
Vlar
p3856
aVsp.
p3857
aVagilis
p3858
aVleucogenys
p3859
aVsyndactylus
p3860
asVSymphalangus
p3861
(lp3862
Vsyndactylus
p3863
assVMegaladapidae
p3864
(dp3865
VMegaladapis
p3866
(lp3867
Vmadagascariensis
p3868
aVcf. madagascariensis
p3869
asVLepilemur
p3870
(lp3871
Vmustelinus
p3872
aVsp.
p3873
assVHominidae
p3874
(dp3875
VSivapithecus
p3876
(lp3877
Vindicus
p3878
aVsp.
p3879
asS'Equatorius'
p3880
(lp3881
Vafricanus
p3882
asVLimnopithecus
p3883
(lp3884
VLegetet
p3885
aVevansi
p3886
asVPongo
p3887
(lp3888
Vpygmaeus
p3889
asVGorilla
p3890
(lp3891
Vgorilla
p3892
asVAustralopithecus
p3893
(lp3894
Vafarensis
p3895
aVboisei
p3896
aVafricanus
p3897
aVsediba
p3898
asVHomo
p3899
(lp3900
Vsapiens
p3901
aVhabilis
p3902
aVneanderthalensis
p3903
aVheidelbergensis
p3904
aVerectus
p3905
aVnaledi
p3906
asVProconsul
p3907
(lp3908
Vafricanus
p3909
aVmajor
p3910
aVnyanzae
p3911
aVheseloni
p3912
aVincertae sedis
p3913
asVPan
p3914
(lp3915
Vtroglodytes
p3916
aVpaniscus
p3917
assVCercopithecidae
p3918
(dp3919
VParapapio
p3920
(lp3921
Vjonesi
p3922
aVbroomi
p3923
asVTrachypithecus
p3924
(lp3925
Vcristata
p3926
aVobscura
p3927
aVsp.
p3928
aVobscurus
p3929
asVNasalis
p3930
(lp3931
Vlarvatus
p3932
aVconcolor
p3933
asVPapio
p3934
(lp3935
Vursinus
p3936
aVsp.
p3937
aVdoguera
p3938
aVanubis
p3939
aVangusticeps
p3940
aVhamadryas
p3941
aVizodi
p3942
aVingens
p3943
aVcynocephalus
p3944
asVChlorocebus
p3945
(lp3946
Vaethiops
p3947
aVcynosuros
p3948
aVpygerythrus
p3949
aVtantalus
p3950
asVAllenopithecus
p3951
(lp3952
Vnigroviridis
p3953
asVLophocebus
p3954
(lp3955
Valbigena
p3956
aVgaleritus
p3957
aVaterrimus
p3958
asVCercopithecus
p3959
(lp3960
Vmitis
p3961
aVmona
p3962
aVneglectus
p3963
aVnictitans
p3964
aValbogularis
p3965
aVdiana
p3966
aVsp.
p3967
aVdenti
p3968
aVcephus
p3969
aVpogonias
p3970
aVascanius
p3971
aVlowei
p3972
asVDinopithecus
p3973
(lp3974
Vingens
p3975
asVSemnopithecus
p3976
(lp3977
Ventellus
p3978
asVMandrillus
p3979
(lp3980
Vleucophaeus
p3981
aVsphinx
p3982
asVColobus
p3983
(lp3984
Vguereza
p3985
aVbadius
p3986
aVpolykomos
p3987
aVangolensis
p3988
asVMiopithecus
p3989
(lp3990
Vtalapoin
p3991
aVogouensis
p3992
asVPygathrix
p3993
(lp3994
Vnemaeus
p3995
aVneameus
p3996
aVroxellana
p3997
asVGorgopithecus
p3998
(lp3999
Vmajor
p4000
asVProcolobus
p4001
(lp4002
Vbadius
p4003
aVverus
p4004
asVPresbytis
p4005
(lp4006
Vmelalophos
p4007
aVobscurus
p4008
aVrubicunda
p4009
aVhosei
p4010
aVfrontata
p4011
aVphayrei
p4012
aVcristata
p4013
aVpotenziani
p4014
aVfemoralis
p4015
asVRhinopithecus
p4016
(lp4017
Vroxellana
p4018
asVTheropithecus
p4019
(lp4020
Vgelada
p4021
aVoswaldi
p4022
asVCercopithecoides
p4023
(lp4024
Vwilliamsi
p4025
aVcoronatus
p4026
asVCercocebus
p4027
(lp4028
Vatys
p4029
aVtorquatus
p4030
aVsp.
p4031
aValbigena
p4032
aVgaleritus
p4033
asVMacaca
p4034
(lp4035
Vnigra
p4036
aVfascicularis
p4037
aVfuscata
p4038
aVmulatta
p4039
aVsylvanus
p4040
aVnemestrina
p4041
aVsp.
p4042
aVarctoides
p4043
aVthibetana
p4044
aVbrunnescens
p4045
aVassamensis
p4046
aVmaura
p4047
aVsinica
p4048
aVtonkeana
p4049
aVradiata
p4050
aVcyclopis
p4051
asVErythrocebus
p4052
(lp4053
Vpatas
p4054
asssVCingulata
p4055
(dp4056
VDasypodidae
p4057
(dp4058
VCabassous
p4059
(lp4060
Vcentralis
p4061
aVunicinctus
p4062
asVZaedyus
p4063
(lp4064
Vpichiy
p4065
asVChaetophractus
p4066
(lp4067
Vvillosus
p4068
aVnationi
p4069
aVvellerosus
p4070
asVDasypus
p4071
(lp4072
Vbellus
p4073
aVhybridus
p4074
aVnovemcinctus
p4075
aVsp.
p4076
aVsabanicola
p4077
asVEuphractus
p4078
(lp4079
Vsexcinctus
p4080
asVTolypeutes
p4081
(lp4082
Vmatacus
p4083
assVPampatheriidae
p4084
(dp4085
VHolmesina
p4086
(lp4087
Vseptentrionalis
p4088
aVfloridanus
p4089
asssS'Ptolemaiida'
p4090
(dp4091
S'Ptolemaiidae'
p4092
(dp4093
VPtolemaia
p4094
(lp4095
Vgrangeri
p4096
asssVSirenia
p4097
(dp4098
VProtosirenidae
p4099
(dp4100
VProtosiren
p4101
(lp4102
V(sp?)
p4103
asssS'Fossil outgroups'
p4104
(dp4105
S'Thrinaxodontidae'
p4106
(dp4107
VThrinaxodon
p4108
(lp4109
Vsp.
p4110
asssVMacroscelidea
p4111
(dp4112
VAmphilemuridae
p4113
(dp4114
VMacrocranion
p4115
(lp4116
Vjunnei
p4117
aVnitens
p4118
asVProterixoides
p4119
(lp4120
Vdavisi
p4121
assVMacroscelididae
p4122
(dp4123
VMacroscelides
p4124
(lp4125
Vproboscideus
p4126
asVPetrodromus
p4127
(lp4128
Vtetradactylus
p4129
asssVMultituberculata
p4130
(dp4131
VNeoplagiaulacidae
p4132
(dp4133
VEctypodus
p4134
(lp4135
Vtardus
p4136
assVPtilodontidae
p4137
(dp4138
VPtilodus
p4139
(lp4140
Vkummae
p4141
asssVCreodonta
p4142
(dp4143
VHyaenodontidae
p4144
(dp4145
S'Brychotherium'
p4146
(lp4147
Vephalmos
p4148
asVMasrasector
p4149
(lp4150
Vnananubis
p4151
assVHyainailouridae
p4152
(dp4153
VAkhnatenavus
p4154
(lp4155
Vnefertiticyon
p4156
asssVDermoptera
p4157
(dp4158
VCynocephalidae
p4159
(dp4160
VGaleopterus
p4161
(lp4162
Vvariegatus
p4163
asVCynocephalus
p4164
(lp4165
Vvariegatus
p4166
aVvolans
p4167
asssVCarnivora
p4168
(dp4169
VHerpestidae
p4170
(dp4171
VAtilax
p4172
(lp4173
Vmesotes
p4174
assVAiluridae
p4175
(dp4176
VPristinailurus
p4177
(lp4178
Vbristoli
p4179
assVFelidae
p4180
(dp4181
VFelis
p4182
(lp4183
Vcatus
p4184
asVMegantereon
p4185
(lp4186
Vwhitei
p4187
asVPuma
p4188
(lp4189
Vconcolor
p4190
asVLeopardus
p4191
(lp4192
Vpardalis
p4193
asVDinofelis
p4194
(lp4195
Vbarlowi
p4196
aVpiveteaui
p4197
asVPanthera
p4198
(lp4199
Vleo
p4200
aVpardus
p4201
asVSmilodon
p4202
(lp4203
Vfatalis
p4204
asVHomotherium
p4205
(lp4206
Vserum
p4207
asVLynx
p4208
(lp4209
Vrufus
p4210
asVAcinonyx
p4211
(lp4212
Vjubatus
p4213
asVNeofelis
p4214
(lp4215
Vnebulosa
p4216
assVCanidae
p4217
(dp4218
VHesperocyon
p4219
(lp4220
Vgregarius
p4221
asVSpeothos
p4222
(lp4223
Vvenaticus
p4224
asVSimocyon
p4225
(lp4226
Vprimigenius
p4227
asVCanis
p4228
(lp4229
Vbrevirostris
p4230
aVmesomelas
p4231
aVsp.
p4232
aVlupus
p4233
aVlatrans
p4234
aVdirus
p4235
asVVulpes
p4236
(lp4237
Vvulpes
p4238
aVpulcher
p4239
aVpattisoni
p4240
asVMetatomarctus
p4241
(lp4242
Vcanavus
p4243
assVMustelidae
p4244
(dp4245
VEnhydra
p4246
(lp4247
Vlutris
p4248
asVAonyx
p4249
(lp4250
Vcapensis
p4251
aVcinerea
p4252
asVSiamogale
p4253
(lp4254
Vmelilutra
p4255
asVLutrogale
p4256
(lp4257
Vperspicillata
p4258
asVLontra
p4259
(lp4260
Vcanadensis
p4261
aVfelina
p4262
aVlongicaudis
p4263
asVLutra
p4264
(lp4265
Vlutra
p4266
asVHydrictis
p4267
(lp4268
Vmaculicollis
p4269
asVPteronura
p4270
(lp4271
Vbrasiliensis
p4272
assVViverridae
p4273
(dp4274
VParahyaena
p4275
(lp4276
Vbrunnea
p4277
asVArctictis
p4278
(lp4279
Vbinturong
p4280
asVViverra
p4281
(lp4282
Vtangalunga
p4283
assVUrsidae
p4284
(dp4285
VKolponomos
p4286
(lp4287
Vnewportensis
p4288
asVUrsus
p4289
(lp4290
Vamericanus
p4291
aVarctos
p4292
asVArctodus
p4293
(lp4294
Vsimus
p4295
assVProcyonidae
p4296
(dp4297
VPotos
p4298
(lp4299
Vflavus
p4300
asVNasua
p4301
(lp4302
Vnarica
p4303
aVsp.
p4304
asVParailurus
p4305
(lp4306
Vanglicus
p4307
aVhungaricus
p4308
aVsp
p4309
assVNimravidae
p4310
(dp4311
VDinictis
p4312
(lp4313
Vsqualidens
p4314
assVHyaenidae
p4315
(dp4316
VCrocuta
p4317
(lp4318
Vcrocuta
p4319
asVHyaena
p4320
(lp4321
Vhyaena
p4322
aVsp.
p4323
asVPachycrocuta
p4324
(lp4325
Vbrevirostris
p4326
asVChasmaporthetes
p4327
(lp4328
Vnitidula
p4329
aVsilberbergi
p4330
asVLycyaenops
p4331
(lp4332
Vsilberbergi
p4333
asssVEulipotyphla
p4334
(dp4335
VSolenodontidae
p4336
(dp4337
VSolenodon
p4338
(lp4339
Vparadoxus
p4340
assVSoricidae
p4341
(dp4342
VCrocidura
p4343
(lp4344
Volivieri
p4345
asVSuncus
p4346
(lp4347
Vmurinus
p4348
assVGeolabididae
p4349
(dp4350
VCentetodon
p4351
(lp4352
Vneashami
p4353
assVTalpidae
p4354
(dp4355
VDesmana
p4356
(lp4357
Vmoschata
p4358
assS'Dormaaliidae'
p4359
(dp4360
VTalpavoides
p4361
(lp4362
Vdartoni
p4363
asVScenopagus
p4364
(lp4365
Vsp.
p4366
asVCrypholestes
p4367
(lp4368
Vvaughni
p4369
assVErinaceidae
p4370
(dp4371
VErinaceus
p4372
(lp4373
Veuropaeus
p4374
aVbroomi
p4375
asVSespedectes
p4376
(lp4377
Vsingularis
p4378
asVHemiechinus
p4379
(lp4380
Vauritus
p4381
assVNyctitheriidae
p4382
(dp4383
VPlagioctenodon
p4384
(lp4385
Vsavagei
p4386
aVkrausae
p4387
asVPlagioctenoides
p4388
(lp4389
Vmicrolestes
p4390
aVsp.
p4391
asssVChiroptera
p4392
(dp4393
VPteropodidae
p4394
(dp4395
VEonycteris
p4396
(lp4397
Vrobusta
p4398
aVspelaea
p4399
asVHarpyionycteris
p4400
(lp4401
Vwhiteheadi
p4402
aVcelebensis
p4403
asVMacroglossus
p4404
(lp4405
Vminimus
p4406
aVsobrinus
p4407
asVEidolon
p4408
(lp4409
Vhelvum
p4410
asVMegaerops
p4411
(lp4412
Vecaudatus
p4413
aVniphanae
p4414
asVAcerodon
p4415
(lp4416
Vjubatus
p4417
aVcelebensis
p4418
asVPteropus
p4419
(lp4420
Vvampyrus
p4421
aVhypomelanus
p4422
aVpumilus
p4423
aVadmiralitatum
p4424
aValecto
p4425
aVcapistratus
p4426
aVconspicillatus
p4427
aVlivingstonii
p4428
aVpoliocephalus
p4429
aVsamoensis
p4430
aVscapulatus
p4431
aVtonganus
p4432
aVmolossinus
p4433
aVrufus
p4434
aVlylei
p4435
aVornatus
p4436
aVneohibernicus
p4437
aVmariannus
p4438
aVanetianus
p4439
asVOtopteropus
p4440
(lp4441
Vcartilagonodus
p4442
asVNyctimene
p4443
(lp4444
Vaello
p4445
aValbiventer
p4446
aVcephalotes
p4447
aVmajor
p4448
aVrobinsoni
p4449
aVvizcaccia
p4450
aVcertans
p4451
asVMyonycteris
p4452
(lp4453
Vtorquata
p4454
asVPtenochirus
p4455
(lp4456
Vjagori
p4457
aVminor
p4458
asVPenthetor
p4459
(lp4460
Vlucasi
p4461
asVHaplonycteris
p4462
(lp4463
Vfischeri
p4464
asVRousettus
p4465
(lp4466
Vaegyptiacus
p4467
aVamplexicaudatus
p4468
aVleschenaultii
p4469
asVParanyctimene
p4470
(lp4471
Vraptor
p4472
asVBalionycteris
p4473
(lp4474
Vmaculata
p4475
asVNanonycteris
p4476
(lp4477
Vveldkampii
p4478
asVMegaloglossus
p4479
(lp4480
Vwoermanni
p4481
asVScotonycteris
p4482
(lp4483
Vzenkeri
p4484
asVHypsignathus
p4485
(lp4486
Vmonstrosus
p4487
asVEpomophorus
p4488
(lp4489
Vgambianus
p4490
aVlabiatus
p4491
aVminor
p4492
aVwahlbergi
p4493
asVAethalops
p4494
(lp4495
Valecto
p4496
asVEpomops
p4497
(lp4498
Vfranqueti
p4499
asVCynopterus
p4500
(lp4501
Vhorsfieldii
p4502
aVbrachyotis
p4503
aVsphinx
p4504
aVtitthaecheilus
p4505
asVSphaerias
p4506
(lp4507
Vblanfordi
p4508
asVThoopterus
p4509
(lp4510
Vnigrescens
p4511
asVDobsonia
p4512
(lp4513
Vminor
p4514
aVpannietensis
p4515
assVIcaronycteridae
p4516
(dp4517
VIcaronycteris
p4518
(lp4519
Vindex
p4520
assVPhyllostomatidae
p4521
(dp4522
VPlatalina
p4523
(lp4524
Vgenovensium
p4525
assVThyropteridae
p4526
(dp4527
VThyroptera
p4528
(lp4529
Vtricolor
p4530
assVNatalidae
p4531
(dp4532
VNatalus
p4533
(lp4534
Vstramineus
p4535
aVjamaicensis
p4536
aVtumidirostris
p4537
aVlepidus
p4538
asVChilonatalus
p4539
(lp4540
Vmicropus
p4541
assVEmballonuridae
p4542
(dp4543
VDiclidurus
p4544
(lp4545
Valbus
p4546
asVSaccolaimus
p4547
(lp4548
Vsaccolaimus
p4549
asVTaphozous
p4550
(lp4551
Vphilippinensis
p4552
aVlongimanus
p4553
aVmauritianus
p4554
aVnudiventris
p4555
asVPeropteryx
p4556
(lp4557
Vkappleri
p4558
aVmacrotis
p4559
asVCentronycteris
p4560
(lp4561
Vmaximiliani
p4562
asVEmballonura
p4563
(lp4564
Valecto
p4565
aVraffrayana
p4566
aVsemicaudata
p4567
asVBalantiopteryx
p4568
(lp4569
Vio
p4570
aVplicata
p4571
asVSaccopteryx
p4572
(lp4573
Vcanescens
p4574
assVMormoopidae
p4575
(dp4576
VPteronotus
p4577
(lp4578
Vdavyi
p4579
aVgymnonotus
p4580
aVparnellii
p4581
aVpersonatus
p4582
aVmacleayii
p4583
asVMormoops
p4584
(lp4585
Vmegalophylla
p4586
aVblainvillii
p4587
assVPhyllostomidae
p4588
(dp4589
VMonophyllus
p4590
(lp4591
Vredmani
p4592
asVLophostoma
p4593
(lp4594
Vbrasiliense
p4595
aVcarrikeri
p4596
aVschulzi
p4597
aVsilvicolum
p4598
asVPhyllops
p4599
(lp4600
Vfalcatus
p4601
asVChoeroniscus
p4602
(lp4603
Vgodmani
p4604
aVminor
p4605
asVMacrophyllum
p4606
(lp4607
Vmacrophyllum
p4608
asVChiroderma
p4609
(lp4610
Vsalvini
p4611
aVtrinitatum
p4612
aVvillosum
p4613
asVErophylla
p4614
(lp4615
Vsezekorni
p4616
asVTonatia
p4617
(lp4618
Vsaurophila
p4619
asVPhyllostomus
p4620
(lp4621
Vdiscolor
p4622
aVelongatus
p4623
aVhastatus
p4624
asVVampyriscus
p4625
(lp4626
Vnymphaea
p4627
aVbrocki
p4628
asVPlatyrrhinus
p4629
(lp4630
Vbrachycephalus
p4631
aVdorsalis
p4632
aVhelleri
p4633
aVinfuscus
p4634
aVlineatus
p4635
aVvittatus
p4636
asVUroderma
p4637
(lp4638
Vbilobatum
p4639
aVmagnirostrum
p4640
asVCarollia
p4641
(lp4642
Vbrevicauda
p4643
aVcastanea
p4644
aVperspicillata
p4645
aVsubrufa
p4646
asVGlyphonycteris
p4647
(lp4648
Vsylvestris
p4649
asVVampyrodes
p4650
(lp4651
Vcaraccioli
p4652
asVAmetrida
p4653
(lp4654
Vcenturio
p4655
asVLionycteris
p4656
(lp4657
Vspurrelli
p4658
asVSturnira
p4659
(lp4660
Vlilium
p4661
aVludovici
p4662
aVmagna
p4663
aVmordax
p4664
aVoporaphilum
p4665
aVbidens
p4666
aVnana
p4667
aVtildae
p4668
aVbogotensis
p4669
asVRhinophylla
p4670
(lp4671
Vpumilio
p4672
aVfischerae
p4673
asVCenturio
p4674
(lp4675
Vsenex
p4676
asVPhylloderma
p4677
(lp4678
Vstenops
p4679
asVSphaeronycteris
p4680
(lp4681
Vtoxophyllum
p4682
asVDesmodus
p4683
(lp4684
Vrotundus
p4685
asVPygoderma
p4686
(lp4687
Vbilabiatum
p4688
asVMimon
p4689
(lp4690
Vcozumelae
p4691
aVcrenulatum
p4692
asVDiphylla
p4693
(lp4694
Vecaudata
p4695
asVStenoderma
p4696
(lp4697
Vrufum
p4698
asVMusonycteris
p4699
(lp4700
Vharrisoni
p4701
asVLonchorhina
p4702
(lp4703
Vaurita
p4704
asVHsunycteris
p4705
(lp4706
Vthomasi
p4707
asVLeptonycteris
p4708
(lp4709
Vyerbabuenae
p4710
aVcurasoae
p4711
asVPhyllonycteris
p4712
(lp4713
Vaphylla
p4714
aVpoeyi
p4715
asVAnoura
p4716
(lp4717
Vcaudifer
p4718
aVgeoffroyi
p4719
aVcultrata
p4720
aVlatidens
p4721
asVChoeronycteris
p4722
(lp4723
Vmexicana
p4724
asVChrotopterus
p4725
(lp4726
Vauritus
p4727
asVArtibeus
p4728
(lp4729
Vfimbriatus
p4730
aVhirsutus
p4731
aVjamaicensis
p4732
aVlituratus
p4733
aVplanirostris
p4734
aVconcolor
p4735
aVfraterculus
p4736
aVintermedius
p4737
aVobscurus
p4738
asVGlossophaga
p4739
(lp4740
Vcommissarisi
p4741
aVsoricina
p4742
aVleachii
p4743
aVlongirostris
p4744
aVmorenoi
p4745
asVLichonycteris
p4746
(lp4747
Vobscura
p4748
asVTrachops
p4749
(lp4750
Vcirrhosus
p4751
asVVampyressa
p4752
(lp4753
Vpusilla
p4754
aVmelissa
p4755
asVAriteus
p4756
(lp4757
Vflavescens
p4758
asVDiaemus
p4759
(lp4760
Vyoungi
p4761
asVBrachyphylla
p4762
(lp4763
Vcavernarum
p4764
aVnana
p4765
asVMesophylla
p4766
(lp4767
Vmacconnelli
p4768
asVMicronycteris
p4769
(lp4770
Vhirsuta
p4771
aVmegalotis
p4772
aVminuta
p4773
aVbrosseti
p4774
aVmatses
p4775
aVmicrotis
p4776
aVschmidtorum
p4777
asVMacrotus
p4778
(lp4779
Vwaterhousii
p4780
aVcalifornicus
p4781
asVHylonycteris
p4782
(lp4783
Vunderwoodi
p4784
asVLonchophylla
p4785
(lp4786
Vrobusta
p4787
aVhandleyi
p4788
aVmordax
p4789
asVDermanura
p4790
(lp4791
Vanderseni
p4792
aVazteca
p4793
aVphaeotis
p4794
aVtolteca
p4795
asVArdops
p4796
(lp4797
Vnichollsi
p4798
assVVespertilionidae
p4799
(dp4800
VPipistrellus
p4801
(lp4802
Vcoromandra
p4803
aVhesperidus
p4804
aVjavanicus
p4805
aVnathusii
p4806
aVtenuis
p4807
asVCorynorhinus
p4808
(lp4809
Vmexicanus
p4810
aVrafinesquii
p4811
aVtownsendii
p4812
asVMiniopterus
p4813
(lp4814
Vschreibersii
p4815
aVaustralis
p4816
aVpusillus
p4817
aVtristis
p4818
asVNyctalus
p4819
(lp4820
Vleisleri
p4821
aVnoctula
p4822
asVHypsugo
p4823
(lp4824
Vsavii
p4825
asVAntrozous
p4826
(lp4827
Vpallidus
p4828
asVMurina
p4829
(lp4830
Vaurata
p4831
aVcyclotis
p4832
aVhuttonii
p4833
asVLasionycteris
p4834
(lp4835
Vnoctivagans
p4836
asVPlecotus
p4837
(lp4838
Vauritus
p4839
asVIdionycteris
p4840
(lp4841
Vphyllotis
p4842
asVKerivoula
p4843
(lp4844
Vpellucida
p4845
asVScotophilus
p4846
(lp4847
Vheathii
p4848
aVkuhlii
p4849
asVEptesicus
p4850
(lp4851
Vandinus
p4852
aVbrasiliensis
p4853
aVdiminutus
p4854
aVfurinalis
p4855
aVfuscus
p4856
asVMyotis
p4857
(lp4858
Valbescens
p4859
aVauriculus
p4860
aVaustroriparius
p4861
aVcalifornicus
p4862
aVchiloensis
p4863
aVciliolabrum
p4864
aVdasycneme
p4865
aVdaubentonii
p4866
aVelegans
p4867
aVemarginatus
p4868
aVevotis
p4869
aVformosus
p4870
aVgrisecens
p4871
aVhorsfieldii
p4872
aVkeenii
p4873
aVsubulatus
p4874
aVlucifugus
p4875
aVmacrotarsus
p4876
aVmuricola
p4877
aVmystacinus
p4878
aVnigricans
p4879
aVriparius
p4880
aVruber
p4881
aVsimus
p4882
aVsodalis
p4883
aVthysanodes
p4884
aVvelifer
p4885
aVvivesi
p4886
aVvolans
p4887
aVyumanensis
p4888
asVPerimyotis
p4889
(lp4890
Vsubflavus
p4891
asVLasiurus
p4892
(lp4893
Vborealis
p4894
aVcinereus
p4895
aVega
p4896
aVintermedius
p4897
aVseminolus
p4898
asVHesperoptenus
p4899
(lp4900
Vtickelli
p4901
asVRhogeessa
p4902
(lp4903
Vtumida
p4904
asVTylonycteris
p4905
(lp4906
Vpachypus
p4907
aVrobustula
p4908
asVNycticeius
p4909
(lp4910
Vhumeralis
p4911
asVPhiletor
p4912
(lp4913
Vbrachypterus
p4914
asVNeoromicia
p4915
(lp4916
Vcapensis
p4917
asVVespertilio
p4918
(lp4919
Vmurinus
p4920
assVHipposideridae
p4921
(dp4922
VCoelops
p4923
(lp4924
Vfrithii
p4925
asVAsellia
p4926
(lp4927
Vtridens
p4928
assVNoctilionidae
p4929
(dp4930
VNoctilio
p4931
(lp4932
Valbiventris
p4933
aVleporinus
p4934
assVMegadermatidae
p4935
(dp4936
VMegaderma
p4937
(lp4938
Vlyra
p4939
assVMolossidae
p4940
(dp4941
VMolossops
p4942
(lp4943
Vtemminckii
p4944
asVCheiromeles
p4945
(lp4946
Vparvidens
p4947
aVtorquatus
p4948
asVChaerephon
p4949
(lp4950
Vjobensis
p4951
aVplicata
p4952
aVansorgei
p4953
aVchapini
p4954
aVnigeriae
p4955
aVpumilus
p4956
asVOtomops
p4957
(lp4958
Vmartiensseni
p4959
asVCynomops
p4960
(lp4961
Vabrasus
p4962
aVparanus
p4963
aVplanirostris
p4964
asVMolossus
p4965
(lp4966
Vmolossus
p4967
aVrufus
p4968
aVsinaloae
p4969
asVMyopterus
p4970
(lp4971
Vdaubentonii
p4972
asVPromops
p4973
(lp4974
Vcentralis
p4975
aVnasutus
p4976
asVNyctinomops
p4977
(lp4978
Vlaticaudatus
p4979
aVmacrotis
p4980
aVaurispinosus
p4981
asVEumops
p4982
(lp4983
Vdabbenei
p4984
aVpatagonicus
p4985
aVperotis
p4986
aVunderwoodi
p4987
aVbonariensis
p4988
aVglaucinus
p4989
asVMormopterus
p4990
(lp4991
Vacetabulosus
p4992
aVbeccarii
p4993
aVplaniceps
p4994
asVTadarida
p4995
(lp4996
Vfulminans
p4997
aVaegyptiaca
p4998
aVbrasiliensis
p4999
aVteniotis
p5000
asVMops
p5001
(lp5002
Vcondylurus
p5003
aVleucostigma
p5004
aVmidas
p5005
aVmops
p5006
assVOnychonycteridae
p5007
(dp5008
VOnychonycteris
p5009
(lp5010
Vfinneyi
p5011
assVNycteridae
p5012
(dp5013
VNycteris
p5014
(lp5015
Varge
p5016
aVgrandis
p5017
aVhispida
p5018
aVjavanica
p5019
aVmacrotis
p5020
aVthebaica
p5021
assVRhinolophidae
p5022
(dp5023
VRhinolophus
p5024
(lp5025
Vaffinis
p5026
aVarcuatus
p5027
aVcornutus
p5028
aVacuminatus
p5029
aVaclyone
p5030
aVblasii
p5031
aVbocharicus
p5032
aVcanuti
p5033
aVcelebensis
p5034
aVclivosus
p5035
aVcreaghi
p5036
aVdarlingi
p5037
aVdeckenii
p5038
aVeuryale
p5039
aVferrumequinum
p5040
aVfumigatus
p5041
aVhildebrandti
p5042
aVhillorum
p5043
aVhipposideros
p5044
aVimaizumii
p5045
aVlanderi
p5046
aVlepidus
p5047
aVluctus
p5048
aVmacrotis
p5049
asVCloeotis
p5050
(lp5051
Vpercivali
p5052
asVAselliscus
p5053
(lp5054
Vtricuspidatus
p5055
aVstoliczkanus
p5056
asVHipposideros
p5057
(lp5058
Varmiger
p5059
aVdiadema
p5060
aVpygmaeus
p5061
aVabae
p5062
aVater
p5063
aVcaffer
p5064
aVcalcaratus
p5065
aVcervinus
p5066
aVcyclops
p5067
aVdyacorum
p5068
aVfuliginosus
p5069
aVgigas
p5070
aVgrandis
p5071
aVlarvatus
p5072
aVlylei
p5073
aVobscurus
p5074
aVpelingensis
p5075
aVpomona
p5076
aVruber
p5077
aVturpis
p5078
asssVLagomorpha
p5079
(dp5080
VLeporidae
p5081
(dp5082
VNekrolagus
p5083
(lp5084
Vprogressus
p5085
asVSylvilagus
p5086
(lp5087
Vfloridanus
p5088
aVaquaticus
p5089
asVPronolagus
p5090
(lp5091
Vsp.
p5092
asVLepus
p5093
(lp5094
Vsp.
p5095
aVbolti
p5096
aVcalifornicus
p5097
asVOryctolagus
p5098
(lp5099
Vcuniculus
p5100
asVPalaeolagus
p5101
(lp5102
Vhaydeni
p5103
assVOchotonidae
p5104
(dp5105
VOchotona
p5106
(lp5107
Vprinceps
p5108
asssVDidelphimorphia
p5109
(dp5110
VDidelphidae
p5111
(dp5112
VCaluromys
p5113
(lp5114
Vsp.
p5115
aVderbianus
p5116
asVChironectes
p5117
(lp5118
Vminimus
p5119
asVMarmosa
p5120
(lp5121
Vderbianus
p5122
aVsp.
p5123
aVmexicana
p5124
aVmurina
p5125
asVThylamys
p5126
(lp5127
Velegans
p5128
aVpallidior
p5129
asVLutreolina
p5130
(lp5131
Vcrassicaudata
p5132
asVMonodelphis
p5133
(lp5134
Vdomestica 
p5135
aVsp.
p5136
asVGracilinanus
p5137
(lp5138
Vmicrotarsus
p5139
aVagilis
p5140
asVMicoureus
p5141
(lp5142
Valstoni
p5143
aVdemerarae
p5144
asVMarmosops
p5145
(lp5146
Vnoctivagus
p5147
aVincanus
p5148
asVPhilander
p5149
(lp5150
Vopossum
p5151
aVandersoni
p5152
aVcanus
p5153
asVDidelphis
p5154
(lp5155
Vmarsupialis
p5156
aVvirginiana
p5157
aVsp.
p5158
assVPeradectidae
p5159
(dp5160
VMimoperadectes
p5161
(lp5162
Vlabrus
p5163
asVPeradectes
p5164
(lp5165
Vprotinnominatus
p5166
assVStagodontidae
p5167
(dp5168
VDidelphodon
p5169
(lp5170
Vvorax
p5171
assVHerpetotheriidae
p5172
(dp5173
VHerpetotherium
p5174
(lp5175
Vinnominatum
p5176
asssVProboscidea
p5177
(dp5178
VMammutidae
p5179
(dp5180
VMammut
p5181
(lp5182
Vamericanum
p5183
assVElephantidae
p5184
(dp5185
VMammuthus
p5186
(lp5187
Vcf. M. hayi
p5188
aVprimigenius
p5189
asVElephas
p5190
(lp5191
Vrecki
p5192
assssS'Aves (and fossil outgroups)'
p5193
(dp5194
VColumbiformes
p5195
(dp5196
VColumbidae
p5197
(dp5198
VColumba
p5199
(lp5200
Vlivia
p5201
asVPtilinopus
p5202
(lp5203
Vsuperbus
p5204
asssVApodiformes
p5205
(dp5206
VTrochilidae
p5207
(dp5208
VSelasphorus
p5209
(lp5210
Vrufus
p5211
asVPhaethornis
p5212
(lp5213
Vsuperciliosus
p5214
asVEutoxeres
p5215
(lp5216
Vcondamini
p5217
assVApodidae
p5218
(dp5219
VApus
p5220
(lp5221
Vapus
p5222
asssVFalconiformes
p5223
(dp5224
VFalconidae
p5225
(dp5226
VFalco
p5227
(lp5228
Vperegrinus
p5229
aVcenchroides
p5230
aVsubbuteo
p5231
aVtinnunculus
p5232
asssVPasseriformes
p5233
(dp5234
VCorvidae
p5235
(dp5236
VCorvus
p5237
(lp5238
Vcorax
p5239
assVMuscicapidae
p5240
(dp5241
VLuscinia
p5242
(lp5243
Vmegarhynchos
p5244
assVDicruridae
p5245
(dp5246
VDicrurus
p5247
(lp5248
Vparadiseus
p5249
assVEstrildidae
p5250
(dp5251
VTaeniopygia
p5252
(lp5253
Vguttata
p5254
assVPasseridae
p5255
(dp5256
VPasser
p5257
(lp5258
Vdomesticus
p5259
assVMeliphagidae
p5260
(dp5261
VAcanthorhynchus
p5262
(lp5263
Vsuperciliosus
p5264
assVParulidae
p5265
(dp5266
VSeiurus
p5267
(lp5268
Vaurocapilla
p5269
asssVCiconiiformes
p5270
(dp5271
VCiconiidae
p5272
(dp5273
VCiconia
p5274
(lp5275
Vciconia
p5276
aVnigra
p5277
asssVCasuariiformes
p5278
(dp5279
VCasuariidae
p5280
(dp5281
VCasuarius
p5282
(lp5283
VCasuarius
p5284
aVunappendiculatus
p5285
asssVGaviiformes
p5286
(dp5287
VGaviidae
p5288
(dp5289
VGavia
p5290
(lp5291
Vimmer
p5292
asssS'Apterygiformes'
p5293
(dp5294
S'Apterygidae'
p5295
(dp5296
VApteryx
p5297
(lp5298
Vhaastii
p5299
asssVStrigiformes
p5300
(dp5301
VStrigidae
p5302
(dp5303
VAthene
p5304
(lp5305
Vcunicularia
p5306
asssVGruiformes
p5307
(dp5308
VGruidae
p5309
(dp5310
VGrus
p5311
(lp5312
Vgrus
p5313
asssVPhoenicopteriformes
p5314
(dp5315
VPhoenicopteridae
p5316
(dp5317
VPhoenicopterus
p5318
(lp5319
Vruber
p5320
asssVGalliformes
p5321
(dp5322
VPhasianidae
p5323
(dp5324
VFalcipennis
p5325
(lp5326
Vcanadensis
p5327
asVAlectoris
p5328
(lp5329
Vrufa
p5330
asVPhasianus
p5331
(lp5332
Vcolchicus
p5333
asVDendragapus
p5334
(lp5335
Vobscurus
p5336
asVGallus
p5337
(lp5338
Vgallus
p5339
asVCoturnix
p5340
(lp5341
Vcoturnix
p5342
asVMeleagris
p5343
(lp5344
Vgallopavo
p5345
assVCracidae
p5346
(dp5347
VOrtalis
p5348
(lp5349
Vvetula 
p5350
asssVPelecaniformes
p5351
(dp5352
VArdeidae
p5353
(dp5354
VArdea
p5355
(lp5356
Vcinerea
p5357
assVBalaenicipitidae
p5358
(dp5359
VBalaeniceps
p5360
(lp5361
Vrex
p5362
assVPhalacrocoracidae
p5363
(dp5364
VPhalacrocorax
p5365
(lp5366
Vharrisi
p5367
aVcarbo
p5368
asssS'Anseriformes (plus fossil outgroups)'
p5369
(dp5370
V
(dp5371
VVegavis
p5372
(lp5373
Viaai
p5374
assVAnhimidae
p5375
(dp5376
VChauna
p5377
(lp5378
Vtorquata 
p5379
assVAnseranatidae
p5380
(dp5381
VAnseranas
p5382
(lp5383
Vsemipalmata
p5384
assVPresbyornithidae
p5385
(dp5386
VPresbyornis
p5387
(lp5388
Vsp
p5389
assVAnatidae
p5390
(dp5391
VAix
p5392
(lp5393
Vsponsa
p5394
asVAythya
p5395
(lp5396
Vfuligula
p5397
asVOxyura
p5398
(lp5399
Vjamaicensis
p5400
asVCairina
p5401
(lp5402
V moschata
p5403
asVChen
p5404
(lp5405
Vcaerulescens
p5406
asVTachyeres
p5407
(lp5408
Vbrachypterus
p5409
asVAnas
p5410
(lp5411
Vdiscors
p5412
aVacuta
p5413
aVcrecca
p5414
asssVPsittaciformes
p5415
(dp5416
VPsittacidae
p5417
(dp5418
VTrichoglossus
p5419
(lp5420
Vhaematodus
p5421
asVAra
p5422
(lp5423
Vmacao
p5424
asVMelopsittacus
p5425
(lp5426
Vundulatus
p5427
asVAmazona
p5428
(lp5429
Vviridigenalis
p5430
asVNestor
p5431
(lp5432
Vnotabilis
p5433
asVPsittacus
p5434
(lp5435
Verithacus
p5436
asssVSphenisciformes
p5437
(dp5438
VSpheniscidae
p5439
(dp5440
VSpheniscus
p5441
(lp5442
Vmagellanicus
p5443
asssVCoraciiformes
p5444
(dp5445
VAlcedinidae
p5446
(dp5447
VAlcedo
p5448
(lp5449
Vatthis
p5450
asVDacelo
p5451
(lp5452
Vnovaeguineae
p5453
assVCoraciidae
p5454
(dp5455
VCoracias
p5456
(lp5457
Vgarrulus
p5458
asssVCuculiformes
p5459
(dp5460
VCoccyzidae
p5461
(dp5462
VCoccyzus
p5463
(lp5464
Verythopthalmus
p5465
aVCoccyzus erythropthalmus
p5466
assS'Cuculidae'
p5467
(dp5468
VCuculus
p5469
(lp5470
Vcanorus
p5471
asssVTinamiformes
p5472
(dp5473
VTinamidae
p5474
(dp5475
VRhynchotus
p5476
(lp5477
Vrufescens
p5478
asVNothoprocta
p5479
(lp5480
Vperdicaria
p5481
asssVPodicipediformes
p5482
(dp5483
VPodicipedidae
p5484
(dp5485
VPodilymbus
p5486
(lp5487
Vpodiceps
p5488
asVPodiceps
p5489
(lp5490
Vnigricollis
p5491
aVcristatus
p5492
asssS'Fossil outgroups'
p5493
(dp5494
VHadrosauridae
p5495
(dp5496
VEdmontosaurus
p5497
(lp5498
Vannectens
p5499
asVTelmatosaurus
p5500
(lp5501
Vtranssylvanicus
p5502
assS'Ankylosauridae'
p5503
(dp5504
VAnkylosaurus
p5505
(lp5506
Vmagniventris
p5507
assS'Megalosauridae'
p5508
(dp5509
VMegalosaurus
p5510
(lp5511
Vbucklandii
p5512
asVEustreptospondylus
p5513
(lp5514
Voxoniensis
p5515
assVPachycephalosauridae
p5516
(dp5517
VStegoceras
p5518
(lp5519
Vvalidum
p5520
assVGrallatoridae
p5521
(dp5522
VGrallator
p5523
(lp5524
Vsp.
p5525
assS'Massospondylidae'
p5526
(dp5527
S'Massospondylus'
p5528
(lp5529
Vcarinatus
p5530
asssVPiciformes
p5531
(dp5532
VRamphastidae
p5533
(dp5534
VRamphastos
p5535
(lp5536
Vdicolorus
p5537
assVPicidae
p5538
(dp5539
VDendrocopos
p5540
(lp5541
Vmajor
p5542
asVSphyrapicus
p5543
(lp5544
Vvarius
p5545
asssVCaprimulgiformes
p5546
(dp5547
S'Podargidae'
p5548
(dp5549
VPodargus
p5550
(lp5551
Vstrigoides
p5552
assVCaprimulgidae
p5553
(dp5554
VNyctidromus
p5555
(lp5556
Valbicollis
p5557
asVCaprimulgus
p5558
(lp5559
Veuropaeus
p5560
assS'Steatornithidae'
p5561
(dp5562
VSteatornis
p5563
(lp5564
Vcaripensis
p5565
asssVOpisthocomiformes
p5566
(dp5567
VOpisthocomidae
p5568
(dp5569
VOpisthocomus
p5570
(lp5571
Vhoazin
p5572
asssVPteroclidiformes
p5573
(dp5574
VPteroclididae
p5575
(dp5576
VPterocles
p5577
(lp5578
Vquadricinctus
p5579
asssVProcellariiformes
p5580
(dp5581
VDiomedeidae
p5582
(dp5583
VDiomedea
p5584
(lp5585
Vexulans
p5586
asVPhoebastria
p5587
(lp5588
Vnigripes 
p5589
assVHydrobatidae
p5590
(dp5591
VPelagodroma
p5592
(lp5593
Vmarina
p5594
assVProcellariidae
p5595
(dp5596
VFulmarus
p5597
(lp5598
Vglacialis 
p5599
asssVTrogoniformes
p5600
(dp5601
VTrogonidae
p5602
(dp5603
VTrogon
p5604
(lp5605
Vcurucui
p5606
asssVCharadriiformes
p5607
(dp5608
VAlcidae
p5609
(dp5610
VAlca
p5611
(lp5612
Vtorda
p5613
asVUria
p5614
(lp5615
Vlomvia
p5616
assVLaridae
p5617
(dp5618
VLarus
p5619
(lp5620
Vphiladelphia
p5621
aVargentatus
p5622
asVSterna
p5623
(lp5624
Vhirundo
p5625
asVCreagrus
p5626
(lp5627
Vfurcatus
p5628
asVChroicocephalus
p5629
(lp5630
Vphiladelphia
p5631
asVGelochelidon
p5632
(lp5633
Vnilotica
p5634
assVCharadriidae
p5635
(dp5636
VVanellus
p5637
(lp5638
Vmiles
p5639
assVHaematopodidae
p5640
(dp5641
VHaematopus
p5642
(lp5643
Vostralegus
p5644
assVScolopacidae
p5645
(dp5646
VScolopax
p5647
(lp5648
Vrusticola
p5649
asVArenaria
p5650
(lp5651
Vmelanocephala
p5652
asVActitis
p5653
(lp5654
Vhypoleucos
p5655
asssVAccipitriformes
p5656
(dp5657
VPandionidae
p5658
(dp5659
VPandion
p5660
(lp5661
Vhaliaetus
p5662
assVSagittariidae
p5663
(dp5664
VSagittarius
p5665
(lp5666
Vserpentarius
p5667
assS'Accipitridae'
p5668
(dp5669
VAquila
p5670
(lp5671
Vchrysaetos
p5672
asVButeo
p5673
(lp5674
Vbuteo
p5675
assVCathartidae
p5676
(dp5677
VVultur
p5678
(lp5679
Vgryphus
p5680
asssVPhaethontiformes
p5681
(dp5682
VPhaethontidae
p5683
(dp5684
VPhaethon
p5685
(lp5686
Vlepturus
p5687
asssVStruthioniformes
p5688
(dp5689
VStruthionidae
p5690
(dp5691
VStruthio
p5692
(lp5693
Vcamelus
p5694
asssVSuliformes
p5695
(dp5696
VFregatidae
p5697
(dp5698
VFregata
p5699
(lp5700
Vmagnificens
p5701
assVSulidae
p5702
(dp5703
VSula
p5704
(lp5705
Vdactylatra
p5706
asssVCariamiformes
p5707
(dp5708
VPhorusrhacidae
p5709
(dp5710
VTitanis
p5711
(lp5712
Vwalleri
p5713
assssVReptilia
p5714
(dp5715
S'Younginiformes'
p5716
(dp5717
VGoniopholididae
p5718
(dp5719
VDakotasuchus
p5720
(lp5721
Vkingi
p5722
assV
(dp5723
VOrovenator
p5724
(lp5725
Vmayorum
p5726
asVTriopticus
p5727
(lp5728
Vprimus
p5729
asssVCrocodylia
p5730
(dp5731
VCrocodylidae
p5732
(dp5733
VCrocodylus
p5734
(lp5735
Vjohnsoni
p5736
aVsiamensis
p5737
aVmindorensis
p5738
assVGavialidae
p5739
(dp5740
VTomistoma
p5741
(lp5742
Vschlegelii
p5743
asVGavialis
p5744
(lp5745
Vgangeticus
p5746
assVAlligatoridae
p5747
(dp5748
VAlligator
p5749
(lp5750
Vmississippiensis
p5751
asVPaleosuchus
p5752
(lp5753
Vtrigonatus
p5754
asssVSquamata
p5755
(dp5756
VElapidae
p5757
(dp5758
VDendroaspis
p5759
(lp5760
Vjamesoni
p5761
aVangusticeps
p5762
asVMicrurus
p5763
(lp5764
Vnigrocinctus
p5765
asVNaja
p5766
(lp5767
Vmossambica
p5768
aVnigricollis
p5769
assVUropeltidae
p5770
(dp5771
VUropeltis
p5772
(lp5773
Vmelanogaster
p5774
asVPlectrurus
p5775
(lp5776
Vperroteti
p5777
assVCarphodactylidae
p5778
(dp5779
VNephrurus
p5780
(lp5781
Vasper
p5782
asVPhyllurus
p5783
(lp5784
Vplaturus
p5785
assVTeiidae
p5786
(dp5787
VDracaena
p5788
(lp5789
Vguianensis
p5790
asVKentropyx
p5791
(lp5792
Vpelviceps
p5793
asVTeius
p5794
(lp5795
Vteyou
p5796
asVTupinambis
p5797
(lp5798
Vrufescens
p5799
asVDicrodon
p5800
(lp5801
Vguttulatum
p5802
asVCnemidophorus
p5803
(lp5804
Vmurinus
p5805
assVGerrhosauridae
p5806
(dp5807
VGerrhosaurus
p5808
(lp5809
Vmajor
p5810
aVvalidus
p5811
assVTyphlopidae
p5812
(dp5813
VAnilios
p5814
(lp5815
Vgrypus
p5816
aVleptosoma
p5817
aVaustralis
p5818
aVsp.
p5819
assVPhrynosomatidae
p5820
(dp5821
VSceloporus
p5822
(lp5823
Vmagister
p5824
asVUma
p5825
(lp5826
Vscoparia
p5827
assVDibamidae
p5828
(dp5829
VDibamus
p5830
(lp5831
Vbogadeki
p5832
assVCorytophanidae
p5833
(dp5834
VLaemanctus
p5835
(lp5836
Vlongipes
p5837
asVCorytophanes
p5838
(lp5839
Vpercarinatus
p5840
assVLacertidae
p5841
(dp5842
VAcanthodactylus
p5843
(lp5844
Verythrurus
p5845
asVTakydromus
p5846
(lp5847
Vsexlineatus
p5848
assVDiplodactylidae
p5849
(dp5850
VBavayia
p5851
(lp5852
Vrobusta
p5853
asVCrenadactylus
p5854
(lp5855
Vocellatus
p5856
asVOedodera
p5857
(lp5858
Vmarmorata
p5859
asVCorrelophus
p5860
(lp5861
Vciliatus
p5862
assVIguanidae
p5863
(dp5864
VGambelia
p5865
(lp5866
Vsila
p5867
asVBrachylophus
p5868
(lp5869
Vvitiensis
p5870
asVConolophus
p5871
(lp5872
Vsubcristatus
p5873
asVCtenosaura
p5874
(lp5875
Vhemilopha
p5876
asVAnolis
p5877
(lp5878
Vcristitellus
p5879
aVcarolinensis
p5880
aVporcatus
p5881
asVCrotaphytus
p5882
(lp5883
Vbicinctores
p5884
aVcollaris
p5885
asVCyclura
p5886
(lp5887
Vcornuta
p5888
aVpinguis
p5889
asVBasiliscus
p5890
(lp5891
Vbasiliscus
p5892
aVvittatus
p5893
aVplumifrons
p5894
asVMicrolophus
p5895
(lp5896
Vperuvianus
p5897
asVSauromalus
p5898
(lp5899
Vater
p5900
aVobesus
p5901
asVPlica
p5902
(lp5903
Vumbra
p5904
asVPhymaturus
p5905
(lp5906
Vpalluma
p5907
asVLeiocephalus
p5908
(lp5909
Vinaguae
p5910
asVAmblyrhynchus
p5911
(lp5912
Vcristatus
p5913
asVIguana
p5914
(lp5915
Viguana
p5916
assVXenosauridae
p5917
(dp5918
VXenosaurus
p5919
(lp5920
Vrectocollaris
p5921
asVShinisaurus
p5922
(lp5923
Vcrocodilurus
p5924
assVDipsadidae
p5925
(dp5926
VCubophis
p5927
(lp5928
Vcantherigerus
p5929
aVvudii
p5930
asVOxyrhopus
p5931
(lp5932
Vguibei
p5933
asVOmoadiphas
p5934
(lp5935
Vaurula
p5936
assVHelodermatidae
p5937
(dp5938
VHeloderma
p5939
(lp5940
Vsuspectum
p5941
aVhorridum
p5942
assVMosasauridae
p5943
(dp5944
VPlatecarpus
p5945
(lp5946
Vtympaniticus
p5947
assVLanthanotidae
p5948
(dp5949
VLanthanotus
p5950
(lp5951
Vborneensis
p5952
assVAgamidae
p5953
(dp5954
VBronchocela
p5955
(lp5956
Vcristatella
p5957
asVSitana
p5958
(lp5959
Vponticeriana
p5960
asVLyriocephalus
p5961
(lp5962
Vscutatus
p5963
asVDiporiphora
p5964
(lp5965
Vwinneckei
p5966
asVUromastyx
p5967
(lp5968
Vsp.
p5969
asVCalotes
p5970
(lp5971
Vmystaceus
p5972
asVJapalura
p5973
(lp5974
Vpolygonata
p5975
asVCeratophora
p5976
(lp5977
Vstoddartii
p5978
asVIntellagama
p5979
(lp5980
Vlesueurii
p5981
asVAgama
p5982
(lp5983
Vplaniceps
p5984
asVDraco
p5985
(lp5986
Vblanfordii
p5987
aVdussumieri
p5988
aVmaculatus
p5989
aVmelanopogon
p5990
aVspilopterus
p5991
assVEublepharidae
p5992
(dp5993
VGoniurosaurus
p5994
(lp5995
Vlichtenfelderi
p5996
asVHemitheconyx
p5997
(lp5998
Vcaudicinctus
p5999
assVGekkonidae
p6000
(dp6001
VDixonius
p6002
(lp6003
Vsiamensis
p6004
asVGeckolepis
p6005
(lp6006
Vhumbloti
p6007
aVmaculata
p6008
aVmegalepis
p6009
asVChondrodactylus
p6010
(lp6011
Vangulifer
p6012
asVGekko
p6013
(lp6014
Vgecko
p6015
aVsmithii
p6016
asVStenodactylus
p6017
(lp6018
Varabicus
p6019
asVTropiocolotes
p6020
(lp6021
Vtripolitanus
p6022
asVUnknown
p6023
(lp6024
Vsp.
p6025
asVCyrtodactylus
p6026
(lp6027
Vfraenatus
p6028
asVUroplatus
p6029
(lp6030
Vebenaui
p6031
aVphantasticus
p6032
aVfimbriatus
p6033
asVPachydactylus
p6034
(lp6035
V
aVscutatus
p6036
asVPristurus
p6037
(lp6038
Vcrucifer
p6039
asVHemidactylus
p6040
(lp6041
Vturcicus
p6042
aVlavadeserticus
p6043
asVTeratoscincus
p6044
(lp6045
Vprzewalskii 
p6046
asVRhoptropus
p6047
(lp6048
V
aVbarnardi
p6049
aVboltoni
p6050
asVCyrtopodion
p6051
(lp6052
Vheterocercus
p6053
assVScincidae
p6054
(dp6055
VTrachylepis
p6056
(lp6057
Vlaevis
p6058
aVsulcata
p6059
aVgonwouoi
p6060
aVacutilabrus
p6061
asVTiliqua
p6062
(lp6063
Vrugosa
p6064
asVAcontias
p6065
(lp6066
Vmeleagris
p6067
asVLerista
p6068
(lp6069
Vbipes
p6070
asVCorucia
p6071
(lp6072
Vzebrata
p6073
asVEgernia
p6074
(lp6075
Vstokesii
p6076
aVstriolata
p6077
aVwhitii
p6078
aVcunninghami
p6079
assVColubridae
p6080
(dp6081
VGyalopion
p6082
(lp6083
Vcanum
p6084
asVTrimorphodon
p6085
(lp6086
Vvilkinsonii
p6087
asVConopsis
p6088
(lp6089
Vbiserialis
p6090
asVLeptophis
p6091
(lp6092
Vdepressirostris
p6093
aVahaetulla
p6094
aVdiplotropis
p6095
aVmexicanus
p6096
asVXenopholis
p6097
(lp6098
Vscalaris
p6099
asVHeterodon
p6100
(lp6101
Vplatirhinos
p6102
asVHypsiglena
p6103
(lp6104
Vaffinis
p6105
asVClelia
p6106
(lp6107
Vclelia
p6108
asVErpeton
p6109
(lp6110
Vtentaculatum
p6111
asVThelotornis
p6112
(lp6113
Vkirtlandii
p6114
asVProsymna
p6115
(lp6116
Vambigua
p6117
aVstuhlmanni 
p6118
aVbivitata
p6119
aVruspoli
p6120
aVsundevalli
p6121
aVvisseri
p6122
aVlineata
p6123
asVOxybelis
p6124
(lp6125
Vaeneus
p6126
aVargenteus
p6127
asVLiophidium
p6128
(lp6129
Vapperti
p6130
aVrhodogaster
p6131
aVtorquatum
p6132
asVTantilla
p6133
(lp6134
Vvermiformis
p6135
aVschistosa
p6136
aVcucullata
p6137
aVrelicta
p6138
aVmoesta
p6139
aVhobartsmithi
p6140
aVgracilis
p6141
aVcoronata
p6142
aVbocourti
p6143
aVatriceps
p6144
aVcalamarina
p6145
aVnigriceps
p6146
aVwilcoxi
p6147
asVImantodes
p6148
(lp6149
Vcenchoa
p6150
asVTaeniophallus
p6151
(lp6152
Voccipitalis
p6153
asVDasypeltis
p6154
(lp6155
Vscabra
p6156
asVSpilotes
p6157
(lp6158
Vpullatus
p6159
asVOrthriophis
p6160
(lp6161
Vtaeniurus
p6162
asVLamprophis
p6163
(lp6164
Vfuliginosus
p6165
asVSibon
p6166
(lp6167
Vdimidiatus
p6168
asVDromicodryas
p6169
(lp6170
Vquadrilineatus
p6171
asVAhaetulla
p6172
(lp6173
Vnasuta
p6174
asVFicimia
p6175
(lp6176
Vpublia
p6177
asVPsomophis
p6178
(lp6179
Vgenimaculatus
p6180
asVLampropeltis
p6181
(lp6182
Vpyromelana
p6183
asVDrymobius
p6184
(lp6185
Vchloroticus
p6186
asVDispholidus
p6187
(lp6188
Vtypus
p6189
asVMasticophis
p6190
(lp6191
Vflagellum
p6192
aVlateralis
p6193
aVbilineatus
p6194
asVMastigodryas
p6195
(lp6196
Vmelanolomus
p6197
asVPsammodynastes
p6198
(lp6199
Vpulverulentus
p6200
asVLeioheterodon
p6201
(lp6202
Vgeayi
p6203
aVmodestus
p6204
asVIthycyphus
p6205
(lp6206
Voursi
p6207
asVElaphe
p6208
(lp6209
Vvulpina
p6210
aVobsoleta
p6211
aVtriaspis
p6212
aVradiata
p6213
asVDipsas
p6214
(lp6215
Vcatesbyi
p6216
asVDrymarchon
p6217
(lp6218
Vmelanurus
p6219
aVcorais
p6220
asVAparallactus
p6221
(lp6222
Vcapensis 
p6223
aVlineatus
p6224
asVAmblyodipsas
p6225
(lp6226
Vpolylepis
p6227
assVVaranidae
p6228
(dp6229
VVaranus
p6230
(lp6231
Volivaceus
p6232
aVniloticus
p6233
aVrudicollis
p6234
aVvarius
p6235
aVprasinus
p6236
assVSphaerodactylidae
p6237
(dp6238
VLepidoblepharis
p6239
(lp6240
Vsanctaemartae
p6241
asVPseudogonatodes
p6242
(lp6243
Vbarbouri
p6244
asVSphaerodactylus
p6245
(lp6246
Vcaicosensis
p6247
asVSaurodactylus
p6248
(lp6249
Vmauritanicus
p6250
assVChamaeleonidae
p6251
(dp6252
VKinyongia
p6253
(lp6254
Vtavetana
p6255
aVtenue
p6256
aVtenuis
p6257
aVmatschiei
p6258
asVChamaeleo
p6259
(lp6260
Vzeylanicus
p6261
aVafricanus
p6262
aVcalcaricarens
p6263
aVnamaquensis
p6264
asVTrioceros
p6265
(lp6266
Vfeae
p6267
aVrudis
p6268
aVsternfeldi
p6269
aVserratus
p6270
asVFurcifer
p6271
(lp6272
Voustaleti
p6273
aVbifidus
p6274
aVbalteatus
p6275
aVrhinoceratus
p6276
asVCalumma
p6277
(lp6278
Vparsonii
p6279
aVtigris
p6280
asVRieppeleon
p6281
(lp6282
Vbrevicaudatus
p6283
asVBrookesia
p6284
(lp6285
Vsuperciliaris
p6286
aVperarmata
p6287
asVRhampholeon
p6288
(lp6289
Vbrevicaudatus
p6290
asVBradypodion
p6291
(lp6292
Vpumilum
p6293
aVdracomontanum
p6294
aVsetaroi
p6295
aVoccidentale
p6296
aVgutturale
p6297
aVventrale
p6298
assVPhyllodactylidae
p6299
(dp6300
VTarentola
p6301
(lp6302
Vmauritanica 
p6303
asVThecadactylus
p6304
(lp6305
Vrapicauda
p6306
assVBoidae
p6307
(dp6308
VTitanoboa
p6309
(lp6310
Vcerrejonensis
p6311
asVBoa
p6312
(lp6313
Vconstrictor
p6314
asVEunectes
p6315
(lp6316
Vmurinus
p6317
assVViperidae
p6318
(dp6319
VAtheris
p6320
(lp6321
Vceratophora
p6322
asVGloydius
p6323
(lp6324
Vussuriensis
p6325
asVCrotalus
p6326
(lp6327
Vdurissus
p6328
aVviridis
p6329
asVLachesis
p6330
(lp6331
Vstenophrys
p6332
asVAzemiops
p6333
(lp6334
Vfeae
p6335
asVBothrops
p6336
(lp6337
Vsp
p6338
aVatrox
p6339
aVmoojeni
p6340
aVasper
p6341
asVAgkistrodon
p6342
(lp6343
Vcaliginosus
p6344
asVCerastes
p6345
(lp6346
Vcerastes
p6347
assVAtractaspidae
p6348
(dp6349
VAtractaspis
p6350
(lp6351
Vbibroni
p6352
aVaterrima
p6353
aVbibronii
p6354
assVAcrochordidae
p6355
(dp6356
VAcrochordus
p6357
(lp6358
Vgranulatus
p6359
assVRhineuridae
p6360
(dp6361
VRhineura
p6362
(lp6363
Vfloridana
p6364
assS'Lamprophiidae'
p6365
(dp6366
VSibynophis
p6367
(lp6368
Vcollaris
p6369
asVAparallactus
p6370
(lp6371
Vniger
p6372
aVmodestus
p6373
assVCordylidae
p6374
(dp6375
VSmaug
p6376
(lp6377
Vgiganteus
p6378
aVwarreni
p6379
aVdepressus
p6380
aVbarbertonensis
p6381
asVPlatysaurus
p6382
(lp6383
Vguttatus
p6384
asVCordylus
p6385
(lp6386
Vmarunguensis
p6387
aVangolensis
p6388
aVnamakuiyus
p6389
aVcordylus
p6390
assVAnguidae
p6391
(dp6392
VElgaria
p6393
(lp6394
Vcoerulea
p6395
aVpanamintina
p6396
aVmulticarinata
p6397
assVAtractaspididae
p6398
(dp6399
VHomoroselaps
p6400
(lp6401
Vlacteus
p6402
asVMacrelaps
p6403
(lp6404
Vmicrolepidotus
p6405
asVXenocalamus
p6406
(lp6407
Vbicolor
p6408
asVPolemon
p6409
(lp6410
Vchristyi
p6411
asssS'Phytosauria'
p6412
(dp6413
S'Parasuchidae'
p6414
(dp6415
VWannia
p6416
(lp6417
Vscurriensis
p6418
asssS'Testudines (and fossil outgroups)'
p6419
(dp6420
VKinosternidae
p6421
(dp6422
VKinosternon
p6423
(lp6424
Vhirtipes
p6425
aVintegrum
p6426
assS'Pelomedusidae'
p6427
(dp6428
VPelomedusa
p6429
(lp6430
Vsubrufa
p6431
assVChelidae
p6432
(dp6433
VPhrynops
p6434
(lp6435
Vhilarii
p6436
assVGeoemydidae
p6437
(dp6438
VMelanochelys
p6439
(lp6440
Vtrijuga
p6441
asVCuora
p6442
(lp6443
Vflavomarginata
p6444
aVamboinensis
p6445
assVChelydridae
p6446
(dp6447
VMacrochelys
p6448
(lp6449
Vtemminckii
p6450
asVChelydra
p6451
(lp6452
Vserpentina
p6453
assVEmydidae
p6454
(dp6455
VTrachemys
p6456
(lp6457
Vinflata
p6458
asssVRhynchocephalia
p6459
(dp6460
VSphenodontidae
p6461
(dp6462
VSphenodon
p6463
(lp6464
Vpunctatus
p6465
assssVAmphibia
p6466
(dp6467
VAnura
p6468
(dp6469
VSooglossidae
p6470
(dp6471
VSooglossus
p6472
(lp6473
Vsechellensis
p6474
assVHyperolidae
p6475
(dp6476
VCallixalus
p6477
(lp6478
Vpictus
p6479
assVBrachycephalidae
p6480
(dp6481
VBrachycephalus
p6482
(lp6483
Vephippium
p6484
aVsp
p6485
aVnodoterga
p6486
aValbolineatus
p6487
aVcoloratus
p6488
aVcurupira
p6489
asVIschnocnema
p6490
(lp6491
Vgualteri
p6492
aVguentheri
p6493
assVRhinophrynidae
p6494
(dp6495
VRhinophrynus
p6496
(lp6497
Vdorsalis
p6498
assVPelodytidae
p6499
(dp6500
VPelodytes
p6501
(lp6502
Vcaucasicus
p6503
assVRhinodermatidae
p6504
(dp6505
VRhinoderma
p6506
(lp6507
Vdarwinii
p6508
assVAromobatidae
p6509
(dp6510
VAromobates
p6511
(lp6512
Vmayorgai
p6513
assVHemisotidae
p6514
(dp6515
VHemisus
p6516
(lp6517
Vguineensis
p6518
assVCalyptocephalellidae
p6519
(dp6520
VCalyptocephalella
p6521
(lp6522
Vgayi
p6523
assVConrauidae
p6524
(dp6525
VConraua
p6526
(lp6527
Vcrassipes
p6528
aVgoliath
p6529
assVLeptodactylidae
p6530
(dp6531
VAdenomera
p6532
(lp6533
Vandreae
p6534
asVLeptodactylus
p6535
(lp6536
Vvalidus
p6537
assVCentrolenidae
p6538
(dp6539
VHyalinobatrachium
p6540
(lp6541
Vfleischmanni
p6542
asVCochranella
p6543
(lp6544
Vgranulosa
p6545
asVCentrolene
p6546
(lp6547
Vbuckleyi
p6548
assVPetropedetidae
p6549
(dp6550
VPetropedetes
p6551
(lp6552
Vsp
p6553
aVpalmipes
p6554
aVcf. vulpiae
p6555
assVOdontophrynidae
p6556
(dp6557
VOdontophrynus
p6558
(lp6559
Vamericanus
p6560
asVMacrogenioglottus
p6561
(lp6562
Valipioi
p6563
asVProceratophrys
p6564
(lp6565
Vboiei
p6566
assVAllophrynidae
p6567
(dp6568
VAllophryne
p6569
(lp6570
Vruthveni
p6571
assVBrevicipitidae
p6572
(dp6573
VSpelaeophryne
p6574
(lp6575
Vmethneri
p6576
asVProbreviceps
p6577
(lp6578
Vmacrodactylus
p6579
asVBreviceps
p6580
(lp6581
Vpoweri
p6582
asS'Callulina'
p6583
(lp6584
Vkisiwamsitu
p6585
asS'Balebreviceps'
p6586
(lp6587
Vhillmani
p6588
assVHyperoliidae
p6589
(dp6590
VAfrixalus
p6591
(lp6592
Vorophilus
p6593
asVAcanthixalus
p6594
(lp6595
Vspinosus
p6596
asVChrysobatrachus
p6597
(lp6598
Vcupreonitens
p6599
asVKassina
p6600
(lp6601
Vsenegalensis
p6602
assVPtychadenidae
p6603
(dp6604
VHildebrandtia
p6605
(lp6606
Vornata
p6607
assVMyobatrachidae
p6608
(dp6609
VLechriodus
p6610
(lp6611
Vmelanopyga
p6612
asVNeobatrachus
p6613
(lp6614
Vpictus
p6615
assVLeiopelmatidae
p6616
(dp6617
VAscaphus
p6618
(lp6619
Vtruei
p6620
aVmontanus
p6621
asVLeiopelma
p6622
(lp6623
Vhamiltoni
p6624
assVMegophryidae
p6625
(dp6626
VLeptolalax
p6627
(lp6628
Vaereus
p6629
asVOphryophryne
p6630
(lp6631
Vpachyproctus
p6632
asVBrachytarsophrys
p6633
(lp6634
Vcarinensis
p6635
asS'Leptobrachium'
p6636
(lp6637
Vhasseltii
p6638
asVXenophrys
p6639
(lp6640
Vmajor
p6641
assVCycloramphidae
p6642
(dp6643
VThoropa
p6644
(lp6645
Vtaophora
p6646
asVCycloramphus
p6647
(lp6648
Vasper
p6649
asVZachaenus
p6650
(lp6651
Vparvulus
p6652
assVCeratophryidae
p6653
(dp6654
S'Beelzebufo'
p6655
(lp6656
Vampinga
p6657
asVLepidobatrachus
p6658
(lp6659
Vlaevis
p6660
asVCeratophrys
p6661
(lp6662
Vaurita
p6663
asS'Telmatobius'
p6664
(lp6665
Vthompsoni
p6666
asS'Chacophrys'
p6667
(lp6668
Vpierottii
p6669
asS'Atelognathus'
p6670
(lp6671
Vpatagonicus
p6672
assVAlytidae
p6673
(dp6674
VAlytes
p6675
(lp6676
Vobstetricans
p6677
asVDiscoglossus
p6678
(lp6679
Vpictus
p6680
aVsardus
p6681
assVDicroglossidae
p6682
(dp6683
VLimnonectes
p6684
(lp6685
Vmacrocephalus
p6686
aVblythii
p6687
asVQuasipaa
p6688
(lp6689
Vboulengeri
p6690
asVHoplobatrachus
p6691
(lp6692
Voccipitalis
p6693
assVPyxicephalidae
p6694
(dp6695
VNothophryne
p6696
(lp6697
Vbroadleyi
p6698
asVAnhydrophryne
p6699
(lp6700
Vrattrayi
p6701
asVPyxicephalus
p6702
(lp6703
Vadspersus
p6704
asVMicrobatrachella
p6705
(lp6706
Vcapensis
p6707
asVPoyntonia
p6708
(lp6709
Vpaludicola
p6710
asS'Natalobatrachus'
p6711
(lp6712
Vbonebergi
p6713
assVHylodidae
p6714
(dp6715
VHylodes
p6716
(lp6717
Vasper
p6718
asVCrossodactylus
p6719
(lp6720
Vgaudichaudii
p6721
assVArthroleptidae
p6722
(dp6723
VLeptopelis
p6724
(lp6725
Vnotatus
p6726
asVCardioglossa
p6727
(lp6728
Vcyaneospila
p6729
asVLeptodactylodon
p6730
(lp6731
Vovatus
p6732
asVTrichobatrachus
p6733
(lp6734
Vrobustus
p6735
asVArthroleptis
p6736
(lp6737
Vbioko
p6738
aVtanneri
p6739
aVbivittatus
p6740
aVlonnbergi
p6741
asVAstylosternus
p6742
(lp6743
Vdiadematus
p6744
asVNyctibates
p6745
(lp6746
Vcorrugatus
p6747
assVPipidae
p6748
(dp6749
VPipa
p6750
(lp6751
Vparva
p6752
asVXenopus
p6753
(lp6754
Vclivii
p6755
assVMicrohylidae
p6756
(dp6757
VXenorhina
p6758
(lp6759
Vmehelyi
p6760
asVGastrophryne
p6761
(lp6762
Vcarolinensis
p6763
asVElachistocleis
p6764
(lp6765
Vbicolor
p6766
asVChaperina
p6767
(lp6768
Vfusca
p6769
asVPaedophryne
p6770
(lp6771
Vswiftorum
p6772
aVkathismaphlox
p6773
aVsp.
p6774
aVtitan
p6775
asVChiasmocleis
p6776
(lp6777
Valtomontana
p6778
aVcapixaba
p6779
aVgnoma 
p6780
aValbopunctata
p6781
aVmantiqueira
p6782
aVroyi
p6783
aVcrucis
p6784
asVMelanobatrachus
p6785
(lp6786
Vindicus
p6787
asVPlethodontohyla
p6788
(lp6789
Valluaudi
p6790
aVlaevis
p6791
asVUperodon
p6792
(lp6793
Vmontanus
p6794
aVsystoma
p6795
asVSyncope
p6796
(lp6797
Vantenori
p6798
asVRhombophryne
p6799
(lp6800
Vcoronata
p6801
aVguentherpetersi
p6802
aVornata
p6803
aVtany
p6804
aVvaventy
p6805
aVserratopalpebrosa
p6806
aValluaudi
p6807
asVStumpffia
p6808
(lp6809
Vpygmaea
p6810
assVPelobatidae
p6811
(dp6812
VPelobates
p6813
(lp6814
Vfuscus
p6815
aVvaraldii
p6816
assVHeleophrynidae
p6817
(dp6818
VHeleophryne
p6819
(lp6820
Vnatalensis
p6821
aVpurcelli
p6822
asVHadromophryne
p6823
(lp6824
Vnatalensis
p6825
assVBatrachylidae
p6826
(dp6827
VHylorina
p6828
(lp6829
Vsylvatica
p6830
asVBatrachyla
p6831
(lp6832
Vtaeniata
p6833
assVHemiphractidae
p6834
(dp6835
VCryptobatrachus
p6836
(lp6837
Vboulengeri
p6838
asS'Stefania'
p6839
(lp6840
Vscalae
p6841
asVHemiphractus
p6842
(lp6843
Vfasciatus
p6844
aVproboscideus
p6845
aVelioti
p6846
aVkaylockae
p6847
asVGastrotheca
p6848
(lp6849
Vperuana
p6850
assVBombinatoridae
p6851
(dp6852
VBombina
p6853
(lp6854
Vmaxima
p6855
asVBarbourula
p6856
(lp6857
Vbusuangensis
p6858
assVAlsodidae
p6859
(dp6860
VAlsodes
p6861
(lp6862
Vnodosus
p6863
asVEupsophus
p6864
(lp6865
Vroseus
p6866
asVLimnomedusa
p6867
(lp6868
Vmacroglossa
p6869
assVRanixalidae
p6870
(dp6871
VIndirana
p6872
(lp6873
Vphrynoderma
p6874
assVNasikabatrachidae
p6875
(dp6876
VNasikabatrachus
p6877
(lp6878
Vsahyadrensis
p6879
assVHylidae
p6880
(dp6881
VPhyllodytes
p6882
(lp6883
Vluteolus
p6884
asVNyctimantis
p6885
(lp6886
Vrugiceps
p6887
asVAgalychnis
p6888
(lp6889
Vcalcarifer
p6890
asVPseudacris
p6891
(lp6892
Vornata
p6893
asVPhyllomedusa
p6894
(lp6895
Vbicolor
p6896
asVHyla
p6897
(lp6898
Vfemoralis
p6899
aVavivoca
p6900
aVandersonii
p6901
aVboans
p6902
aVchrysoscelis
p6903
aVcinerea
p6904
asVAnotheca
p6905
(lp6906
Vspinosa
p6907
asVAcris
p6908
(lp6909
Vcrepitans
p6910
aVgryllus
p6911
asVLitoria
p6912
(lp6913
Vaurea
p6914
asVTepuihyla
p6915
(lp6916
Vrodriguezi
p6917
asVCorythomantis
p6918
(lp6919
Vgreeningi
p6920
asVArgenteohyla
p6921
(lp6922
Vsiemersi
p6923
asVTriprion
p6924
(lp6925
Vpetasatus
p6926
asVAparasphenodon
p6927
(lp6928
Vbrunoi
p6929
assVRhacophoridae
p6930
(dp6931
VRaorchestes
p6932
(lp6933
Vmanohari
p6934
aVprimarrumpfi
p6935
aVflaviocularas
p6936
aVnerostegona
p6937
aVochlandrae
p6938
aVresplendens
p6939
aVparvulus
p6940
aVchalazodes
p6941
asVTheloderma
p6942
(lp6943
Vphrynoderma
p6944
asVNyctixalus
p6945
(lp6946
Vpictus
p6947
aVspinosus
p6948
asVRhacophorus
p6949
(lp6950
Vschlegeli
p6951
aVnigripunctatus
p6952
aVappendiculatus
p6953
aVcatamitus
p6954
aVbatakensis
p6955
aVfeae
p6956
asVFeihyla
p6957
(lp6958
Vpalpebralis
p6959
asVPolypedates
p6960
(lp6961
Vmacrotis
p6962
asVPhilautus
p6963
(lp6964
Vpetersi
p6965
aVsurdus
p6966
aVworcesteri
p6967
asVChiromantis
p6968
(lp6969
Vrufescens
p6970
asVBuergeria
p6971
(lp6972
Vjaponica
p6973
assVCraugastoridae
p6974
(dp6975
VCraugastor
p6976
(lp6977
Vlaticeps
p6978
assVBufonidae
p6979
(dp6980
VNectophryne
p6981
(lp6982
Vafra
p6983
asVMelanophryniscus
p6984
(lp6985
Vstelzneri
p6986
asVNectophrynoides
p6987
(lp6988
Vviviparus
p6989
asVAtelopus
p6990
(lp6991
Voxyrhynchus
p6992
aVignescens
p6993
asVAnsonia
p6994
(lp6995
Vmcgregori
p6996
asVSchismaderma
p6997
(lp6998
Vcarens
p6999
asVFrostius
p7000
(lp7001
Vpernambucensis
p7002
asVDidynamipus
p7003
(lp7004
Vsjostedti
p7005
asVAltiphrynoides
p7006
(lp7007
Vmalcomi
p7008
asVAdenomus
p7009
(lp7010
Vkelaartii
p7011
asVMertensophryne
p7012
(lp7013
Vmicranotis
p7014
asVPeltophryne
p7015
(lp7016
Vguentheri
p7017
asVTruebella
p7018
(lp7019
Vtothastes
p7020
aVskoptes
p7021
asVAnaxyrus
p7022
(lp7023
Vfowleri
p7024
aVquercicus
p7025
aVterrestris
p7026
asVLaurentophryne
p7027
(lp7028
Vparkeri
p7029
asVWolterstorffina
p7030
(lp7031
Vparvipalmata
p7032
assVStrabomantidae
p7033
(dp7034
S'Barycholos'
p7035
(lp7036
Vpulcher
p7037
asVOreobates
p7038
(lp7039
Vquixensis
p7040
asVStrabomantis
p7041
(lp7042
Vanomalus
p7043
assVCeratobatrachidae
p7044
(dp7045
VAlcalus
p7046
(lp7047
Vmariae
p7048
asVPlatymantis
p7049
(lp7050
Vpolillensis
p7051
asVCornufer
p7052
(lp7053
Vguppyi
p7054
aVguentheri
p7055
assVScaphiopodidae
p7056
(dp7057
S'Scaphiopus'
p7058
(lp7059
Vholbrookii
p7060
asVSpea
p7061
(lp7062
Vmultiplicata
p7063
assVEleutherodactylidae
p7064
(dp7065
VPhyzelaphryne
p7066
(lp7067
Vmiriamae
p7068
asVEleutherodactylus
p7069
(lp7070
Vorientalis
p7071
aVdimidiatus
p7072
aVglaphycompus
p7073
aVjohnstonei
p7074
aVkarlschmidti
p7075
aVatkinsi
p7076
assVDendrobatidae
p7077
(dp7078
VOophaga
p7079
(lp7080
Vpumilio
p7081
asVAmeerega
p7082
(lp7083
Vtrivittata
p7084
asVPhyllobates
p7085
(lp7086
Vbicolor
p7087
asVColostethus
p7088
(lp7089
Vsylvaticus
p7090
asVMannophryne
p7091
(lp7092
Volmonae
p7093
aVtrinitatis
p7094
asVAllobates
p7095
(lp7096
Vkingsburyi
p7097
asVRheobates
p7098
(lp7099
Vpalmatus
p7100
assVRanidae
p7101
(dp7102
VOccidozyga
p7103
(lp7104
Vlaevis
p7105
asVNyctibatrachus
p7106
(lp7107
Valiciae
p7108
aVmajor
p7109
asVCacosternum
p7110
(lp7111
Vboettgeri
p7112
aVnamaquense
p7113
asVAmnirana
p7114
(lp7115
Valbolabris
p7116
asVLithobates
p7117
(lp7118
Vgrylio
p7119
asVAmolops
p7120
(lp7121
Vcompotrix
p7122
aVspinapectoralis
p7123
asVOdorrana
p7124
(lp7125
Vchapaensis
p7126
asVArthroleptella
p7127
(lp7128
Vlightfooti
p7129
asVMicrixalus
p7130
(lp7131
Vadonis
p7132
aVherrei
p7133
asVRana
p7134
(lp7135
Vclamitans
p7136
aVcapito
p7137
asVPhrynobatrachus
p7138
(lp7139
Vkrefftii
p7140
asVTomopterna
p7141
(lp7142
Vdelandii
p7143
aVmarmorata
p7144
aVtuberculosa
p7145
asVHylarana
p7146
(lp7147
Verythraea
p7148
asVFejervarya
p7149
(lp7150
Vlimnocharis
p7151
asssVCaudata
p7152
(dp7153
VProteidae
p7154
(dp7155
VNecturus
p7156
(lp7157
Vlewisi
p7158
aVbeyeri
p7159
assVSalamandridae
p7160
(dp7161
VTriturus
p7162
(lp7163
Vcristatus
p7164
asVIchthyosaura
p7165
(lp7166
Valpestris
p7167
asVCalotriton
p7168
(lp7169
Varnoldi
p7170
asVPachytriton
p7171
(lp7172
Vlabiatus
p7173
asVPleurodeles
p7174
(lp7175
Vwaltl
p7176
asVNotophthalmus
p7177
(lp7178
Vviridescens
p7179
aVmeridionalis
p7180
asVCynops
p7181
(lp7182
Vpyrrhogaster
p7183
asVTylototriton
p7184
(lp7185
Vpanhai
p7186
asVLissotriton
p7187
(lp7188
Vhelviticus
p7189
aVvulgaris
p7190
assVAmphiumidae
p7191
(dp7192
VAmphiuma
p7193
(lp7194
Vmeans
p7195
assVCryptobranchidae
p7196
(dp7197
VCryptobranchus
p7198
(lp7199
Valleganiensis
p7200
assVAmbystomatidae
p7201
(dp7202
VAmbystoma
p7203
(lp7204
Vmavortium
p7205
aVmaculatum
p7206
assVPlethodontidae
p7207
(dp7208
VBolitoglossa
p7209
(lp7210
Vfranklini
p7211
aVmexicana
p7212
asVDesmognathus
p7213
(lp7214
Vauriculatus
p7215
aVapalachicolae
p7216
aVsp
p7217
aVfloridanus 
p7218
aVconanti
p7219
aVvalentinei
p7220
asVGyrinophilus
p7221
(lp7222
Vporphyriticus
p7223
assVSirenidae
p7224
(dp7225
VSiren
p7226
(lp7227
Vintermedia
p7228
assssss.