(dp1
V
(dp2
sVAnimalia
p3
(dp4
V
(dp5
V
(dp6
V
(dp7
sssVArthropoda
p8
(dp9
S'Malacostraca'
p10
(dp11
S'Decapoda'
p12
(dp13
S'Nephropidae'
p14
(dp15
VHomarus
p16
(lp17
Vamericanus
p18
asssssVChordata
p19
(dp20
V
(dp21
V
(dp22
ssVSarcopterygii
p23
(dp24
VLepidosireniformes
p25
(dp26
VLepidosirenidae
p27
(dp28
VLepidosiren
p29
(lp30
Vparadoxa
p31
asssS'Crossopterygii'
p32
(dp33
S'Panderichthyidae'
p34
(dp35
VTiktaalik
p36
(lp37
Vroseae
p38
assssVActinopterygii
p39
(dp40
V
(dp41
sVPercopsiformes
p42
(dp43
S'Percopsidae'
p44
(dp45
VPercopsis
p46
(lp47
Vomiscomaycus
p48
assVAmblyopsidae
p49
(dp50
VForbesichthys
p51
(lp52
Vagassizii
p53
asVChologaster
p54
(lp55
Vcornuta
p56
asVTyphlichthys
p57
(lp58
Vsubterraneus
p59
asssS'Lophiiformes'
p60
(dp61
S'Melanocetidae'
p62
(dp63
VMelanocetus
p64
(lp65
Vjohnsoni
p66
assVOgcocephalidae
p67
(dp68
VOgcocephalus
p69
(lp70
Vdarwini
p71
aVcubifrons
p72
asssVGobiesociformes
p73
(dp74
VGobiesocidae
p75
(dp76
VPherallodiscus
p77
(lp78
Vfunebris
p79
asVAcyrtops
p80
(lp81
Vberyllinus
p82
asVArcos
p83
(lp84
Vmacrophthalmus
p85
aVerythrops
p86
aVpoecilophthalmos
p87
aVnudus
p88
asVCochleoceps
p89
(lp90
Vviridis
p91
aVspatula
p92
aVbassensis
p93
asVAspasmichthys
p94
(lp95
Vciconiae
p96
asVTomicodon
p97
(lp98
Vcryptus
p99
aVrupestris
p100
aVzebra
p101
aVfasciatus
p102
asVTrachelochismus
p103
(lp104
Vmelobesia
p105
asVDerilissus
p106
(lp107
Valtifrons
p108
aVnanus
p109
asVDellichthys
p110
(lp111
Vmorelandi
p112
asVDiscotrema
p113
(lp114
Vcrinophilum
p115
asVParvicrepis
p116
(lp117
Vparvipinnis
p118
asVCreocele
p119
(lp120
Vcardinalis
p121
asVLepadichthys
p122
(lp123
Vlineatus
p124
aVfrenatus
p125
aVbolini
p126
asVGymnoscyphus
p127
(lp128
Vascitus
p129
asVAspasmogaster
p130
(lp131
Vcostata
p132
aVtasmaniensis
p133
aVliorhyncha
p134
asVAcyrtus
p135
(lp136
Vartius
p137
aVrubiginosus
p138
asVPosidonichthys
p139
(lp140
Vhutchinsi
p141
asVDiplecogaster
p142
(lp143
Vbimaculata
p144
asVAspasmodes
p145
(lp146
Vbriggsi
p147
asVGouania
p148
(lp149
Vwilldenowi
p150
asVGobiesox
p151
(lp152
Vnigripinnis
p153
aVstrumosus
p154
aVfulvus
p155
aVmultitentaculus
p156
aVpinniger
p157
aVmarmoratus
p158
asVAlabes
p159
(lp160
Vhoesei
p161
asVDiademichthys
p162
(lp163
Vlineatus
p164
asVRimicola
p165
(lp166
Vmuscarum
p167
asssVPerciformes
p168
(dp169
VTripterygiidae
p170
(dp171
VNotoclinops
p172
(lp173
Vsegmentatus
p174
asVEnneanectes
p175
(lp176
Vmacrops
p177
aVreticulatus
p178
aVcarminalis
p179
asVNorfolkia
p180
(lp181
Vbrachylepis
p182
asVHelcogramma
p183
(lp184
Vdecurrens 
p185
asVAxoclinus
p186
(lp187
Vstoreyae
p188
aVnigricaudus
p189
asVHelcogrammoides
p190
(lp191
Vchilensis
p192
asVEnneapterygius
p193
(lp194
Vetheostoma 
p195
asVCrocodilichthys
p196
(lp197
Vgracilis
p198
assVAmmodytidae
p199
(dp200
VAmmodytes
p201
(lp202
Vpersonatus
p203
assVSparidae
p204
(dp205
VLagodon
p206
(lp207
Vrhomboides
p208
assVCichlidae
p209
(dp210
VLabeotropheus
p211
(lp212
Vtrewavasae
p213
asVLabidochromis
p214
(lp215
Vcaeruleus
p216
asVLamprologus
p217
(lp218
Vtigripictilis
p219
assVGobiidae
p220
(dp221
VRisor
p222
(lp223
Vruber
p224
asVGobiopterus
p225
(lp226
Vchuno
p227
asVSicydium
p228
(lp229
Vplumieri
p230
asVGillichthys
p231
(lp232
Vmirabilis
p233
assVBlenniidae
p234
(dp235
VParablennius
p236
(lp237
Vyatabei
p238
asVXiphasia
p239
(lp240
Vmatsubarai
p241
asVAndamia
p242
(lp243
Vtetradactylus
p244
asVMeiacanthus
p245
(lp246
Vatrodorsalis
p247
aVnigrolineatus
p248
aVkamoharai
p249
asVAntennablennius
p250
(lp251
Vbifilum
p252
asVHirculops
p253
(lp254
Vcornifer
p255
asVEcsenius
p256
(lp257
Vnamiyei
p258
asVOmobranchus
p259
(lp260
Vpunctatus
p261
asVSalarias
p262
(lp263
Vfasciatus
p264
asVPlagiotremus
p265
(lp266
Vtapeinosoma
p267
aVrhinorhynchos
p268
asVHypleurochilus
p269
(lp270
Vpseudoaequipinnis
p271
aVspringeri
p272
asVPetroscirtes
p273
(lp274
Vmitratus
p275
asVHypsoblennius
p276
(lp277
Vbrevipinnis
p278
aVrobustus
p279
aVstriatus
p280
aVgilberti
p281
aVjenkinsi
p282
asVRhabdoblennius
p283
(lp284
Vnitidus
p285
asVLupinoblennius
p286
(lp287
Vvinctus
p288
asVAtrosalarias
p289
(lp290
Vfuscus
p291
asVAspidontus
p292
(lp293
Vtaeniatus
p294
assVChaenopsidae
p295
(dp296
VProtemblemaria
p297
(lp298
Vperla
p299
aVbicirrus
p300
asVAcanthemblemaria
p301
(lp302
Vhancocki
p303
aVexilispinus
p304
aVcrockeri
p305
aVmaria
p306
aVbalanorum
p307
aVrivasi
p308
aVchaplini
p309
asVCoralliozetus
p310
(lp311
Vcardonae
p312
asVNeoclinus
p313
(lp314
Vtoshimaensis
p315
aVstephensae
p316
aVlacunicola
p317
aVbryope
p318
aVuninotatus
p319
aVblanchardi
p320
asVHemiemblemaria
p321
(lp322
Vsimulus
p323
asVChaenopsis
p324
(lp325
Valepidota
p326
aVcoheni
p327
asVStathmonotus
p328
(lp329
Vsinuscalifornici
p330
asVMccoskerichthys
p331
(lp332
Vsandae
p333
asVEmblemariopsis
p334
(lp335
Vrandalli
p336
asVEkemblemaria
p337
(lp338
Vnigra
p339
asVEmblemaria
p340
(lp341
Vatlantica
p342
aVdiphyodontis
p343
aVpandionis
p344
aVwalkeri
p345
aVnivipes
p346
assVSerranidae
p347
(dp348
VMirolabrichthys
p349
(lp350
Vdispar
p351
asVEpinephelus
p352
(lp353
Vnigritus
p354
assVLabrisomidae
p355
(dp356
VLabrisomus
p357
(lp358
Vnuchipinnis
p359
asVParaclinus
p360
(lp361
Vwalkeri
p362
aVintegripinnis
p363
aValtivelis
p364
aVmonophthalmus
p365
aVsini
p366
asVMalacoctenus
p367
(lp368
Vboehlkei
p369
aVebisui
p370
aVhubbsi
p371
aVtriangulatus
p372
aVmargaritae
p373
aVzonogaster
p374
aVzonifer
p375
asVXenomedea
p376
(lp377
Vrhodopyga
p378
asVDialommus
p379
(lp380
Vfuscus
p381
asVExerpes
p382
(lp383
Vasper
p384
asVStarksia
p385
(lp386
Vspinipenis
p387
aVfulva
p388
assVAnarhichadidae
p389
(dp390
VAnarhichas
p391
(lp392
Vorientalis
p393
asVAnarrhichthys
p394
(lp395
Vocellatus
p396
assVZaproridae
p397
(dp398
VZaprora
p399
(lp400
Vsilenus
p401
assVGrammatidae
p402
(dp403
VGramma
p404
(lp405
Vloreto
p406
assVEmbiotocidae
p407
(dp408
VZalembius
p409
(lp410
Vrosaceus
p411
asVCymatogaster
p412
(lp413
Vaggregata
p414
asVEmbiotoca
p415
(lp416
Vjacksoni
p417
aVlateralis
p418
asVHysterocarpus
p419
(lp420
Vtraskii
p421
asVBrachyistius
p422
(lp423
Vfrenatus
p424
asVHyperprosopon
p425
(lp426
Vanale
p427
aVargenteum
p428
asVPhanerodon
p429
(lp430
Vfurcatus
p431
asVAmphistichus
p432
(lp433
Vkoelzi
p434
aVargenteus
p435
aVrhodoterus
p436
asVMicrometrus
p437
(lp438
Vminimus
p439
aVaurora
p440
asVRhacochilus
p441
(lp442
Vtoxotes
p443
aVvacca
p444
asVDitrema
p445
(lp446
Vtemminckii
p447
asVNeoditrema
p448
(lp449
Vransonnetii
p450
asVHypsurus
p451
(lp452
Vcaryi
p453
assVZoarcidae
p454
(dp455
VBothrocara
p456
(lp457
Vnyx
p458
aVbrunneum
p459
assVDactyloscopidae
p460
(dp461
VHeteristius
p462
(lp463
Vcinctus
p464
asVGillellus
p465
(lp466
Vsearcheri
p467
asVDactyloscopus
p468
(lp469
Vpectoralis
p470
asVPlatygillellus
p471
(lp472
Vrubrocinctus
p473
assVCryptacanthodidae
p474
(dp475
VCryptacanthodes
p476
(lp477
Vgiganteus
p478
assVTrichodontidae
p479
(dp480
VTrichodon
p481
(lp482
Vtrichodon
p483
assVBathymasteridae
p484
(dp485
VBathymaster
p486
(lp487
Vleurolepis
p488
assVClinidae
p489
(dp490
VHeteroclinus
p491
(lp492
Vwhiteleggii
p493
asVHeterostichus
p494
(lp495
Vrostratus
p496
asVCristiceps
p497
(lp498
Vaustralis
p499
asVClinus
p500
(lp501
Vcottoides
p502
asVClimacoporus
p503
(lp504
Vnavalis
p505
asVPavoclinus
p506
(lp507
Vgraminis
p508
asssVGymnotiformes
p509
(dp510
VSternopygidae
p511
(dp512
VSternopygus
p513
(lp514
Varenatus
p515
aVpejeraton
p516
asVArcholaemus
p517
(lp518
Vblax
p519
asVRhabdolichops
p520
(lp521
Vcaviceps
p522
aVeastwardi
p523
aVzareti
p524
aVelectrogrammus
p525
asVEigenmannia
p526
(lp527
Vmacrops
p528
aVvirescens
p529
assVApteronotidae
p530
(dp531
VApteronotus
p532
(lp533
Vmacrostomus
p534
asVCompsaraia
p535
(lp536
Vsamueli
p537
asVSternarchorhynchus
p538
(lp539
Vcramptoni
p540
asVMagosternarchus
p541
(lp542
Vraptor
p543
asssS'Amiiformes'
p544
(dp545
VAmiidae
p546
(dp547
VAmia
p548
(lp549
Vcalva
p550
asssVEsociformes
p551
(dp552
VEsocidae
p553
(dp554
VEsox
p555
(lp556
Vamericanus
p557
asssVGadiformes
p558
(dp559
VMerlucciidae
p560
(dp561
VMerluccius
p562
(lp563
Vsenegalensis
p564
assVMacrouridae
p565
(dp566
VAlbatrossia
p567
(lp568
Vpectoralis
p569
asVNezumia
p570
(lp571
Vliolepis
p572
asVCoryphaenoides
p573
(lp574
V
aVlongifilis
p575
aVfilifer
p576
aVcinereus
p577
aVacrolepis
p578
assVMelanonidae
p579
(dp580
VMelanonus
p581
(lp582
Vzugmayeri
p583
asssVClupeiformes
p584
(dp585
VEngraulidae
p586
(dp587
VAmazonsprattus
p588
(lp589
Vscintilla
p590
asVEngraulis
p591
(lp592
Vmordax
p593
aVjaponicus
p594
asVEncrasicholina
p595
(lp596
Vpurpurea
p597
aVpunctifer
p598
aVheteroloba
p599
asVThryssa
p600
(lp601
Vdussumieri
p602
aVsetirostris
p603
aVhamiltonii
p604
aVspinidens
p605
aVkammalensis
p606
aVbaelama
p607
asVSetipinna
p608
(lp609
Vtenuifilis
p610
aVtaty
p611
asVAnchoa
p612
(lp613
Vmitchilli
p614
aVhepsetus
p615
asVStolephorus
p616
(lp617
Vwaitei
p618
aVchinensis
p619
aVbrachycephalus
p620
aVindicus
p621
aVnelsoni
p622
assVPristigasteridae
p623
(dp624
VIlisha
p625
(lp626
Vmelastoma
p627
asVOpisthopterus
p628
(lp629
Vtardoore
p630
assVClupeidae
p631
(dp632
VAlosa
p633
(lp634
Vpseudoharengus
p635
aVaestivalis
p636
asVClupea
p637
(lp638
Vpallasii
p639
asVEscualosa
p640
(lp641
Vthoracata
p642
asVAmblygaster
p643
(lp644
V
aVsp.
p645
aVsirm
p646
asVHerklotsichthys
p647
(lp648
Vcastelnaui
p649
aVdispilonotus
p650
asVSardinella
p651
(lp652
Valbella
p653
asVNematalosa
p654
(lp655
Vcome
p656
aVnasus
p657
asVSardinops
p658
(lp659
Vsagax
p660
asVBrevoortia
p661
(lp662
Vtyrannus
p663
asVClupeichthys
p664
(lp665
Vaesarnensis
p666
asVDorosoma
p667
(lp668
Vcepedianum
p669
asVAnodontostoma
p670
(lp671
Vchacunda
p672
asVDussumieria
p673
(lp674
Vacuta
p675
asVOpisthonema
p676
(lp677
Vlibertate
p678
asssVScorpaeniformes
p679
(dp680
VAnoplopomatidae
p681
(dp682
VAnoplopoma
p683
(lp684
Vfimbria
p685
asVErilepis
p686
(lp687
Vzonifer
p688
assVAbyssocottidae
p689
(dp690
VAsprocottus
p691
(lp692
Vherzensteini
p693
asVAbyssocottus
p694
(lp695
Vkorotneffi
p696
assVRhamphocottidae
p697
(dp698
VRhamphocottus
p699
(lp700
Vrichardsonii
p701
assVPsychrolutidae
p702
(dp703
VEurymen
p704
(lp705
Vgyrinus
p706
asVPsychrolutes
p707
(lp708
Vparadoxus
p709
aVphrictus
p710
aVsigalutes
p711
asVDasycottus
p712
(lp713
Vsetiger
p714
asVMalacocottus
p715
(lp716
Vzonurus
p717
aVkincaidi
p718
assVCottidae
p719
(dp720
VOligocottus
p721
(lp722
Vmaculosus
p723
aVsnyderi
p724
asVEnophrys
p725
(lp726
Vtaurina
p727
aVlucasi
p728
aVbison
p729
aVdiceraus
p730
asVAtopocottus
p731
(lp732
Vtribranchius
p733
asVStlengis
p734
(lp735
Vdistoechus
p736
aVosensis
p737
asVFurcina
p738
(lp739
Vosimae
p740
aVishikawae
p741
asVOcynectes
p742
(lp743
Vmodestus
p744
asVStelgistrum
p745
(lp746
Vstejnegeri
p747
aVberingianum
p748
asVTriglops
p749
(lp750
Vdorothy
p751
aVforficatus
p752
aVjordani
p753
aVmacellus
p754
aVscepticus
p755
aVmurrayi
p756
aVmetopias
p757
aVxenostethus
p758
aVpingelii
p759
asVCottocomephorus
p760
(lp761
Vgrewingkii
p762
asVPorocottus
p763
(lp764
Vallisi
p765
aVcamtschaticus
p766
asVRastrinus
p767
(lp768
Vscutiger
p769
asVVellitor
p770
(lp771
Vminutus
p772
aVcentropomus
p773
asVPseudoblennius
p774
(lp775
Vmarmoratus
p776
asVChitonotus
p777
(lp778
Vpugetensis
p779
asVZesticelus
p780
(lp781
Vprofundorum
p782
asVCottiusculus
p783
(lp784
Vgonez
p785
asVCottus
p786
(lp787
Vasper
p788
aVchatahoochee
p789
aVhypselurus
p790
aVcognatus
p791
aVgobio
p792
aVgreenei
p793
aVricei
p794
aVhangiongensis
p795
aVpoecilopus
p796
aVimmaculatus
p797
aVpitensis
p798
aVspinulosus
p799
aVextensus
p800
aVklamathensis
p801
aVperplexus
p802
aVtenuis
p803
aVbaileyi
p804
aVcarolinae
p805
aVamblystomopsis
p806
aVgulosus
p807
aVasperrimus
p808
aVbairdii
p809
aVhubbsi
p810
aVechinatus
p811
aVbeldingii
p812
aVrhotheus
p813
aValeuticus
p814
aVprinceps
p815
aVpollux
p816
aVmarginatus
p817
aVleiopomus
p818
aVbendirei
p819
aVconfusus
p820
aVspecus
p821
asVPhasmatocottus
p822
(lp823
Vctenopterygius
p824
asVBolinia
p825
(lp826
Veuryptera
p827
asVLeiocottus
p828
(lp829
Vhirundo
p830
asVAscelichthys
p831
(lp832
Vrhodorus
p833
asVScorpaenichthys
p834
(lp835
Vmarmoratus
p836
asVCottunculus
p837
(lp838
Vmicrops
p839
asVIcelus
p840
(lp841
Vbicornis
p842
aVspatula
p843
aVstenosomus
p844
aVochotensis
p845
aVspiniger
p846
aVuncinalis
p847
aVcanaliculatus
p848
aVeuryops
p849
asVParicelinus
p850
(lp851
Vhopliticus
p852
asVBero
p853
(lp854
Velegans
p855
asVParacottus
p856
(lp857
Vknerii
p858
asVAsemichthys
p859
(lp860
Vtaylori
p861
asVTrichocottus
p862
(lp863
Vbrashnikovi
p864
asVRadulinus
p865
(lp866
Vvinculus
p867
aVboleoides
p868
aVasprellus
p869
asVHemilepidotus
p870
(lp871
Vhemilepidotus
p872
aVjordani
p873
aVpapilio
p874
aVzapus
p875
aVspinosus
p876
asVRadulinopsis
p877
(lp878
Vderjavini
p879
asVMyoxocephalus
p880
(lp881
Vpolyacanthocephalus
p882
aVniger
p883
aVscorpius
p884
aVscorpioides
p885
aVquadricornis
p886
aVstelleri
p887
aVjaok
p888
aVthompsonii
p889
asVRicuzenius
p890
(lp891
Vnudithorax
p892
aVpinetorum
p893
asVThyriscus
p894
(lp895
Vanoplus
p896
asVSigmistes
p897
(lp898
Vsmithi
p899
asVSynchirus
p900
(lp901
Vgilli
p902
asVJordania
p903
(lp904
Vzonope
p905
asVArtedius
p906
(lp907
Vfenestralis
p908
aVharringtoni
p909
aVlateralis
p910
aVnotospilotus
p911
asVArchistes
p912
(lp913
Vbiseriatus
p914
asVGymnocanthus
p915
(lp916
Vtricuspis
p917
aVpistilliger
p918
aVintermedius
p919
aVgaleatus
p920
aVdetrisus
p921
asVRuscarius
p922
(lp923
Vmeanyi
p924
asVMicrocottus
p925
(lp926
Vsellaris
p927
asVLeptocottus
p928
(lp929
Varmatus
p930
asVPhallocottus
p931
(lp932
Vobtusus
p933
asVMegalocottus
p934
(lp935
Vplatycephalus
p936
asVArtediellus
p937
(lp938
Vcamchaticus
p939
aVpacificus
p940
aVmiacanthus
p941
aVfuscimentus
p942
aVneyelovi
p943
aVochotensis
p944
aVdydymovi
p945
aVgomojunovi
p946
aVuncinatus
p947
aVscaber
p948
asVIcelinus
p949
(lp950
Vpietschi
p951
aVborealis
p952
aVcavifrons
p953
aVquadriseriatus
p954
aVfilamentosus
p955
aVoculatus
p956
aVtenuis
p957
aVburchami
p958
assVLiparidae
p959
(dp960
VCrystallias
p961
(lp962
Vmatsushimae
p963
asVRhinoliparis
p964
(lp965
Vbarbulifer
p966
aVattenuatus
p967
asVAcantholiparis
p968
(lp969
Vopercularis
p970
asVCrystallichthys
p971
(lp972
Vcyclospilus
p973
asVCareproctus
p974
(lp975
Vfaunus
p976
aVstaufferi
p977
aVovigerus
p978
aVrastrinus
p979
aVcypselurus
p980
aVostentum
p981
aVsimus
p982
aVabbreviatus
p983
aVcurilanus
p984
aVectenes
p985
aVfurcellus
p986
aVgilberti
p987
aVbowersianus
p988
aVcanus
p989
aVlycopersicus
p990
aVzachirus
p991
aVseraphimae
p992
aVnelsoni
p993
aVcomus
p994
aVacanthodes
p995
aVphasma
p996
aVmelanurus
p997
aVcolletti
p998
aVkamikawai
p999
asVParaliparis
p1000
(lp1001
Vbullacephalus
p1002
aVpenicillus
p1003
aVulochir
p1004
aVpaucidens
p1005
aVgrandis
p1006
aVdactylosus
p1007
aVrosaceus
p1008
aVcephalus
p1009
aVholomelas
p1010
aVmento
p1011
aVpectoralis
p1012
aValbeolus
p1013
aVadustus
p1014
asVLiparis
p1015
(lp1016
Vflorae
p1017
aVdennyi
p1018
aVrutteri
p1019
aVbristolensis
p1020
aVtunicatus
p1021
aVfabricii
p1022
aVmarmoratus
p1023
aVtessellatus
p1024
aVcyclopus
p1025
aVfucensis
p1026
aVmiostomus
p1027
aVmucosus
p1028
aVpulchellus
p1029
aVgibbus
p1030
asVLopholiparis
p1031
(lp1032
Vflerxi
p1033
asVNectoliparis
p1034
(lp1035
Vpelagicus
p1036
asVElassodiscus
p1037
(lp1038
Vtremebundus
p1039
aVcaudatus
p1040
asVPrognatholiparis
p1041
(lp1042
Vptychomandibularis
p1043
asVGyrinichthys
p1044
(lp1045
Vminytremus
p1046
asVPolypera
p1047
(lp1048
Vsimushirae
p1049
aVgreeni
p1050
asVAllocareproctus
p1051
(lp1052
Vjordani
p1053
aVtanix
p1054
aVunangas
p1055
aVungak
p1056
aVkallaion
p1057
asVPalmoliparis
p1058
(lp1059
Vbeckeri
p1060
asVLipariscus
p1061
(lp1062
Vnanus
p1063
aVcallyodon
p1064
aVcurilensis
p1065
aVbrashnikovi
p1066
assVCyclopteridae
p1067
(dp1068
VEumicrotremus
p1069
(lp1070
Vphrynoides
p1071
aVderjugini
p1072
aVandriashevi
p1073
aVspinosus
p1074
aVorbis
p1075
asVAptocyclus
p1076
(lp1077
Vventricosus
p1078
assVHemitripteridae
p1079
(dp1080
VBlepsias
p1081
(lp1082
Vcirrhosus
p1083
aVbilobus
p1084
asVHemitripterus
p1085
(lp1086
Vamericanus
p1087
aVbolini
p1088
asVNautichthys
p1089
(lp1090
Voculofasciatus
p1091
aVpribilovius
p1092
assVComephoridae
p1093
(dp1094
VComephorus
p1095
(lp1096
Vdybowskii
p1097
assVAgonidae
p1098
(dp1099
VBathyagonus
p1100
(lp1101
Vpentacanthus
p1102
aVnigripinnis
p1103
asVAgonomalus
p1104
(lp1105
Vmozinoi
p1106
aVproboscidalis
p1107
asVBothragonus
p1108
(lp1109
Voccidentalis
p1110
aVswani
p1111
asVAspidophoroides
p1112
(lp1113
Vmonopterygius
p1114
aVolrikii
p1115
asVStellerina
p1116
(lp1117
Vxyosterna
p1118
asVPodothecus
p1119
(lp1120
Vveternus
p1121
aVaccipenserinus
p1122
asVAgonopsis
p1123
(lp1124
Vchiloensis
p1125
aVvulsa
p1126
aVsterletus
p1127
asVHypsagonus
p1128
(lp1129
Vquadricornis
p1130
aVcorniger
p1131
asVSarritor
p1132
(lp1133
Vleptorhynchus
p1134
aVfrenatus
p1135
asVXeneretmus
p1136
(lp1137
Vleiops
p1138
aVtriacanthus
p1139
aVlatifrons
p1140
aVritteri
p1141
asVOdontopyxis
p1142
(lp1143
Vtrispinosa
p1144
asVLeptagonus
p1145
(lp1146
Vdecagonus
p1147
asVAgonus
p1148
(lp1149
Vcataphractus
p1150
asVBrachyopsis
p1151
(lp1152
Vsegaliensis
p1153
asVPercis
p1154
(lp1155
Vjaponica
p1156
asVAnoplagonus
p1157
(lp1158
Vinermis
p1159
asVOccella
p1160
(lp1161
Vdodecaedron
p1162
assVTriglidae
p1163
(dp1164
VPrionotus
p1165
(lp1166
Vlongispinosus
p1167
aVmartis
p1168
aVstearnsi
p1169
aVophryas
p1170
asVBellator
p1171
(lp1172
Vmilitaris
p1173
assVNormanichthyidae
p1174
(dp1175
VNormanichthys
p1176
(lp1177
Vcrockeri
p1178
assVScorpaenidae
p1179
(dp1180
VSebastolobus
p1181
(lp1182
Valascanus
p1183
assVPlatycephalidae
p1184
(dp1185
VGrammoplites
p1186
(lp1187
Vscaber
p1188
asVElates
p1189
(lp1190
Vransonnettii
p1191
assVHexagrammidae
p1192
(dp1193
VOxylebius
p1194
(lp1195
Vpictus
p1196
asVPleurogrammus
p1197
(lp1198
Vmonopterygius
p1199
asVHexagrammos
p1200
(lp1201
Vdecagrammus
p1202
aVstelleri
p1203
aVoctogrammus
p1204
aVlagocephalus
p1205
asVZaniolepis
p1206
(lp1207
Vlatipinnis
p1208
aVfrenata
p1209
asVOphiodon
p1210
(lp1211
Velongatus
p1212
asssVElopiformes
p1213
(dp1214
VElopidae
p1215
(dp1216
VElops
p1217
(lp1218
Vsaurus
p1219
asssVAnguilliformes
p1220
(dp1221
VCongridae
p1222
(dp1223
VHeteroconger
p1224
(lp1225
Vlongissimus
p1226
assVAnguillidae
p1227
(dp1228
VAnguilla
p1229
(lp1230
Vrostrata
p1231
assS'Muraenidae'
p1232
(dp1233
VGymnothorax
p1234
(lp1235
Vchilospilus
p1236
asssS'Hiodontiformes'
p1237
(dp1238
S'Hiodontidae'
p1239
(dp1240
VHiodon
p1241
(lp1242
Valosoides
p1243
asssVAphredoderiformes
p1244
(dp1245
sVSalmoniformes
p1246
(dp1247
VSalmonidae
p1248
(dp1249
VOncorhynchus
p1250
(lp1251
Vmykiss
p1252
asssVSynbranchiformes
p1253
(dp1254
VMastacembelidae
p1255
(dp1256
VMastacembelus
p1257
(lp1258
Vsimbi
p1259
aVcrassus
p1260
aVaviceps
p1261
asssVOsteoglossiformes
p1262
(dp1263
VMormyridae
p1264
(dp1265
VMormyrus
p1266
(lp1267
Vrume
p1268
asVBrevimyrus
p1269
(lp1270
Vniger
p1271
assVOsteoglossidae
p1272
(dp1273
VOsteoglossum
p1274
(lp1275
Vbicirrhosum
p1276
assVNotopteridae
p1277
(dp1278
VNotopterus
p1279
(lp1280
Vnotopterus
p1281
asssVAulopiformes
p1282
(dp1283
VIpnopidae
p1284
(dp1285
VBathypterois
p1286
(lp1287
Vquadrifilis
p1288
asssVBatrachoidiformes
p1289
(dp1290
VBatrachoididae
p1291
(dp1292
VAphos
p1293
(lp1294
Vporosus
p1295
asVPerulibatrachus
p1296
(lp1297
Vrossignoli
p1298
asVVladichthys
p1299
(lp1300
Vgloverensis
p1301
asVThalassophryne
p1302
(lp1303
Vamazonica
p1304
aVnattereri
p1305
aVmaculosa
p1306
asVDaector
p1307
(lp1308
Vreticulata
p1309
aVdowi
p1310
asVBarchatus
p1311
(lp1312
Vindicus
p1313
aVcirrhosus
p1314
asVTriathalassothia
p1315
(lp1316
Vargentina
p1317
asVChatrabus
p1318
(lp1319
Vmelanurus
p1320
asVBatrachomoeus
p1321
(lp1322
Vdubius
p1323
aVtrispinosus
p1324
asVAmphichthys
p1325
(lp1326
Vcryptocentrus
p1327
asVAllenbatrachus
p1328
(lp1329
Vreticulatus
p1330
asVColletteichthys
p1331
(lp1332
Vdussumieri
p1333
aVoccidentalis
p1334
asVPorichthys
p1335
(lp1336
Vbathoiketes
p1337
aVgreenei
p1338
aVpauciradiatus
p1339
aVporosissimus
p1340
aVmargaritatus
p1341
aVplectrodon
p1342
asVHalophryne
p1343
(lp1344
Vocellatus
p1345
aVdiemensis
p1346
asVBifax
p1347
(lp1348
Vlacinia
p1349
asVOpsanus
p1350
(lp1351
Vpardus
p1352
aVphobetron
p1353
aVbeta
p1354
asVSanopus
p1355
(lp1356
Vreticulatus
p1357
aVastrifer
p1358
aVgreenfieldorum
p1359
asssVCypriniformes
p1360
(dp1361
VNemacheilidae
p1362
(dp1363
VPhysoschistura
p1364
(lp1365
Vpseudobrunneana
p1366
asVNeonoemacheilus
p1367
(lp1368
Vlabeosus
p1369
asVTraccatichthys
p1370
(lp1371
Vpulcher
p1372
asVSchistura
p1373
(lp1374
Vaurantiaca
p1375
asVTuberoschistura
p1376
(lp1377
Vbaenzigeri
p1378
asVNemacheilus
p1379
(lp1380
Vpallidus
p1381
aVmasyae
p1382
assVCatostomidae
p1383
(dp1384
VMinytrema
p1385
(lp1386
Vmelanops
p1387
asVMoxostoma
p1388
(lp1389
Vpoecilurum
p1390
asVCarpiodes
p1391
(lp1392
Vcarpio
p1393
aVcyprinus
p1394
assVSerpenticobitidae
p1395
(dp1396
VSerpenticobitis
p1397
(lp1398
Vzonata
p1399
assVCobitidae
p1400
(dp1401
VSectoria
p1402
(lp1403
Vatriceps
p1404
asVAcantopsis
p1405
(lp1406
Vsp
p1407
asVSabanejewia
p1408
(lp1409
Vlarvata
p1410
assVBotiidae
p1411
(dp1412
VChromobotia
p1413
(lp1414
Vmacracanthus
p1415
assVBarbuccidae
p1416
(dp1417
VBarbucca
p1418
(lp1419
Vdiabolica
p1420
assVPsilorhynchidae
p1421
(dp1422
VPsilorhynchus
p1423
(lp1424
Vsucatio
p1425
assVCyprinidae
p1426
(dp1427
VMeda
p1428
(lp1429
Vfulgida
p1430
asVCosmochilus
p1431
(lp1432
Vharmandi
p1433
asVBarbus
p1434
(lp1435
Vaspilus
p1436
aVditinensis
p1437
aVanema
p1438
aVdialonensis
p1439
aVbigornei
p1440
aVeburneensis
p1441
aVfoutensis
p1442
aVcallipterus
p1443
aVmagdalenae
p1444
aVapleurogramma
p1445
aVaspius
p1446
aVcamptacanthus
p1447
aVsp.
p1448
aVmacrops
p1449
aVperince
p1450
aVsublineatus
p1451
aVtiekoroi
p1452
aVmawambiensis
p1453
aVfasciolatus
p1454
aVtrispilos
p1455
aVbifrenatus
p1456
aVtrimaculatus
p1457
aVmultilineatus
p1458
aVkerstenii
p1459
aVholotaenia
p1460
aVneumayeri
p1461
aVpoechii
p1462
aVmartorelli
p1463
aVablabes
p1464
aVneefi
p1465
aVatromaculatus
p1466
aVpunctitaeniatus
p1467
aVlineomaculatus
p1468
aVbrevidorsalis
p1469
aVguineensis
p1470
aVpaludinosus
p1471
aVeutaenia
p1472
aVatkinsoni
p1473
aVradiatus
p1474
aVwaageni
p1475
aVguildi
p1476
aVviviparus
p1477
aVvittatus
p1478
aVraimbaulti
p1479
aVoligolepis
p1480
aVniokoloensis
p1481
aVasper
p1482
aVtrispilopleura
p1483
aVafrovernayi
p1484
aVtrispilomimus
p1485
aVguirali
p1486
aVafer
p1487
aVbarotseensis
p1488
aVmacinensis
p1489
aVcastrasibutum
p1490
aVchlorotaenia
p1491
aVjae
p1492
aVhuguenyi
p1493
aVpobeguini
p1494
aVanoplus
p1495
aVunitaeniatus
p1496
aVarcislongae
p1497
aVspurrelli
p1498
aVinaequalis
p1499
aVnigeriensis
p1500
aVcf. macrops
p1501
aVcallensis
p1502
aVbynni
p1503
aVafrohamiltoni
p1504
aVzanzibaricus
p1505
aValtus
p1506
aVbarbus
p1507
aVconcharius
p1508
aVmiolepis
p1509
aVgurneyi
p1510
aVhumilis
p1511
aVnigrofasciatus
p1512
aVwerneri
p1513
aVtitius
p1514
aVluteus
p1515
aVaeneus
p1516
aVburchelli
p1517
aVlujae
p1518
aVtrevelyani
p1519
aVmacrotaenia
p1520
aVstigmatopygus
p1521
aVeveretti
p1522
aVspp.
p1523
aVmeridionalis
p1524
aVkessleri
p1525
aVlaticeps
p1526
aVsp. 1
p1527
aVinnocens
p1528
aVcyclolepis
p1529
aVnatalensis
p1530
aVoxyrhynchus
p1531
aVmattozi
p1532
asVNeolissochilus
p1533
(lp1534
Vsoroides
p1535
asVExoglossum
p1536
(lp1537
Vlaurae
p1538
aVmaxillingua
p1539
asVLabeo
p1540
(lp1541
Vlongipinnis
p1542
aVlineatus
p1543
aVnasus
p1544
aVparvus
p1545
aVlukulae
p1546
asVGila
p1547
(lp1548
Vcoerulea 
p1549
asVPseudobarbus
p1550
(lp1551
Vafer
p1552
aVphlegethon
p1553
aVasper
p1554
asVSemotilus
p1555
(lp1556
Vatromaculatus
p1557
aVcorporalis
p1558
aVthoreauianus
p1559
asVClypeobarbus
p1560
(lp1561
Vpleuropholis
p1562
aVhypsolepis
p1563
aVcongicus
p1564
asVChrosomus
p1565
(lp1566
Verythrogaster
p1567
aVeos
p1568
aVoreas
p1569
aVsaylori
p1570
asVErimystax
p1571
(lp1572
Vharryi
p1573
aVinsignis
p1574
aVdissimilis
p1575
asVHypophthalmichthys
p1576
(lp1577
Vnobilis
p1578
asVTampichthys
p1579
(lp1580
Vipni
p1581
asVCampostoma
p1582
(lp1583
Vpullum
p1584
aVanomalum
p1585
aVoligolepis
p1586
aVspadiceum
p1587
aVornatum
p1588
aVpauciradii
p1589
asVSnyderichthys
p1590
(lp1591
Vcopei
p1592
asVCouesius
p1593
(lp1594
Vplumbeus
p1595
asVMylocheilus
p1596
(lp1597
Vcaurinus
p1598
asVPlatygobio
p1599
(lp1600
Vgracilis
p1601
asVDionda
p1602
(lp1603
Vdiaboli
p1604
aVmelanops
p1605
aVepiscopa
p1606
aVserena
p1607
aVargentosa
p1608
aVnigrotaeniata
p1609
asVMargariscus
p1610
(lp1611
Vmargarita
p1612
asVRichardsonius
p1613
(lp1614
Vegregius
p1615
asVNocomis
p1616
(lp1617
Vasper
p1618
aVraneyi
p1619
aVbiguttatus
p1620
aVleptocephalus
p1621
aVmicropogon
p1622
aVeffusus
p1623
asVMylopharodon
p1624
(lp1625
Vconocephalus
p1626
asVRhinichthys
p1627
(lp1628
Vcataractae
p1629
aVevermanni
p1630
asVYuriria
p1631
(lp1632
Valta
p1633
asVRaiamas
p1634
(lp1635
Vsenegalensis
p1636
asVPogonichthys
p1637
(lp1638
Vciscoides
p1639
asVAcrocheilus
p1640
(lp1641
Valutaceus
p1642
asVLepidomeda
p1643
(lp1644
Valbivallis
p1645
aVmollispinis
p1646
asVCyprinella
p1647
(lp1648
Vlepida
p1649
aVlutrensis
p1650
aVcamura
p1651
aVgalactura
p1652
aVspiloptera
p1653
aVcallistia
p1654
aVxaenurus
p1655
aVvenusta
p1656
aVleedsi
p1657
aVwhipplei
p1658
aVnivea
p1659
aVformosa
p1660
aVmonacha
p1661
aVproserpina
p1662
aVanalostana
p1663
aVlabrosa
p1664
aVvenusta cercostigma
p1665
aVtrichroistia
p1666
asVGarra
p1667
(lp1668
Vfuliginosa
p1669
asVCandidia
p1670
(lp1671
Vbarbata
p1672
asVLuxilus
p1673
(lp1674
Vchrysocephalus
p1675
aVcoccogenis
p1676
aVcerasinus
p1677
aVcardinalis
p1678
aVzonatus
p1679
aValbeolus
p1680
aVcornutus
p1681
aVpilsbryi
p1682
asVPhoxinus
p1683
(lp1684
Vsemotilus
p1685
asVPhenacobius
p1686
(lp1687
Vmirabilis
p1688
aVcatostomus
p1689
asVLavinia
p1690
(lp1691
Vexilicauda
p1692
asVHybopsis
p1693
(lp1694
Vlineapunctata
p1695
aVwinchelli
p1696
asVAztecula
p1697
(lp1698
Vsallaei
p1699
asVMacrhybopsis
p1700
(lp1701
Vstoreriana
p1702
aVaustralis
p1703
asVNotropis
p1704
(lp1705
VNotropis 
p1706
aVrubricroceus 
p1707
aVbuccula 
p1708
aVhypsilepis
p1709
asVLythrurus
p1710
(lp1711
Vfasciolaris
p1712
aVardens
p1713
aVbellus
p1714
aVfumeus
p1715
aVmatutinus
p1716
asVCodoma
p1717
(lp1718
Vornata
p1719
asVPuntius
p1720
(lp1721
Vterio
p1722
asVRelictus
p1723
(lp1724
Vsolitarius
p1725
asVMicrodevario
p1726
(lp1727
Vkubotai
p1728
asVClinostomus
p1729
(lp1730
Velongatus
p1731
asVOsteochilus
p1732
(lp1733
Vmelanopleurus
p1734
asVPtychocheilus
p1735
(lp1736
Vumpquae
p1737
aVgrandis
p1738
asVPimephales
p1739
(lp1740
Vvigilax
p1741
aVnotatus
p1742
aVtenellus
p1743
aVpromelas
p1744
asVHybognathus
p1745
(lp1746
Vhayi
p1747
aVplacitus
p1748
aVhankinsoni
p1749
aVregius
p1750
aVargyritis
p1751
asVAlgansea
p1752
(lp1753
Vlacustris
p1754
aVtincella
p1755
aVrubescens
p1756
aVaphanea
p1757
aVmonticola
p1758
asVEremichthys
p1759
(lp1760
Vacros
p1761
asVHenicorhynchus
p1762
(lp1763
Vlobatus
p1764
asVLabeobarbus
p1765
(lp1766
Vmawambiensis
p1767
aVhabereri
p1768
aVwurtzi
p1769
aVpetitjeani
p1770
aVsacratus
p1771
aVcaudovittatus
p1772
aVbatesii
p1773
aVpolylepis
p1774
aVmarequensis
p1775
assVBalitoridae
p1776
(dp1777
VBalitora
p1778
(lp1779
Vbrucei
p1780
aVburmanica
p1781
asVHomalopteroides
p1782
(lp1783
Vnebulosus
p1784
aVsmithi
p1785
aVrupicola
p1786
aVweberi
p1787
aVavii
p1788
aVwassinkii
p1789
asVSinogastromyzon
p1790
(lp1791
Vpuliensis
p1792
asVBeaufortia
p1793
(lp1794
Vkweichowensis
p1795
asVBalitoropsis
p1796
(lp1797
Vophiolepis
p1798
aVzollingeri
p1799
asVPseudohomaloptera
p1800
(lp1801
Vsexmaculata
p1802
asVHomalopterula
p1803
(lp1804
Vripleyi
p1805
aVgymnogaster
p1806
asVSewellia
p1807
(lp1808
Velongata
p1809
asVBarbatula
p1810
(lp1811
Vbarbatula
p1812
asVNeohomaloptera
p1813
(lp1814
Vjohorensis
p1815
aV johorensis
p1816
asVFormosania
p1817
(lp1818
Vlacustre
p1819
asVYaoshania
p1820
(lp1821
Vpachychilus
p1822
asVHemimyzon
p1823
(lp1824
Vformosanus
p1825
asVGastromyzon
p1826
(lp1827
Vborneensis
p1828
asssVSiluriformes
p1829
(dp1830
VAuchenipteridae
p1831
(dp1832
VTrachycorystes
p1833
(lp1834
Vporosus
p1835
assS'Clariidae'
p1836
(dp1837
VClarias
p1838
(lp1839
Vbatrachus
p1840
assVIctaluridae
p1841
(dp1842
VAmeiurus
p1843
(lp1844
Vmelas
p1845
asVTrogloglanis
p1846
(lp1847
Vpattersoni
p1848
asVSatan
p1849
(lp1850
Veurystomus
p1851
asVPylodictis
p1852
(lp1853
Volivaris
p1854
asVNoturus
p1855
(lp1856
Vnocturnus
p1857
aVflavus
p1858
aVphaeus
p1859
asVIctalurus
p1860
(lp1861
Vpunctatus
p1862
assVTrichomycteridae
p1863
(dp1864
VTrichomycterus
p1865
(lp1866
V
aVareolatus
p1867
aVguianense
p1868
assS'Helogeneidae'
p1869
(dp1870
VHelogenes
p1871
(lp1872
Vmarmoratus
p1873
assVBagridae
p1874
(dp1875
VMystus
p1876
(lp1877
Varmatus
p1878
assVCallichthyidae
p1879
(dp1880
VCorydoras
p1881
(lp1882
Vsp.
p1883
assVPimelodidae
p1884
(dp1885
VPimelodus
p1886
(lp1887
Vblochii
p1888
assVAriidae
p1889
(dp1890
VBagre
p1891
(lp1892
Vmarinus
p1893
assVSisoridae
p1894
(dp1895
VBagarius
p1896
(lp1897
Vbagarius
p1898
asVMyersglanis
p1899
(lp1900
Vblythii
p1901
asVPseudolaguvia
p1902
(lp1903
Vkapuri
p1904
assVAspredinidae
p1905
(dp1906
VBunocephalus
p1907
(lp1908
Vcoracoideus
p1909
assVHeptapteridae
p1910
(dp1911
VRhamdia
p1912
(lp1913
Vquelen
p1914
assVHeteropneustidae
p1915
(dp1916
VHeteropneustes
p1917
(lp1918
Vfossilis
p1919
asssVOsmeriformes
p1920
(dp1921
VOsmeridae
p1922
(dp1923
VHypomesus
p1924
(lp1925
Vpretiosus
p1926
aVnipponensis
p1927
asssVStomiiformes
p1928
(dp1929
VStomiidae
p1930
(dp1931
VStomias
p1932
(lp1933
Vatriventer
p1934
asVEustomias
p1935
(lp1936
Vbifilis
p1937
assVSternoptychidae
p1938
(dp1939
VSternoptyx
p1940
(lp1941
Vobscura
p1942
aVdiaphana
p1943
aVpseudobscura
p1944
asVPolyipnus
p1945
(lp1946
Vindicus
p1947
asVArgyropelecus
p1948
(lp1949
Vlychnus
p1950
aVolfersii
p1951
aVsladeni
p1952
aVaffinis
p1953
assVGonostomatidae
p1954
(dp1955
VGonostoma
p1956
(lp1957
Velongatum
p1958
assS'Chauliodontidae'
p1959
(dp1960
VChauliodus
p1961
(lp1962
Vsloani
p1963
asssVGasterosteiformes
p1964
(dp1965
VSyngnathidae
p1966
(dp1967
VHippocampus
p1968
(lp1969
Vbargibanti
p1970
asssVPolypteriformes
p1971
(dp1972
VPolypteridae
p1973
(dp1974
VPolypterus
p1975
(lp1976
Vsenegalus
p1977
asssVCyprinodontiformes
p1978
(dp1979
VPoeciliidae
p1980
(dp1981
VPoecilia
p1982
(lp1983
Vreticulata
p1984
asssVMugiliformes
p1985
(dp1986
VMugilidae
p1987
(dp1988
VMugil
p1989
(lp1990
Vcephalus
p1991
asssVPleuronectiformes
p1992
(dp1993
VAchiridae
p1994
(dp1995
VHypoclinemus
p1996
(lp1997
Vmentalis
p1998
asVTrinectes
p1999
(lp2000
Vmaculatus
p2001
aVfimbriatus
p2002
aVfonsecensis
p2003
aVfluviatilis
p2004
asVAchirus
p2005
(lp2006
Vscutum
p2007
aVlineatus
p2008
asVGymnachirus
p2009
(lp2010
Vmelas
p2011
assVPleuronectidae
p2012
(dp2013
VParophrys
p2014
(lp2015
Vvetulus
p2016
asssVLepisosteiformes
p2017
(dp2018
VLepisosteidae
p2019
(dp2020
VLepisosteus
p2021
(lp2022
Vplatyrhincus
p2023
aVoculatus
p2024
asssVAtheriniformes
p2025
(dp2026
VAtherinopsidae
p2027
(dp2028
VLabidesthes
p2029
(lp2030
Vsicculus
p2031
aVvanhyningi
p2032
asVMenidia
p2033
(lp2034
Vberyllina
p2035
asssVPolymixiiformes
p2036
(dp2037
VPolymixiidae
p2038
(dp2039
VPolymixia
p2040
(lp2041
Vlowei
p2042
asssVAngulliformes
p2043
(dp2044
VOphichthidae
p2045
(dp2046
VOphichthus
p2047
(lp2048
Vrex
p2049
asVApterichtus
p2050
(lp2051
Vkendalli
p2052
assVNettastomatidae
p2053
(dp2054
VSaurenchelys
p2055
(lp2056
Vcognita
p2057
asssVTetraodontiformes
p2058
(dp2059
VDiodontidae
p2060
(dp2061
VDiodon
p2062
(lp2063
Vhystrix
p2064
assVOstraiontidae
p2065
(dp2066
VAcanthostracion
p2067
(lp2068
Vquadricornis
p2069
assVTetraodontidae
p2070
(dp2071
VLagocephalus
p2072
(lp2073
Vlaevigatus
p2074
aVlagocephalus
p2075
aVsceleratus
p2076
aVinermis
p2077
aVlunaris
p2078
aVguentheri
p2079
asVTakifugu
p2080
(lp2081
Voblongus
p2082
asVCanthigaster
p2083
(lp2084
Vfigueiredoi
p2085
aVrostrata
p2086
aVsolandri
p2087
aVpunctatissima
p2088
aVcoronata
p2089
aVvalentini
p2090
aVjactator
p2091
aVbennetti
p2092
aVamboinensis
p2093
aVsmithae
p2094
aVcompressa
p2095
aVpapua
p2096
asVPelagocephalus
p2097
(lp2098
Vmarki
p2099
asVTetraodon
p2100
(lp2101
Vfluviatilis
p2102
aVmiurus
p2103
aVerythrotaenia
p2104
aVpustulatus
p2105
aVlineatus
p2106
asVTylerius
p2107
(lp2108
Vspinosissimus
p2109
asVCarinotetraodon
p2110
(lp2111
Vlorteti
p2112
asVArothron
p2113
(lp2114
Vmanilensis
p2115
aVhispidus
p2116
aVnigropunctatus
p2117
aVmeleagris
p2118
aVimmaculatus
p2119
aVdiadematus
p2120
aVmappa
p2121
asVLeiodon
p2122
(lp2123
Vcutcutia
p2124
asVAuriglobus
p2125
(lp2126
Vsilus
p2127
aVmodestus
p2128
asVSphoeroides
p2129
(lp2130
Vlobatus
p2131
aVtestudineus
p2132
aVmaculatus
p2133
aVpachygaster
p2134
aVparvus
p2135
aVnephelus
p2136
aVspengleri
p2137
aVdorsalis
p2138
aVlispus
p2139
asVColomesus
p2140
(lp2141
Vpsittacus
p2142
aVtocantinensis
p2143
asVPao
p2144
(lp2145
Vleiurus
p2146
aVcambodgiensis
p2147
aVsuvattii
p2148
assVBalitoridae:balitorinae
p2149
(dp2150
VHomaloptera
p2151
(lp2152
Vrupicola
p2153
aVmontana
p2154
aVsexmaculata
p2155
aVstephensoni
p2156
aVgymnogaster
p2157
aVocellata
p2158
assVBalistidae
p2159
(dp2160
VOxymonacanthus
p2161
(lp2162
Vlongirostris
p2163
asVSufflamen
p2164
(lp2165
Vchrysopterum
p2166
asVCanthidermis
p2167
(lp2168
Vmacrolepis
p2169
asVBalistapus
p2170
(lp2171
Vundulatus
p2172
asVBalistes
p2173
(lp2174
VBalistes
p2175
aVchrysopterus
p2176
aVpolylepis
p2177
asVMelichthys
p2178
(lp2179
Vniger
p2180
asVOdonus
p2181
(lp2182
Vniger
p2183
asVPervagor
p2184
(lp2185
Vspilosoma
p2186
aVjanthinosoma
p2187
asVRhinecanthus
p2188
(lp2189
Vaculeatus
p2190
aVverrucosus
p2191
assVTriacanthodidae
p2192
(dp2193
VTydemania
p2194
(lp2195
Vnavigatoris
p2196
assVMolidae
p2197
(dp2198
VRanzania
p2199
(lp2200
Vlaevis
p2201
assVMonacanthidae
p2202
(dp2203
VCantherhines
p2204
(lp2205
Vsandwichiensis
p2206
aVpardalis
p2207
asVMonacanthus
p2208
(lp2209
Vciliatus
p2210
asVAcreichthys
p2211
(lp2212
Vtomentosus
p2213
asVStephanolepis
p2214
(lp2215
Vhispidus
p2216
aVtomentosus
p2217
aVdiaspros
p2218
asVAlutera
p2219
(lp2220
Vscripta
p2221
asssVCharaciformes
p2222
(dp2223
VProchilodontidae
p2224
(dp2225
VProchilodus
p2226
(lp2227
Vnigricans
p2228
assVGasteropelecidae
p2229
(dp2230
VThoracocharax
p2231
(lp2232
Vstellatus
p2233
assVCynodontidae
p2234
(dp2235
VCynodon
p2236
(lp2237
Vgibbus
p2238
assVSerrasalmidae
p2239
(dp2240
VMylesinus
p2241
(lp2242
Vpaucisquamatus
p2243
asVAcnodon
p2244
(lp2245
Vnormani
p2246
asVOssubtus
p2247
(lp2248
Vxinguense
p2249
asVMyloplus
p2250
(lp2251
Vrhomboidalis
p2252
aVrubripinnis
p2253
asVCatoprion
p2254
(lp2255
Vmento
p2256
asVMyleus
p2257
(lp2258
Vrubripinnis
p2259
aVrhomboidalis
p2260
aVschomburgkii
p2261
aVsetiger
p2262
aVtorquatus
p2263
aVlevis
p2264
aVasterias
p2265
asVSerrasalmus
p2266
(lp2267
Vmanueli
p2268
aVmedinai
p2269
aVeigenmanni
p2270
aVmaculatus
p2271
aVspilopleura
p2272
aVirritans
p2273
aVbrandtii
p2274
aVrhombeus
p2275
aVelongatus
p2276
aVmarginatus
p2277
asVPygopristis
p2278
(lp2279
Vdenticulata
p2280
asVPygocentrus
p2281
(lp2282
Vnattereri
p2283
aVpiraya
p2284
aVcariba
p2285
assVTriportheidae
p2286
(dp2287
VTriportheus
p2288
(lp2289
Velongatus
p2290
assVChalceidae
p2291
(dp2292
VChalceus
p2293
(lp2294
Vmacrolepidotus
p2295
assVCharacidae
p2296
(dp2297
VRhaphiodon
p2298
(lp2299
Vvulpinus
p2300
asVAgoniates
p2301
(lp2302
V
aVsp.
p2303
asVAstyanax
p2304
(lp2305
Vmexicanus
p2306
asVMylossoma
p2307
(lp2308
Vduriventre
p2309
asVExodon
p2310
(lp2311
Vparadoxus
p2312
asVMetynnis
p2313
(lp2314
Vhypsauchen
p2315
aVluna
p2316
aValtidorsalis
p2317
asVColossoma
p2318
(lp2319
Vmacropomum
p2320
asVRoeboides
p2321
(lp2322
Vdayi
p2323
aVoccidentalis
p2324
aVbouchellei
p2325
aVguatemalensis
p2326
aVmyersii
p2327
aVaffinis
p2328
asVPristobrycon
p2329
(lp2330
Vcalmoni
p2331
aVstriolatus
p2332
asVPiaractus
p2333
(lp2334
Vbrachypomus
p2335
assVAnostomidae
p2336
(dp2337
VPseudanos
p2338
(lp2339
Vtrimaculatus
p2340
aVgracilis
p2341
aVirinae
p2342
asVLeporellus
p2343
(lp2344
Vvittatus
p2345
asVHypomasticus
p2346
(lp2347
Vmegalepis
p2348
asVLaemolyta
p2349
(lp2350
Vgarmani
p2351
asVPetulanos
p2352
(lp2353
Vspiloclistron
p2354
asVLeporinus
p2355
(lp2356
Vfasciatus
p2357
aVortomaculatus
p2358
aVnigrotaeniatus
p2359
aVagassizii
p2360
aVtrifasciatus
p2361
aVtaeniatus
p2362
asVRhytiodus
p2363
(lp2364
Vlauzannei
p2365
asVSynaptolaemus
p2366
(lp2367
Vcingulatus
p2368
asVAnostomus
p2369
(lp2370
Vanostomus
p2371
aVternetzi
p2372
asssVOphidiiformes
p2373
(dp2374
VOphidiidae
p2375
(dp2376
VPorogadus
p2377
(lp2378
Vmiles
p2379
asVBassozetus
p2380
(lp2381
Vzenkevitchi
p2382
asssVBeloniformes
p2383
(dp2384
VHemiramphidae
p2385
(dp2386
VDermogenys
p2387
(lp2388
Vbruneiensis
p2389
assVBelonidae
p2390
(dp2391
VBelonion
p2392
(lp2393
Vapodion
p2394
aVdibranchodon
p2395
asVPetalichthys
p2396
(lp2397
Vcapensis
p2398
asVPseudotylosurus
p2399
(lp2400
Vangusticeps
p2401
asVStrongylura
p2402
(lp2403
Vfluviatilis
p2404
aVkrefftii
p2405
asssVBeryciformes
p2406
(dp2407
VAnoplogastridae
p2408
(dp2409
VAnoplogaster
p2410
(lp2411
Vcornuta
p2412
assssS'Mammalia (and fossil outgroups)'
p2413
(dp2414
V
(dp2415
V
(dp2416
sVAdapisoriculidae
p2417
(dp2418
VAfrodon
p2419
(lp2420
Vgheerbranti
p2421
asVBustylus
p2422
(lp2423
Vmarandati
p2424
assVSudamericidae
p2425
(dp2426
VVintana
p2427
(lp2428
Vsertichi
p2429
asssVInsectivora
p2430
(dp2431
sVDocodonta
p2432
(dp2433
VDocodontidae
p2434
(dp2435
VKrusatodon
p2436
(lp2437
Vkirtlingtonensis
p2438
asssVPholidota
p2439
(dp2440
VManidae
p2441
(dp2442
VManis
p2443
(lp2444
Vsp.
p2445
asssVRodentia
p2446
(dp2447
V
(dp2448
VMubhammys
p2449
(lp2450
Vvadumensis
p2451
asVBirkamys
p2452
(lp2453
Vkorai
p2454
assVMuridae
p2455
(dp2456
VMicromys
p2457
(lp2458
Vminutus
p2459
asVMeriones
p2460
(lp2461
Vhurrianae
p2462
asVApomys
p2463
(lp2464
Vmicrodon
p2465
asVAkodon
p2466
(lp2467
Vaffinis
p2468
asVPhloeomys
p2469
(lp2470
Vcumingi
p2471
asVMus
p2472
(lp2473
Vmusculus
p2474
asVGerbillus
p2475
(lp2476
Vcheesmani
p2477
aVnanus
p2478
asVRattus
p2479
(lp2480
Vturkestanicus
p2481
aVpyctoris
p2482
asVRhizomys
p2483
(lp2484
Vsumatrensis
p2485
asVNesokia
p2486
(lp2487
Vindica
p2488
asVPsammomys
p2489
(lp2490
Vobesus
p2491
asVPrionomys
p2492
(lp2493
Vbatesi
p2494
asVAcomys
p2495
(lp2496
Vcahirinus
p2497
asVTatera
p2498
(lp2499
Vindica
p2500
assVNesomyidae
p2501
(dp2502
VCricetomys
p2503
(lp2504
Vgambianus
p2505
assVCaviidae
p2506
(dp2507
VProdolichotis
p2508
(lp2509
Vpridiana
p2510
asVPhugatherium
p2511
(lp2512
Vdichroplax
p2513
assVCuniculidae
p2514
(dp2515
VCuniculus
p2516
(lp2517
Vpaca
p2518
assVReithroparamyidae
p2519
(dp2520
VReithroparamys
p2521
(lp2522
Vsp.
p2523
assVAlagomyidae
p2524
(dp2525
VAlagomys
p2526
(lp2527
Vrusselli
p2528
aVdashzevegi
p2529
aVsp.
p2530
assVSciuridae
p2531
(dp2532
VDremomys
p2533
(lp2534
Vrufigenis
p2535
asVGlaucomys
p2536
(lp2537
Vvolans
p2538
asVSpermophilus
p2539
(lp2540
Vsp.
p2541
asVHylopetes
p2542
(lp2543
Vspadiceus
p2544
asVTamiasciurus
p2545
(lp2546
Vdouglasii
p2547
asVHeliosciurus
p2548
(lp2549
Vrufobrachium
p2550
asVLariscus
p2551
(lp2552
Vinsignis
p2553
asVPetinomys
p2554
(lp2555
Vsetosus
p2556
asVProtoxerus
p2557
(lp2558
Vstangeri
p2559
asVParaxerus
p2560
(lp2561
Vcepapi
p2562
asVCallosciurus
p2563
(lp2564
Vsp
p2565
asVEutamias
p2566
(lp2567
Vminimus
p2568
asVPetaurista
p2569
(lp2570
Vpetaurista
p2571
asVFunisciurus
p2572
(lp2573
Vpyrropus
p2574
asVRatufa
p2575
(lp2576
Vaffinis
p2577
asVRhinosciurus
p2578
(lp2579
Vlaticaudatus
p2580
asVSciurus
p2581
(lp2582
Vcarolinensis
p2583
aVgranatensis
p2584
aVsp.
p2585
asVAeromys
p2586
(lp2587
Vtephromelas
p2588
assS'Jimomyidae'
p2589
(dp2590
S'Texomys'
p2591
(lp2592
Vstewarti
p2593
aVsp. 
p2594
assVIschyromyidae
p2595
(dp2596
VAcritoparamys
p2597
(lp2598
Vatavus
p2599
aVatwateri
p2600
asVMicroparamys
p2601
(lp2602
Vcheradius
p2603
asVParamys
p2604
(lp2605
Vdelicatus
p2606
asVIschyromys
p2607
(lp2608
Vtypus
p2609
assVDipodidae
p2610
(dp2611
VZapus
p2612
(lp2613
Vhudsonius
p2614
asVNapaeozapus
p2615
(lp2616
Vinsignis
p2617
asVAllactaga
p2618
(lp2619
Vmajor
p2620
assVCricetidae
p2621
(dp2622
VOtotylomys
p2623
(lp2624
Vphyllotis
p2625
asVNyctomys
p2626
(lp2627
Vsumichrasti
p2628
asVOchrotomys
p2629
(lp2630
Vnuttalli
p2631
asVPeromyscus
p2632
(lp2633
Vgossypinus
p2634
aVpulverulenus
p2635
aVleucopus
p2636
asVMyodes
p2637
(lp2638
Vgapperi
p2639
asVCopemys
p2640
(lp2641
Vlindsayi
p2642
asVOnychomys
p2643
(lp2644
Vtorridus
p2645
asVAlticola
p2646
(lp2647
Vargentatus
p2648
asVNeofiber
p2649
(lp2650
Valleni
p2651
asVBaiomys
p2652
(lp2653
Vtaylori
p2654
asVNeotoma
p2655
(lp2656
Valbigula
p2657
aVcinerea
p2658
aVfloridana
p2659
asVLemmus
p2660
(lp2661
Vtrimucronatus
p2662
asVNectomys
p2663
(lp2664
Vsquamipes
p2665
asVSynaptomys
p2666
(lp2667
Vcooperi
p2668
asVMesocricetus
p2669
(lp2670
Vauratus
p2671
asVPodomys
p2672
(lp2673
Vfloridanus
p2674
asVMicrotus
p2675
(lp2676
Vochrogaster
p2677
aVmontanus
p2678
aVpinetorum
p2679
asVHyperacrius
p2680
(lp2681
Vfertilis
p2682
asVReithrodontomys
p2683
(lp2684
Vhumulis
p2685
aVmegalotis
p2686
assVAplodontidae
p2687
(dp2688
VAplodontia
p2689
(lp2690
Vrufa
p2691
asVCedromus
p2692
(lp2693
Vwilsoni
p2694
assVUnidentified
p2695
(dp2696
VRodent
p2697
(lp2698
Vsp.
p2699
assVHeteromyidae
p2700
(dp2701
VChaetodipus
p2702
(lp2703
Vintermedius
p2704
asVDipodomys
p2705
(lp2706
Vordii
p2707
aVspectabilis
p2708
aVmerriami
p2709
asVHeteromys
p2710
(lp2711
Vdesmarestianus
p2712
assVErethizontidae
p2713
(dp2714
VCoendou
p2715
(lp2716
Vprehensilis
p2717
asVErethizon
p2718
(lp2719
Vdorsatum
p2720
assVNementchamyidae
p2721
(dp2722
VKabirmys
p2723
(lp2724
Vqarunensis
p2725
asssVNotoungulata
p2726
(dp2727
VInteratheriidae
p2728
(dp2729
VMiocochilius
p2730
(lp2731
Vanomopodus
p2732
asssVScandentia
p2733
(dp2734
VTupaiidae
p2735
(dp2736
VUrogale
p2737
(lp2738
Veveretti
p2739
asVTupaia
p2740
(lp2741
Vglis
p2742
aVminor
p2743
aVmontana
p2744
aVsp. (cf. glis)
p2745
aVbelangeri
p2746
aVsp.
p2747
aVtana
p2748
aVpalawanensis
p2749
asVDendrogale
p2750
(lp2751
Vminor
p2752
aVmelanura
p2753
aVmurina
p2754
assVPtilocercidae
p2755
(dp2756
VPtilocercus
p2757
(lp2758
Vlowii
p2759
asssVPilosa
p2760
(dp2761
VMegatheriidae
p2762
(dp2763
VEremotherium
p2764
(lp2765
Veomigrans
p2766
assVMegalonychidae
p2767
(dp2768
VMegalonyx
p2769
(lp2770
Vjeffersoni
p2771
aVleptostomus
p2772
asVParocnus
p2773
(lp2774
Vserus
p2775
asVAcratocnus
p2776
(lp2777
Vye
p2778
asVNeocnus
p2779
(lp2780
Vcomes
p2781
aVdousman
p2782
asVCholoepus
p2783
(lp2784
Vsp.
p2785
aVdidactylus 
p2786
aVhoffmanni
p2787
assVBradypodidae
p2788
(dp2789
VBradypus
p2790
(lp2791
Vvariegatus
p2792
aVtridactylus 
p2793
asssVHyracoidea
p2794
(dp2795
VPliohyracidae
p2796
(dp2797
VThyrohyrax
p2798
(lp2799
Vmeyeri
p2800
aVdomorictus
p2801
aVlitholagus
p2802
asVSaghatherium
p2803
(lp2804
Vbowni
p2805
aVantiquum
p2806
assVProcaviidae
p2807
(dp2808
VProcavia
p2809
(lp2810
Vtransvaalensis
p2811
aVantiqua
p2812
aVsp.
p2813
aVcapensis
p2814
asssVMicrobiotheria
p2815
(dp2816
VMicrobiotheriidae
p2817
(dp2818
VDromiciops
p2819
(lp2820
Vgliroides
p2821
asssVCimolesta
p2822
(dp2823
S'Apatemyidae'
p2824
(dp2825
VApatemys
p2826
(lp2827
Vchardini
p2828
asVLabidolemur
p2829
(lp2830
Vkayi
p2831
assVPantolestidae
p2832
(dp2833
VPalaeosinopa
p2834
(lp2835
Vincerta
p2836
aVveterrima
p2837
assVPalaeoryctidae
p2838
(dp2839
VDidelphodus
p2840
(lp2841
Vabsarokae
p2842
aVsp.
p2843
asVEoryctes
p2844
(lp2845
Vmelanus
p2846
assVPentacodontidae
p2847
(dp2848
VAphronorus
p2849
(lp2850
Vorieli
p2851
asssVPaucituberculata
p2852
(dp2853
VCaenolestidae
p2854
(dp2855
VRhyncholestes
p2856
(lp2857
Vraphanurus
p2858
asVLestoros
p2859
(lp2860
Vinca
p2861
asVPalaeothentes
p2862
(lp2863
Vminutus
p2864
asssVPerissodactyla
p2865
(dp2866
VHyrachyidae
p2867
(dp2868
VHyrachyus
p2869
(lp2870
Vmodestus
p2871
assVEquidae
p2872
(dp2873
VAnchitherium
p2874
(lp2875
Vclarencei
p2876
asVNeohipparion
p2877
(lp2878
Veurystyle
p2879
aVtrampasense
p2880
asVNannippus
p2881
(lp2882
Vpeninsulatus
p2883
aVaztecus
p2884
asVDinohippus
p2885
(lp2886
Vmexicanus
p2887
asVArchaeohippus
p2888
(lp2889
Vblackbergi
p2890
asVPropalaeotherium
p2891
(lp2892
Visselanum
p2893
asVMesohippus
p2894
(lp2895
Vbairdi
p2896
aVsp.
p2897
asVParahippus
p2898
(lp2899
Vleonensis
p2900
aVbarbouri
p2901
asVEurygnathohippus
p2902
(lp2903
Vcornelianus
p2904
asVSifrhippus
p2905
(lp2906
Vsandrae
p2907
asVCalippus
p2908
(lp2909
Vcerasinus
p2910
aVelachistus
p2911
asVEquus
p2912
(lp2913
Vsimplicidens
p2914
assVPalaeotheriidae
p2915
(dp2916
VMetanchilophus
p2917
(lp2918
Vcastrensis
p2919
asVPalaeotherium
p2920
(lp2921
Vlautricense
p2922
aVcurtum
p2923
aVmagnum
p2924
aVsp.
p2925
asVPlagiolophus
p2926
(lp2927
Vannectens
p2928
aVminor
p2929
assVTapiridae
p2930
(dp2931
VTapirus
p2932
(lp2933
Vhaysii
p2934
aVlundeliusi
p2935
aVveroensis
p2936
assVRhinocerotidae
p2937
(dp2938
VDiceros
p2939
(lp2940
Vbicornis
p2941
asVCeratotherium
p2942
(lp2943
Vsimum
p2944
asVDiaceratherium
p2945
(lp2946
Vlamilloquense
p2947
asVStephanorhinus
p2948
(lp2949
Vetruscus
p2950
asVRhinoceros
p2951
(lp2952
Vunicornis
p2953
asVProsantorhinus
p2954
(lp2955
Vdouvillei
p2956
asVBrachypotherium
p2957
(lp2958
Vbrachypus
p2959
asVDicerorhinus
p2960
(lp2961
Vsumatrensis
p2962
asVMolassitherium
p2963
(lp2964
Valbigense
p2965
assVLophiodontidae
p2966
(dp2967
VLophiodon
p2968
(lp2969
Visselense
p2970
aVlautricense
p2971
asssVDiprotodontia
p2972
(dp2973
VPhascolarctidae
p2974
(dp2975
VPhascolarctos
p2976
(lp2977
Vcinereus
p2978
assVPotoroidae
p2979
(dp2980
VBettongia
p2981
(lp2982
Vtropica
p2983
asVAepyprymnus
p2984
(lp2985
Vrufescens
p2986
asVPotorous
p2987
(lp2988
Vtridactylus
p2989
assVPetauridae
p2990
(dp2991
VDactylopsila
p2992
(lp2993
Vtrivirgata
p2994
assVVombatidae
p2995
(dp2996
VLasiorhinus
p2997
(lp2998
Vlatifrons
p2999
aVkrefftii
p3000
asVVombatus
p3001
(lp3002
Vursinus
p3003
assVMacropodidae
p3004
(dp3005
VMacropus
p3006
(lp3007
Veugenii
p3008
aVrufus
p3009
asVDendrolagus
p3010
(lp3011
Vinustus
p3012
assVPhalangeridae
p3013
(dp3014
VTrichosurus
p3015
(lp3016
Vvulpecula
p3017
asssVArtiodactyla
p3018
(dp3019
VGiraffidae
p3020
(dp3021
VGiraffa
p3022
(lp3023
Vcamelopardalis 
p3024
assVBovidae
p3025
(dp3026
VAntidorcas
p3027
(lp3028
Vrecki
p3029
asVRedunca
p3030
(lp3031
Vsp.
p3032
assVMerycoidodontidae
p3033
(dp3034
VMiniochoerus
p3035
(lp3036
Vgracilis
p3037
assVAnthracotheriidae
p3038
(dp3039
VBothriogenys
p3040
(lp3041
Vfraasi
p3042
aVrugulosus
p3043
assVSuidae
p3044
(dp3045
VPhacochoerus
p3046
(lp3047
Vantiquus
p3048
asVConohyus
p3049
(lp3050
Vsp.
p3051
asVMetridiochoerus
p3052
(lp3053
Vandrewsi
p3054
aVsp.
p3055
asVListriodon
p3056
(lp3057
Vsp.
p3058
assVCervidae
p3059
(dp3060
VCervalces
p3061
(lp3062
Vscotti
p3063
assVOreodontidae
p3064
(dp3065
VMerycoidodon
p3066
(lp3067
Vculbertsoni
p3068
asssVAfrosoricida
p3069
(dp3070
S''
(dp3071
S'Widanelfarasia'
p3072
(lp3073
Vbowni
p3074
assVTenrecidae
p3075
(dp3076
VTenrec
p3077
(lp3078
Vecaudatus
p3079
asVSetifer
p3080
(lp3081
Vsetosus
p3082
asVPotamogale
p3083
(lp3084
Vvelox
p3085
asVHemicentetes
p3086
(lp3087
Vsemispinosus
p3088
asVEchinops
p3089
(lp3090
Vtelfairi
p3091
asssVDasyuromorphia
p3092
(dp3093
VDasyuridae
p3094
(dp3095
VDasyurus
p3096
(lp3097
Vviverrinus
p3098
asVPlanigale
p3099
(lp3100
Vingrami
p3101
asVAntechinus
p3102
(lp3103
Vflavipes
p3104
asssVCetacea
p3105
(dp3106
VDelphinidae
p3107
(dp3108
VGlobicephala
p3109
(lp3110
Vmacrorhynchus
p3111
asVSteno
p3112
(lp3113
Vbredanensis
p3114
asVOrcinus
p3115
(lp3116
Vorca
p3117
asVStenella
p3118
(lp3119
Vattenuata
p3120
assVBalaenopteridae
p3121
(dp3122
VBalaenoptera
p3123
(lp3124
Vbonaerensis
p3125
aVphysalus
p3126
asVMegaptera
p3127
(lp3128
Vnovaeangliae
p3129
assVPhyseteridae
p3130
(dp3131
VKogia
p3132
(lp3133
Vbreviceps
p3134
assVIniidae
p3135
(dp3136
VPontoporia
p3137
(lp3138
Vblainvillei
p3139
asssVPrimates
p3140
(dp3141
V
(dp3142
VCarlocebus
p3143
(lp3144
Vcarmenensis
p3145
assVAotidae
p3146
(dp3147
VAotus
p3148
(lp3149
Vazarae
p3150
aVnigriceps
p3151
aVinfulatus
p3152
aVtrivirgatus
p3153
aVlemurinus
p3154
aVsp.
p3155
assVPlesiadapidae
p3156
(dp3157
VPronothodectes
p3158
(lp3159
Vmatthewi
p3160
aVjepi
p3161
aVgaoi
p3162
asVPlatychoerops
p3163
(lp3164
Vdaubrei
p3165
aVantiquus
p3166
aVsp.
p3167
asVNannodectes
p3168
(lp3169
Vgazini
p3170
aVintermedius
p3171
aVsimpsoni
p3172
aVgidleyi
p3173
asVPlesiadapis
p3174
(lp3175
Vcookei
p3176
aVrex
p3177
aVtricuspidens
p3178
aVfodinatus
p3179
aVchurchilli
p3180
aVpraecursor
p3181
aVanceps
p3182
aVdubius
p3183
aVsp.
p3184
asVChiromyoides
p3185
(lp3186
Vsp.
p3187
aVcampanicus
p3188
assVEosimiidae
p3189
(dp3190
VEosimias
p3191
(lp3192
Vsinensis
p3193
assVParomomyidae
p3194
(dp3195
VElwynella
p3196
(lp3197
Voreas
p3198
asVParomomys
p3199
(lp3200
Vdepressidens
p3201
aVmaturus
p3202
aVfarrandi
p3203
asVPhenacolemur
p3204
(lp3205
Varchus
p3206
aVcitatus
p3207
aVfortior
p3208
aVpraecox
p3209
aVsimonsi
p3210
aVwillwoodensis
p3211
aVpraecox-fortior
p3212
aVjepseni
p3213
aVpagei
p3214
asVAcidomomys
p3215
(lp3216
Vhebeticus
p3217
asVArcius
p3218
(lp3219
Vrougeri
p3220
aVlapparenti
p3221
aVfuscus
p3222
asVPalaechthon
p3223
(lp3224
Vproblematicus
p3225
asVIgnacius
p3226
(lp3227
Vgraybullianus
p3228
aVfrugivorus
p3229
aVclarkforkensis
p3230
aVfremontensis
p3231
asVEdworthia
p3232
(lp3233
Vlerbekmoi
p3234
assVCebidae
p3235
(dp3236
VCebupithecia
p3237
(lp3238
Vsarmientoi
p3239
asVCebus
p3240
(lp3241
Vapella
p3242
aVcapucinus
p3243
aVSp.
p3244
aVolivaceus
p3245
aValbifrons
p3246
asVNeosaimiri
p3247
(lp3248
Vfieldsi
p3249
asVCallithrix
p3250
(lp3251
Vjacchus
p3252
aVpygmaea
p3253
aVsp.
p3254
aVargentata
p3255
aVhumeralifera
p3256
aVargentina
p3257
aVgeoffroyi
p3258
asVTremacebus
p3259
(lp3260
Vharringtoni
p3261
asVCallimico
p3262
(lp3263
Vgoeldii
p3264
asVPanamacebus
p3265
(lp3266
Vtransitus
p3267
asVHomunculus
p3268
(lp3269
Vtatacoensis
p3270
aVpatagonicus
p3271
asVDolichocebus
p3272
(lp3273
Vgaimanensis
p3274
asVLeontopithecus
p3275
(lp3276
Vrosalia
p3277
asVSaimiri
p3278
(lp3279
Vboliviensis
p3280
aVsciureus
p3281
aVoerstedii
p3282
aVsanguinus
p3283
aVsaguinus
p3284
asVBranisella
p3285
(lp3286
Vboliviana
p3287
assVAdapidae
p3288
(dp3289
VMahgarita
p3290
(lp3291
Vstevensi
p3292
asS'Masradapis'
p3293
(lp3294
Vtahai
p3295
asVAdapoides
p3296
(lp3297
Vtroglodytes
p3298
asVCaenopithecus
p3299
(lp3300
Vlemuroides
p3301
asVAdapis
p3302
(lp3303
Vparisiensis
p3304
aVsp.
p3305
aVschlosseri
p3306
asS'Afradapis'
p3307
(lp3308
Vlongicristatus
p3309
aVSpecies-new
p3310
asVLeptadapis
p3311
(lp3312
Vmagnus
p3313
aVleenhardti
p3314
assVOligopithecidae
p3315
(dp3316
VCatopithecus
p3317
(lp3318
Vbrowni
p3319
assVCheirogaleidae
p3320
(dp3321
VMicrocebus
p3322
(lp3323
Vmurinus
p3324
aVcoquereli
p3325
aVgriseorufus
p3326
aVrufus
p3327
aVsp.
p3328
asVPhaner
p3329
(lp3330
Vfurcifer
p3331
asVMirza
p3332
(lp3333
Vcoquereli
p3334
aVzaza
p3335
asVCheirogaleus
p3336
(lp3337
Vmajor
p3338
aVmedius
p3339
aVsp.
p3340
assS'Cercamoniidae'
p3341
(dp3342
S'Asiadapis'
p3343
(lp3344
Vcambayensis
p3345
aVtapiensis
p3346
asS'Marcgodinotius'
p3347
(lp3348
Vindicus
p3349
asS'Donrussellia'
p3350
(lp3351
Vprovincialis
p3352
asS'Anchomomys'
p3353
(lp3354
Vfrontanyensis
p3355
assVCallitrichidae
p3356
(dp3357
VCebuella
p3358
(lp3359
Vpygmaea
p3360
asVSaguinus
p3361
(lp3362
Vmidas
p3363
aVmystax
p3364
aVoedipus
p3365
aVsp.
p3366
aVfuscicollis
p3367
assVAfrotarsiidae
p3368
(dp3369
VAfrotarsius
p3370
(lp3371
Vchatrathi
p3372
assVSaxonellidae
p3373
(dp3374
VSaxonella
p3375
(lp3376
Vnaylori
p3377
aVcrepaturae
p3378
assVIndridae
p3379
(dp3380
VAvahi
p3381
(lp3382
Vlaniger
p3383
asVIndri
p3384
(lp3385
Vindri
p3386
asVPropithecus
p3387
(lp3388
Vdiadema
p3389
aVverreauxi
p3390
aVcoquereli
p3391
aVsp.
p3392
assVProteopithecidae
p3393
(dp3394
VSerapia
p3395
(lp3396
Veocaena
p3397
asVProteopithecus
p3398
(lp3399
Vsylviae
p3400
assVPitheciinae
p3401
(dp3402
VPithecia
p3403
(lp3404
Vmonachus
p3405
aVpithecia
p3406
aVhirsuta
p3407
assVCarpolestidae
p3408
(dp3409
VElphidotarsius
p3410
(lp3411
Vrusselli
p3412
aVcf. florencae
p3413
aVsp.
p3414
asVCarpolestes
p3415
(lp3416
Vsimpsoni
p3417
aVnigridens
p3418
aVdubius
p3419
aVhazelae
p3420
assVPurgatoriidae
p3421
(dp3422
VPurgatorius
p3423
(lp3424
Vsp.
p3425
aVcoracis
p3426
aVjanisae
p3427
assVPitheciidae
p3428
(dp3429
VCacajao
p3430
(lp3431
Vcalvus
p3432
aVmelanocephalus
p3433
aVsp.
p3434
asVChiropotes
p3435
(lp3436
Valbinasus
p3437
aVsatanas
p3438
aVsp.
p3439
aVchiropotes
p3440
asVCallicebus
p3441
(lp3442
Vsp.
p3443
assVTarsiidae
p3444
(dp3445
VTarsius
p3446
(lp3447
Vbancanus
p3448
aVborneanus
p3449
aVspectrum
p3450
aVsyricta
p3451
aVtarsier
p3452
aVsyrichta
p3453
aVsp.
p3454
asVCarlito
p3455
(lp3456
Vsyrichta
p3457
asVCephalopachus
p3458
(lp3459
Vbancanus
p3460
assVLoridae
p3461
(dp3462
VPerodicticus
p3463
(lp3464
Vpotto
p3465
asVNycticebus
p3466
(lp3467
Vcoucang
p3468
aVpygmaeus
p3469
asVGalagoides
p3470
(lp3471
Vdemidovii
p3472
asVArctocebus
p3473
(lp3474
Vcalabarensis
p3475
asVLoris
p3476
(lp3477
Vtardigradus
p3478
aVlydekkerianus
p3479
assVNotharctidae
p3480
(dp3481
VCantius
p3482
(lp3483
Vralstoni
p3484
aVtrigonodus
p3485
aVmckennai
p3486
aVfrugivorus
p3487
aVabditus
p3488
aVtorresi
p3489
aVnuniensis
p3490
aVfrugivorous
p3491
aVsp.
p3492
asVNotharctus
p3493
(lp3494
Vventicolus
p3495
aVsp.
p3496
aVtenebrosus
p3497
aVpugnax
p3498
aVrobustior
p3499
asVSmilodectes
p3500
(lp3501
Vsp.
p3502
aVgracilis
p3503
aVmcgrewi
p3504
assVAzibiidae
p3505
(dp3506
VAzibius
p3507
(lp3508
Vtrerki
p3509
aVsp
p3510
assVDendropithecidae
p3511
(dp3512
VMicropithecus
p3513
(lp3514
Vleakeyorum
p3515
assVOmomyidae
p3516
(dp3517
VRooneyia
p3518
(lp3519
Vviejaensis
p3520
asS'Microchoerus'
p3521
(lp3522
Verinaceus
p3523
asVWashakius
p3524
(lp3525
Vinsignis
p3526
aVizetti
p3527
asVTeilhardina
p3528
(lp3529
Vamericana
p3530
aVbelgica
p3531
aVbrandti
p3532
aVsp.
p3533
asVHemiacodon
p3534
(lp3535
Vgracilis
p3536
asVArapahovius
p3537
(lp3538
Vgazini
p3539
asVAbsarokius
p3540
(lp3541
Vsp.
p3542
aVabbotti
p3543
asVShoshonius
p3544
(lp3545
Vcooperi
p3546
asVTetonius
p3547
(lp3548
Vhomunculus
p3549
aVmatthewi
p3550
asVNecrolemur
p3551
(lp3552
Vantiquus
p3553
aVzitteli
p3554
aVsp.
p3555
asVOurayia
p3556
(lp3557
Vuintensis
p3558
asVAnemorhysis
p3559
(lp3560
Vpearcei
p3561
asVVastanomys
p3562
(lp3563
Vgracilis
p3564
aVmajor
p3565
aVsp.
p3566
assVParapithecidae
p3567
(dp3568
VParapithecus
p3569
(lp3570
Vgrangeri
p3571
aVfraasi
p3572
asVApidium
p3573
(lp3574
Vphiomense
p3575
aVsp.
p3576
aVbowni
p3577
aVmoustafi
p3578
aVmoustafai
p3579
asS'Arsinoea'
p3580
(lp3581
Vkallimos
p3582
asVQatrania
p3583
(lp3584
Vsp.
p3585
aVwingi
p3586
aVfleaglei
p3587
assVMicrosyopidae
p3588
(dp3589
VMicrosyops
p3590
(lp3591
Vscottianus
p3592
asVNiptomomys
p3593
(lp3594
Vdoreenae
p3595
assVArchaeolemuridae
p3596
(dp3597
VHadropithecus
p3598
(lp3599
Vspp.
p3600
aVstenognathus
p3601
asVArchaeolemur
p3602
(lp3603
Vcf. edwardsi
p3604
aVsp.
p3605
aVmajori
p3606
assVGalagidae
p3607
(dp3608
VOtolemur
p3609
(lp3610
Vcrassicaudatus
p3611
aVgarnetti
p3612
aVgarnettii
p3613
asS'Karanisia'
p3614
(lp3615
Vclarki
p3616
aVarenula
p3617
asVWadilemur
p3618
(lp3619
Velegans
p3620
asVEuoticus
p3621
(lp3622
Velegantulus
p3623
asVSaharagalago
p3624
(lp3625
Vmisrensis
p3626
asVGalago
p3627
(lp3628
Vsenegalensis
p3629
aValleni
p3630
aVdemidovii
p3631
aVmoholi
p3632
aVzanzibaricus
p3633
aVdemidoff
p3634
assVPliopithecidae
p3635
(dp3636
VAegyptopithecus
p3637
(lp3638
Vzeuxis
p3639
asVOligopithecus
p3640
(lp3641
Vsavagei
p3642
asVPropliopithecus
p3643
(lp3644
Vchirobates
p3645
aV(?)
p3646
aV(sp?)
p3647
aVcheirorates
p3648
aVsp.
p3649
aVankeli
p3650
assVHomunculidae
p3651
(dp3652
VMazzonicebus
p3653
(lp3654
V almendrae
p3655
asVSoriacebus
p3656
(lp3657
Vameghinorum
p3658
assVLemuridae
p3659
(dp3660
VPachylemur
p3661
(lp3662
Vinsignis
p3663
asVLemur
p3664
(lp3665
Vcatta
p3666
aVsp.
p3667
asVProlemur
p3668
(lp3669
Vsimus
p3670
asVHapalemur
p3671
(lp3672
Vgiseus
p3673
aVgriseus
p3674
aVsimus
p3675
asVVarecia
p3676
(lp3677
Vvariegata
p3678
asVEulemur
p3679
(lp3680
Vfulvus
p3681
aVsp.
p3682
aVcoronatus
p3683
aVmacaco
p3684
aVsanfordi
p3685
aVrubriventer
p3686
assVDjebelemuridae
p3687
(dp3688
VDjebelemur
p3689
(lp3690
Vmartinezi
p3691
assVPalaechthonidae
p3692
(dp3693
VPremnoides
p3694
(lp3695
Vdouglassi
p3696
assVDaubentoniidae
p3697
(dp3698
VDaubentonia
p3699
(lp3700
Vmadagascariensis
p3701
aVrobusta
p3702
asS'Plesiopithecus'
p3703
(lp3704
Vteras
p3705
assVProconsulidae
p3706
(dp3707
VAfropithecus
p3708
(lp3709
Vincertae sedis
p3710
aVturkanensis
p3711
asVNyanzapithecus
p3712
(lp3713
Vincertae sedis
p3714
aVpickfordi
p3715
aVvancouveringorum
p3716
assVAtelidae
p3717
(dp3718
VAlouatta
p3719
(lp3720
Vpalliata
p3721
aVseniculus
p3722
aVcaraya
p3723
aVsp.
p3724
aVpaliatta
p3725
asVLagothrix
p3726
(lp3727
Vsp
p3728
aVlagotricha
p3729
aVlugens
p3730
aVlagothricha
p3731
asVStirtonia
p3732
(lp3733
Vtatacoensis
p3734
aVvictoriae
p3735
asVAteles
p3736
(lp3737
Vbelzebuth
p3738
aVgeoffroyi
p3739
aVpaniscus
p3740
aVsp.
p3741
aVfusciceps
p3742
aVmarginatus
p3743
asVBrachyteles
p3744
(lp3745
Varachnoides
p3746
assVMicromomyidae
p3747
(dp3748
VDryomomys
p3749
(lp3750
Vszalayi
p3751
assVHylobatidae
p3752
(dp3753
VBunopithecus
p3754
(lp3755
Vhoolock
p3756
asVHoolock
p3757
(lp3758
Vhoolock
p3759
asVSymphalangus
p3760
(lp3761
Vsyndactylus
p3762
asVHylobates
p3763
(lp3764
Vlar
p3765
aVsp.
p3766
aVagilis
p3767
aVleucogenys
p3768
aVsyndactylus
p3769
assVMegaladapidae
p3770
(dp3771
VMegaladapis
p3772
(lp3773
Vmadagascariensis
p3774
aVcf. madagascariensis
p3775
asVLepilemur
p3776
(lp3777
Vmustelinus
p3778
aVsp.
p3779
assVHominidae
p3780
(dp3781
VSivapithecus
p3782
(lp3783
Vindicus
p3784
aVsp.
p3785
asS'Equatorius'
p3786
(lp3787
Vafricanus
p3788
asVLimnopithecus
p3789
(lp3790
VLegetet
p3791
aVevansi
p3792
asVPongo
p3793
(lp3794
Vpygmaeus
p3795
asVGorilla
p3796
(lp3797
Vgorilla
p3798
asVAustralopithecus
p3799
(lp3800
Vafarensis
p3801
aVboisei
p3802
aVafricanus
p3803
aVsediba
p3804
asVHomo
p3805
(lp3806
Vsapiens
p3807
aVhabilis
p3808
aVneanderthalensis
p3809
aVheidelbergensis
p3810
aVerectus
p3811
aVnaledi
p3812
asVProconsul
p3813
(lp3814
Vafricanus
p3815
aVmajor
p3816
aVnyanzae
p3817
aVheseloni
p3818
aVincertae sedis
p3819
asVPan
p3820
(lp3821
Vtroglodytes
p3822
aVpaniscus
p3823
assVCercopithecidae
p3824
(dp3825
VParapapio
p3826
(lp3827
Vjonesi
p3828
aVbroomi
p3829
asVTrachypithecus
p3830
(lp3831
Vcristata
p3832
aVobscura
p3833
aVsp.
p3834
aVobscurus
p3835
asVNasalis
p3836
(lp3837
Vlarvatus
p3838
aVconcolor
p3839
asVPapio
p3840
(lp3841
Vursinus
p3842
aVsp.
p3843
aVdoguera
p3844
aVanubis
p3845
aVangusticeps
p3846
aVhamadryas
p3847
aVizodi
p3848
aVingens
p3849
aVcynocephalus
p3850
asVChlorocebus
p3851
(lp3852
Vaethiops
p3853
aVcynosuros
p3854
aVpygerythrus
p3855
aVtantalus
p3856
asVAllenopithecus
p3857
(lp3858
Vnigroviridis
p3859
asVLophocebus
p3860
(lp3861
Valbigena
p3862
aVgaleritus
p3863
aVaterrimus
p3864
asVCercopithecus
p3865
(lp3866
Vmitis
p3867
aVmona
p3868
aVneglectus
p3869
aVnictitans
p3870
aValbogularis
p3871
aVdiana
p3872
aVsp.
p3873
aVdenti
p3874
aVcephus
p3875
aVpogonias
p3876
aVascanius
p3877
aVlowei
p3878
asVDinopithecus
p3879
(lp3880
Vingens
p3881
asVSemnopithecus
p3882
(lp3883
Ventellus
p3884
asVMandrillus
p3885
(lp3886
Vleucophaeus
p3887
aVsphinx
p3888
asVColobus
p3889
(lp3890
Vguereza
p3891
aVbadius
p3892
aVpolykomos
p3893
aVangolensis
p3894
asVMiopithecus
p3895
(lp3896
Vtalapoin
p3897
aVogouensis
p3898
asVPygathrix
p3899
(lp3900
Vnemaeus
p3901
aVneameus
p3902
aVroxellana
p3903
asVGorgopithecus
p3904
(lp3905
Vmajor
p3906
asVProcolobus
p3907
(lp3908
Vbadius
p3909
aVverus
p3910
asVPresbytis
p3911
(lp3912
Vmelalophos
p3913
aVobscurus
p3914
aVrubicunda
p3915
aVhosei
p3916
aVfrontata
p3917
aVphayrei
p3918
aVcristata
p3919
aVpotenziani
p3920
aVfemoralis
p3921
asVRhinopithecus
p3922
(lp3923
Vroxellana
p3924
asVTheropithecus
p3925
(lp3926
Vgelada
p3927
aVoswaldi
p3928
asVCercopithecoides
p3929
(lp3930
Vwilliamsi
p3931
aVcoronatus
p3932
asVCercocebus
p3933
(lp3934
Vatys
p3935
aVtorquatus
p3936
aVsp.
p3937
aValbigena
p3938
aVgaleritus
p3939
asVMacaca
p3940
(lp3941
Vnigra
p3942
aVfascicularis
p3943
aVfuscata
p3944
aVmulatta
p3945
aVsylvanus
p3946
aVnemestrina
p3947
aVsp.
p3948
aVarctoides
p3949
aVthibetana
p3950
aVbrunnescens
p3951
aVassamensis
p3952
aVmaura
p3953
aVsinica
p3954
aVtonkeana
p3955
aVradiata
p3956
aVcyclopis
p3957
asVErythrocebus
p3958
(lp3959
Vpatas
p3960
asssVCingulata
p3961
(dp3962
VDasypodidae
p3963
(dp3964
VCabassous
p3965
(lp3966
Vcentralis
p3967
aVunicinctus
p3968
asVZaedyus
p3969
(lp3970
Vpichiy
p3971
asVChaetophractus
p3972
(lp3973
Vvillosus
p3974
aVnationi
p3975
aVvellerosus
p3976
asVDasypus
p3977
(lp3978
Vbellus
p3979
aVhybridus
p3980
aVnovemcinctus
p3981
aVsp.
p3982
aVsabanicola
p3983
asVEuphractus
p3984
(lp3985
Vsexcinctus
p3986
asVTolypeutes
p3987
(lp3988
Vmatacus
p3989
assVPampatheriidae
p3990
(dp3991
VHolmesina
p3992
(lp3993
Vseptentrionalis
p3994
aVfloridanus
p3995
asssS'Ptolemaiida'
p3996
(dp3997
S'Ptolemaiidae'
p3998
(dp3999
VPtolemaia
p4000
(lp4001
Vgrangeri
p4002
asssVFerae
p4003
(dp4004
sVSirenia
p4005
(dp4006
VProtosirenidae
p4007
(dp4008
VProtosiren
p4009
(lp4010
V(sp?)
p4011
asssS'Fossil outgroups'
p4012
(dp4013
S'Thrinaxodontidae'
p4014
(dp4015
VThrinaxodon
p4016
(lp4017
Vsp.
p4018
asssVMacroscelidea
p4019
(dp4020
VAmphilemuridae
p4021
(dp4022
VMacrocranion
p4023
(lp4024
Vjunnei
p4025
aVnitens
p4026
asVProterixoides
p4027
(lp4028
Vdavisi
p4029
assVMacroscelididae
p4030
(dp4031
VPetrodromus
p4032
(lp4033
Vtetradactylus
p4034
asVMacroscelides
p4035
(lp4036
Vproboscideus
p4037
asssVMultituberculata
p4038
(dp4039
VNeoplagiaulacidae
p4040
(dp4041
VEctypodus
p4042
(lp4043
Vtardus
p4044
assVPtilodontidae
p4045
(dp4046
VPtilodus
p4047
(lp4048
Vkummae
p4049
asssVCreodonta
p4050
(dp4051
V
(dp4052
sVHyaenodontidae
p4053
(dp4054
S'Brychotherium'
p4055
(lp4056
Vephalmos
p4057
asVMasrasector
p4058
(lp4059
Vnananubis
p4060
assVHyainailouridae
p4061
(dp4062
VAkhnatenavus
p4063
(lp4064
Vnefertiticyon
p4065
asssVDermoptera
p4066
(dp4067
VCynocephalidae
p4068
(dp4069
VGaleopterus
p4070
(lp4071
Vvariegatus
p4072
asVCynocephalus
p4073
(lp4074
Vvariegatus
p4075
aVvolans
p4076
asssVLipotyphla
p4077
(dp4078
sVCarnivora
p4079
(dp4080
VHerpestidae
p4081
(dp4082
VAtilax
p4083
(lp4084
Vmesotes
p4085
assVAiluridae
p4086
(dp4087
VPristinailurus
p4088
(lp4089
Vbristoli
p4090
assVFelidae
p4091
(dp4092
VFelis
p4093
(lp4094
Vcatus
p4095
asVMegantereon
p4096
(lp4097
Vwhitei
p4098
asVPuma
p4099
(lp4100
Vconcolor
p4101
asVLeopardus
p4102
(lp4103
Vpardalis
p4104
asVDinofelis
p4105
(lp4106
Vbarlowi
p4107
aVpiveteaui
p4108
asVPanthera
p4109
(lp4110
Vleo
p4111
aVpardus
p4112
asVSmilodon
p4113
(lp4114
Vfatalis
p4115
asVHomotherium
p4116
(lp4117
Vserum
p4118
asVLynx
p4119
(lp4120
Vrufus
p4121
asVAcinonyx
p4122
(lp4123
Vjubatus
p4124
asVNeofelis
p4125
(lp4126
Vnebulosa
p4127
assVCanidae
p4128
(dp4129
VHesperocyon
p4130
(lp4131
Vgregarius
p4132
asVSpeothos
p4133
(lp4134
Vvenaticus
p4135
asVSimocyon
p4136
(lp4137
Vprimigenius
p4138
asVCanis
p4139
(lp4140
Vbrevirostris
p4141
aVmesomelas
p4142
aVsp.
p4143
aVlupus
p4144
aVlatrans
p4145
aVdirus
p4146
asVVulpes
p4147
(lp4148
Vvulpes
p4149
aVpulcher
p4150
aVpattisoni
p4151
asVMetatomarctus
p4152
(lp4153
Vcanavus
p4154
assVMustelidae
p4155
(dp4156
VEnhydra
p4157
(lp4158
Vlutris
p4159
asVAonyx
p4160
(lp4161
Vcapensis
p4162
aVcinerea
p4163
asVSiamogale
p4164
(lp4165
Vmelilutra
p4166
asVLutrogale
p4167
(lp4168
Vperspicillata
p4169
asVLontra
p4170
(lp4171
Vcanadensis
p4172
aVfelina
p4173
aVlongicaudis
p4174
asVLutra
p4175
(lp4176
Vlutra
p4177
asVHydrictis
p4178
(lp4179
Vmaculicollis
p4180
asVPteronura
p4181
(lp4182
Vbrasiliensis
p4183
assVViverridae
p4184
(dp4185
VParahyaena
p4186
(lp4187
Vbrunnea
p4188
asVArctictis
p4189
(lp4190
Vbinturong
p4191
asVViverra
p4192
(lp4193
Vtangalunga
p4194
assVUrsidae
p4195
(dp4196
VKolponomos
p4197
(lp4198
Vnewportensis
p4199
asVUrsus
p4200
(lp4201
Vamericanus
p4202
aVarctos
p4203
asVArctodus
p4204
(lp4205
Vsimus
p4206
assVProcyonidae
p4207
(dp4208
VPotos
p4209
(lp4210
Vflavus
p4211
asVNasua
p4212
(lp4213
Vnarica
p4214
aVsp.
p4215
asVParailurus
p4216
(lp4217
Vanglicus
p4218
aVhungaricus
p4219
aVsp
p4220
assVNimravidae
p4221
(dp4222
VDinictis
p4223
(lp4224
Vsqualidens
p4225
assVHyaenidae
p4226
(dp4227
VPachycrocuta
p4228
(lp4229
Vbrevirostris
p4230
asVHyaena
p4231
(lp4232
Vhyaena
p4233
aVsp.
p4234
asVCrocuta
p4235
(lp4236
Vcrocuta
p4237
asVChasmaporthetes
p4238
(lp4239
Vnitidula
p4240
aVsilberbergi
p4241
asVLycyaenops
p4242
(lp4243
Vsilberbergi
p4244
asssVApatotheria
p4245
(dp4246
sVEdentata;cingulata
p4247
(dp4248
sVEulipotyphla
p4249
(dp4250
VSolenodontidae
p4251
(dp4252
VSolenodon
p4253
(lp4254
Vparadoxus
p4255
assVSoricidae
p4256
(dp4257
VCrocidura
p4258
(lp4259
Volivieri
p4260
asVSuncus
p4261
(lp4262
Vmurinus
p4263
assVGeolabididae
p4264
(dp4265
VCentetodon
p4266
(lp4267
Vneashami
p4268
assVTalpidae
p4269
(dp4270
VDesmana
p4271
(lp4272
Vmoschata
p4273
assS'Dormaaliidae'
p4274
(dp4275
VCrypholestes
p4276
(lp4277
Vvaughni
p4278
asVScenopagus
p4279
(lp4280
Vsp.
p4281
asVTalpavoides
p4282
(lp4283
Vdartoni
p4284
assVErinaceidae
p4285
(dp4286
VErinaceus
p4287
(lp4288
Veuropaeus
p4289
aVbroomi
p4290
asVSespedectes
p4291
(lp4292
Vsingularis
p4293
asVHemiechinus
p4294
(lp4295
Vauritus
p4296
assVNyctitheriidae
p4297
(dp4298
VPlagioctenodon
p4299
(lp4300
Vsavagei
p4301
aVkrausae
p4302
asVPlagioctenoides
p4303
(lp4304
Vmicrolestes
p4305
aVsp.
p4306
asssVChiroptera
p4307
(dp4308
VPteropodidae
p4309
(dp4310
VEonycteris
p4311
(lp4312
Vrobusta
p4313
aVspelaea
p4314
asVHarpyionycteris
p4315
(lp4316
Vwhiteheadi
p4317
aVcelebensis
p4318
asVMacroglossus
p4319
(lp4320
Vminimus
p4321
aVsobrinus
p4322
asVEidolon
p4323
(lp4324
Vhelvum
p4325
asVMegaerops
p4326
(lp4327
Vecaudatus
p4328
aVniphanae
p4329
asVAcerodon
p4330
(lp4331
Vjubatus
p4332
aVcelebensis
p4333
asVPteropus
p4334
(lp4335
Vvampyrus
p4336
aVhypomelanus
p4337
aVpumilus
p4338
aVadmiralitatum
p4339
aValecto
p4340
aVcapistratus
p4341
aVconspicillatus
p4342
aVlivingstonii
p4343
aVpoliocephalus
p4344
aVsamoensis
p4345
aVscapulatus
p4346
aVtonganus
p4347
aVmolossinus
p4348
aVrufus
p4349
aVlylei
p4350
aVornatus
p4351
aVneohibernicus
p4352
aVmariannus
p4353
aVanetianus
p4354
asVOtopteropus
p4355
(lp4356
Vcartilagonodus
p4357
asVRousettus
p4358
(lp4359
Vaegyptiacus
p4360
aVamplexicaudatus
p4361
aVleschenaultii
p4362
asVNanonycteris
p4363
(lp4364
Vveldkampii
p4365
asVPtenochirus
p4366
(lp4367
Vjagori
p4368
aVminor
p4369
asVPenthetor
p4370
(lp4371
Vlucasi
p4372
asVHaplonycteris
p4373
(lp4374
Vfischeri
p4375
asVNyctimene
p4376
(lp4377
Vaello
p4378
aValbiventer
p4379
aVcephalotes
p4380
aVmajor
p4381
aVrobinsoni
p4382
aVvizcaccia
p4383
aVcertans
p4384
asVParanyctimene
p4385
(lp4386
Vraptor
p4387
asVBalionycteris
p4388
(lp4389
Vmaculata
p4390
asVMyonycteris
p4391
(lp4392
Vtorquata
p4393
asVMegaloglossus
p4394
(lp4395
Vwoermanni
p4396
asVScotonycteris
p4397
(lp4398
Vzenkeri
p4399
asVHypsignathus
p4400
(lp4401
Vmonstrosus
p4402
asVEpomophorus
p4403
(lp4404
Vgambianus
p4405
aVlabiatus
p4406
aVminor
p4407
aVwahlbergi
p4408
asVAethalops
p4409
(lp4410
Valecto
p4411
asVEpomops
p4412
(lp4413
Vfranqueti
p4414
asVCynopterus
p4415
(lp4416
Vhorsfieldii
p4417
aVbrachyotis
p4418
aVsphinx
p4419
aVtitthaecheilus
p4420
asVSphaerias
p4421
(lp4422
Vblanfordi
p4423
asVThoopterus
p4424
(lp4425
Vnigrescens
p4426
asVDobsonia
p4427
(lp4428
Vminor
p4429
aVpannietensis
p4430
assVIcaronycteridae
p4431
(dp4432
VIcaronycteris
p4433
(lp4434
Vindex
p4435
assVPhyllostomatidae
p4436
(dp4437
VPlatalina
p4438
(lp4439
Vgenovensium
p4440
assVThyropteridae
p4441
(dp4442
VThyroptera
p4443
(lp4444
Vtricolor
p4445
assVNatalidae
p4446
(dp4447
VNatalus
p4448
(lp4449
Vstramineus
p4450
aVjamaicensis
p4451
aVtumidirostris
p4452
aVlepidus
p4453
asVChilonatalus
p4454
(lp4455
Vmicropus
p4456
assVEmballonuridae
p4457
(dp4458
VDiclidurus
p4459
(lp4460
Valbus
p4461
asVSaccolaimus
p4462
(lp4463
Vsaccolaimus
p4464
asVTaphozous
p4465
(lp4466
Vphilippinensis
p4467
aVlongimanus
p4468
aVmauritianus
p4469
aVnudiventris
p4470
asVPeropteryx
p4471
(lp4472
Vkappleri
p4473
aVmacrotis
p4474
asVCentronycteris
p4475
(lp4476
Vmaximiliani
p4477
asVEmballonura
p4478
(lp4479
Valecto
p4480
aVraffrayana
p4481
aVsemicaudata
p4482
asVBalantiopteryx
p4483
(lp4484
Vio
p4485
aVplicata
p4486
asVSaccopteryx
p4487
(lp4488
Vcanescens
p4489
assVMormoopidae
p4490
(dp4491
VPteronotus
p4492
(lp4493
Vdavyi
p4494
aVgymnonotus
p4495
aVparnellii
p4496
aVpersonatus
p4497
aVmacleayii
p4498
asVMormoops
p4499
(lp4500
Vmegalophylla
p4501
aVblainvillii
p4502
assVPhyllostomidae
p4503
(dp4504
VMonophyllus
p4505
(lp4506
Vredmani
p4507
asVLophostoma
p4508
(lp4509
Vbrasiliense
p4510
aVcarrikeri
p4511
aVschulzi
p4512
aVsilvicolum
p4513
asVPhyllops
p4514
(lp4515
Vfalcatus
p4516
asVChoeroniscus
p4517
(lp4518
Vgodmani
p4519
aVminor
p4520
asVMacrophyllum
p4521
(lp4522
Vmacrophyllum
p4523
asVChiroderma
p4524
(lp4525
Vsalvini
p4526
aVtrinitatum
p4527
aVvillosum
p4528
asVPygoderma
p4529
(lp4530
Vbilabiatum
p4531
asVTonatia
p4532
(lp4533
Vsaurophila
p4534
asVPhyllostomus
p4535
(lp4536
Vdiscolor
p4537
aVelongatus
p4538
aVhastatus
p4539
asVVampyriscus
p4540
(lp4541
Vnymphaea
p4542
aVbrocki
p4543
asVPlatyrrhinus
p4544
(lp4545
Vbrachycephalus
p4546
aVdorsalis
p4547
aVhelleri
p4548
aVinfuscus
p4549
aVlineatus
p4550
aVvittatus
p4551
asVUroderma
p4552
(lp4553
Vbilobatum
p4554
aVmagnirostrum
p4555
asVCarollia
p4556
(lp4557
Vbrevicauda
p4558
aVcastanea
p4559
aVperspicillata
p4560
aVsubrufa
p4561
asVPhyllonycteris
p4562
(lp4563
Vaphylla
p4564
aVpoeyi
p4565
asVHylonycteris
p4566
(lp4567
Vunderwoodi
p4568
asVMicronycteris
p4569
(lp4570
Vhirsuta
p4571
aVmegalotis
p4572
aVminuta
p4573
aVbrosseti
p4574
aVmatses
p4575
aVmicrotis
p4576
aVschmidtorum
p4577
asVAmetrida
p4578
(lp4579
Vcenturio
p4580
asVLionycteris
p4581
(lp4582
Vspurrelli
p4583
asVSturnira
p4584
(lp4585
Vlilium
p4586
aVludovici
p4587
aVmagna
p4588
aVmordax
p4589
aVoporaphilum
p4590
aVbidens
p4591
aVnana
p4592
aVtildae
p4593
aVbogotensis
p4594
asVCenturio
p4595
(lp4596
Vsenex
p4597
asVSphaeronycteris
p4598
(lp4599
Vtoxophyllum
p4600
asVDesmodus
p4601
(lp4602
Vrotundus
p4603
asVErophylla
p4604
(lp4605
Vsezekorni
p4606
asVMimon
p4607
(lp4608
Vcozumelae
p4609
aVcrenulatum
p4610
asVDiphylla
p4611
(lp4612
Vecaudata
p4613
asVStenoderma
p4614
(lp4615
Vrufum
p4616
asVMusonycteris
p4617
(lp4618
Vharrisoni
p4619
asVLonchorhina
p4620
(lp4621
Vaurita
p4622
asVHsunycteris
p4623
(lp4624
Vthomasi
p4625
asVLeptonycteris
p4626
(lp4627
Vyerbabuenae
p4628
aVcurasoae
p4629
asVRhinophylla
p4630
(lp4631
Vpumilio
p4632
aVfischerae
p4633
asVAnoura
p4634
(lp4635
Vcaudifer
p4636
aVgeoffroyi
p4637
aVcultrata
p4638
aVlatidens
p4639
asVChoeronycteris
p4640
(lp4641
Vmexicana
p4642
asVChrotopterus
p4643
(lp4644
Vauritus
p4645
asVArtibeus
p4646
(lp4647
Vfimbriatus
p4648
aVhirsutus
p4649
aVjamaicensis
p4650
aVlituratus
p4651
aVplanirostris
p4652
aVconcolor
p4653
aVfraterculus
p4654
aVintermedius
p4655
aVobscurus
p4656
asVGlossophaga
p4657
(lp4658
Vcommissarisi
p4659
aVsoricina
p4660
aVleachii
p4661
aVlongirostris
p4662
aVmorenoi
p4663
asVAriteus
p4664
(lp4665
Vflavescens
p4666
asVLichonycteris
p4667
(lp4668
Vobscura
p4669
asVTrachops
p4670
(lp4671
Vcirrhosus
p4672
asVVampyressa
p4673
(lp4674
Vpusilla
p4675
aVmelissa
p4676
asVMesophylla
p4677
(lp4678
Vmacconnelli
p4679
asVDiaemus
p4680
(lp4681
Vyoungi
p4682
asVBrachyphylla
p4683
(lp4684
Vcavernarum
p4685
aVnana
p4686
asVGlyphonycteris
p4687
(lp4688
Vsylvestris
p4689
asVVampyrodes
p4690
(lp4691
Vcaraccioli
p4692
asVMacrotus
p4693
(lp4694
Vwaterhousii
p4695
aVcalifornicus
p4696
asVPhylloderma
p4697
(lp4698
Vstenops
p4699
asVLonchophylla
p4700
(lp4701
Vrobusta
p4702
aVhandleyi
p4703
aVmordax
p4704
asVDermanura
p4705
(lp4706
Vanderseni
p4707
aVazteca
p4708
aVphaeotis
p4709
aVtolteca
p4710
asVArdops
p4711
(lp4712
Vnichollsi
p4713
assVVespertilionidae
p4714
(dp4715
VPipistrellus
p4716
(lp4717
Vcoromandra
p4718
aVhesperidus
p4719
aVjavanicus
p4720
aVnathusii
p4721
aVtenuis
p4722
asVCorynorhinus
p4723
(lp4724
Vmexicanus
p4725
aVrafinesquii
p4726
aVtownsendii
p4727
asVMiniopterus
p4728
(lp4729
Vschreibersii
p4730
aVaustralis
p4731
aVpusillus
p4732
aVtristis
p4733
asVNyctalus
p4734
(lp4735
Vleisleri
p4736
aVnoctula
p4737
asVHypsugo
p4738
(lp4739
Vsavii
p4740
asVAntrozous
p4741
(lp4742
Vpallidus
p4743
asVMurina
p4744
(lp4745
Vaurata
p4746
aVcyclotis
p4747
aVhuttonii
p4748
asVLasionycteris
p4749
(lp4750
Vnoctivagans
p4751
asVPlecotus
p4752
(lp4753
Vauritus
p4754
asVIdionycteris
p4755
(lp4756
Vphyllotis
p4757
asVKerivoula
p4758
(lp4759
Vpellucida
p4760
asVScotophilus
p4761
(lp4762
Vheathii
p4763
aVkuhlii
p4764
asVEptesicus
p4765
(lp4766
Vandinus
p4767
aVbrasiliensis
p4768
aVdiminutus
p4769
aVfurinalis
p4770
aVfuscus
p4771
asVMyotis
p4772
(lp4773
Valbescens
p4774
aVauriculus
p4775
aVaustroriparius
p4776
aVcalifornicus
p4777
aVchiloensis
p4778
aVciliolabrum
p4779
aVdasycneme
p4780
aVdaubentonii
p4781
aVelegans
p4782
aVemarginatus
p4783
aVevotis
p4784
aVformosus
p4785
aVgrisecens
p4786
aVhorsfieldii
p4787
aVkeenii
p4788
aVsubulatus
p4789
aVlucifugus
p4790
aVmacrotarsus
p4791
aVmuricola
p4792
aVmystacinus
p4793
aVnigricans
p4794
aVriparius
p4795
aVruber
p4796
aVsimus
p4797
aVsodalis
p4798
aVthysanodes
p4799
aVvelifer
p4800
aVvivesi
p4801
aVvolans
p4802
aVyumanensis
p4803
asVPerimyotis
p4804
(lp4805
Vsubflavus
p4806
asVLasiurus
p4807
(lp4808
Vborealis
p4809
aVcinereus
p4810
aVega
p4811
aVintermedius
p4812
aVseminolus
p4813
asVHesperoptenus
p4814
(lp4815
Vtickelli
p4816
asVRhogeessa
p4817
(lp4818
Vtumida
p4819
asVVespertilio
p4820
(lp4821
Vmurinus
p4822
asVNycticeius
p4823
(lp4824
Vhumeralis
p4825
asVPhiletor
p4826
(lp4827
Vbrachypterus
p4828
asVNeoromicia
p4829
(lp4830
Vcapensis
p4831
asVTylonycteris
p4832
(lp4833
Vpachypus
p4834
aVrobustula
p4835
assVHipposideridae
p4836
(dp4837
VCoelops
p4838
(lp4839
Vfrithii
p4840
asVAsellia
p4841
(lp4842
Vtridens
p4843
assVNoctilionidae
p4844
(dp4845
VNoctilio
p4846
(lp4847
Valbiventris
p4848
aVleporinus
p4849
assVMegadermatidae
p4850
(dp4851
VMegaderma
p4852
(lp4853
Vlyra
p4854
assVMolossidae
p4855
(dp4856
VMolossops
p4857
(lp4858
Vtemminckii
p4859
asVCheiromeles
p4860
(lp4861
Vparvidens
p4862
aVtorquatus
p4863
asVChaerephon
p4864
(lp4865
Vjobensis
p4866
aVplicata
p4867
aVansorgei
p4868
aVchapini
p4869
aVnigeriae
p4870
aVpumilus
p4871
asVOtomops
p4872
(lp4873
Vmartiensseni
p4874
asVCynomops
p4875
(lp4876
Vabrasus
p4877
aVparanus
p4878
aVplanirostris
p4879
asVMolossus
p4880
(lp4881
Vmolossus
p4882
aVrufus
p4883
aVsinaloae
p4884
asVMyopterus
p4885
(lp4886
Vdaubentonii
p4887
asVPromops
p4888
(lp4889
Vcentralis
p4890
aVnasutus
p4891
asVNyctinomops
p4892
(lp4893
Vlaticaudatus
p4894
aVmacrotis
p4895
aVaurispinosus
p4896
asVEumops
p4897
(lp4898
Vdabbenei
p4899
aVpatagonicus
p4900
aVperotis
p4901
aVunderwoodi
p4902
aVbonariensis
p4903
aVglaucinus
p4904
asVMormopterus
p4905
(lp4906
Vacetabulosus
p4907
aVbeccarii
p4908
aVplaniceps
p4909
asVTadarida
p4910
(lp4911
Vfulminans
p4912
aVaegyptiaca
p4913
aVbrasiliensis
p4914
aVteniotis
p4915
asVMops
p4916
(lp4917
Vcondylurus
p4918
aVleucostigma
p4919
aVmidas
p4920
aVmops
p4921
assVOnychonycteridae
p4922
(dp4923
VOnychonycteris
p4924
(lp4925
Vfinneyi
p4926
assVNycteridae
p4927
(dp4928
VNycteris
p4929
(lp4930
Varge
p4931
aVgrandis
p4932
aVhispida
p4933
aVjavanica
p4934
aVmacrotis
p4935
aVthebaica
p4936
assVRhinolophidae
p4937
(dp4938
VRhinolophus
p4939
(lp4940
Vaffinis
p4941
aVarcuatus
p4942
aVcornutus
p4943
aVacuminatus
p4944
aVaclyone
p4945
aVblasii
p4946
aVbocharicus
p4947
aVcanuti
p4948
aVcelebensis
p4949
aVclivosus
p4950
aVcreaghi
p4951
aVdarlingi
p4952
aVdeckenii
p4953
aVeuryale
p4954
aVferrumequinum
p4955
aVfumigatus
p4956
aVhildebrandti
p4957
aVhillorum
p4958
aVhipposideros
p4959
aVimaizumii
p4960
aVlanderi
p4961
aVlepidus
p4962
aVluctus
p4963
aVmacrotis
p4964
asVCloeotis
p4965
(lp4966
Vpercivali
p4967
asVAselliscus
p4968
(lp4969
Vtricuspidatus
p4970
aVstoliczkanus
p4971
asVHipposideros
p4972
(lp4973
Varmiger
p4974
aVdiadema
p4975
aVpygmaeus
p4976
aVabae
p4977
aVater
p4978
aVcaffer
p4979
aVcalcaratus
p4980
aVcervinus
p4981
aVcyclops
p4982
aVdyacorum
p4983
aVfuliginosus
p4984
aVgigas
p4985
aVgrandis
p4986
aVlarvatus
p4987
aVlylei
p4988
aVobscurus
p4989
aVpelingensis
p4990
aVpomona
p4991
aVruber
p4992
aVturpis
p4993
asssVLagomorpha
p4994
(dp4995
VLeporidae
p4996
(dp4997
VNekrolagus
p4998
(lp4999
Vprogressus
p5000
asVSylvilagus
p5001
(lp5002
Vfloridanus
p5003
aVaquaticus
p5004
asVPronolagus
p5005
(lp5006
Vsp.
p5007
asVLepus
p5008
(lp5009
Vsp.
p5010
aVbolti
p5011
aVcalifornicus
p5012
asVOryctolagus
p5013
(lp5014
Vcuniculus
p5015
asVPalaeolagus
p5016
(lp5017
Vhaydeni
p5018
assVOchotonidae
p5019
(dp5020
VOchotona
p5021
(lp5022
Vprinceps
p5023
asssVDidelphimorphia
p5024
(dp5025
VDidelphidae
p5026
(dp5027
VCaluromys
p5028
(lp5029
Vsp.
p5030
aVderbianus
p5031
asVChironectes
p5032
(lp5033
Vminimus
p5034
asVMarmosa
p5035
(lp5036
Vderbianus
p5037
aVsp.
p5038
aVmexicana
p5039
aVmurina
p5040
asVThylamys
p5041
(lp5042
Velegans
p5043
aVpallidior
p5044
asVLutreolina
p5045
(lp5046
Vcrassicaudata
p5047
asVMonodelphis
p5048
(lp5049
Vdomestica 
p5050
aVsp.
p5051
asVGracilinanus
p5052
(lp5053
Vmicrotarsus
p5054
aVagilis
p5055
asVMicoureus
p5056
(lp5057
Valstoni
p5058
aVdemerarae
p5059
asVMarmosops
p5060
(lp5061
Vnoctivagus
p5062
aVincanus
p5063
asVPhilander
p5064
(lp5065
Vopossum
p5066
aVandersoni
p5067
aVcanus
p5068
asVDidelphis
p5069
(lp5070
Vmarsupialis
p5071
aVvirginiana
p5072
aVsp.
p5073
assVPeradectidae
p5074
(dp5075
VMimoperadectes
p5076
(lp5077
Vlabrus
p5078
asVPeradectes
p5079
(lp5080
Vprotinnominatus
p5081
assVStagodontidae
p5082
(dp5083
VDidelphodon
p5084
(lp5085
Vvorax
p5086
assVHerpetotheriidae
p5087
(dp5088
VHerpetotherium
p5089
(lp5090
Vinnominatum
p5091
asssVProboscidea
p5092
(dp5093
VMammutidae
p5094
(dp5095
VMammut
p5096
(lp5097
Vamericanum
p5098
assVElephantidae
p5099
(dp5100
VMammuthus
p5101
(lp5102
Vcf. M. hayi
p5103
aVprimigenius
p5104
asVElephas
p5105
(lp5106
Vrecki
p5107
assssVChondrichthyes
p5108
(dp5109
VTorpediniformes
p5110
(dp5111
VNarcinidae
p5112
(dp5113
VDiplobatis
p5114
(lp5115
Vpictus
p5116
asVNarke
p5117
(lp5118
Vdipterygia
p5119
assS'Torpedinidae'
p5120
(dp5121
VNarcine
p5122
(lp5123
Vwestaustraliensis
p5124
asssVMyliobatiformes
p5125
(dp5126
VUrolophidae
p5127
(dp5128
VUrotrygon
p5129
(lp5130
Vnana
p5131
aVrogersi
p5132
aVchilensis
p5133
aVsimulatrix
p5134
aVvenezuelae
p5135
aVaspidura
p5136
asVUrobatis
p5137
(lp5138
Vtumbesensis
p5139
aVhalleri
p5140
asVUrolophus
p5141
(lp5142
Vcruciatus
p5143
assVDasyatidae
p5144
(dp5145
VHimantura
p5146
(lp5147
Vimbricata
p5148
aVwalga
p5149
asVTaeniura
p5150
(lp5151
Vlymma
p5152
asVNeotrygon
p5153
(lp5154
Vkuhlii
p5155
asVDasyatis
p5156
(lp5157
Vakajei
p5158
aVzugei
p5159
aVguttata
p5160
aVamericana
p5161
asssVSqualiformes
p5162
(dp5163
VEtmopteridae
p5164
(dp5165
VEtmopterus
p5166
(lp5167
Vvirens
p5168
asssVPristiformes
p5169
(dp5170
VPristidae
p5171
(dp5172
VPristis
p5173
(lp5174
Vpectinata
p5175
asssVRajiformes
p5176
(dp5177
VPotamotrygonidae
p5178
(dp5179
VPotamotrygon
p5180
(lp5181
Vsp
p5182
asssVLamniformes
p5183
(dp5184
VLamnidae
p5185
(dp5186
VCarcharocles
p5187
(lp5188
Vauriculatus
p5189
aVmegalodon
p5190
asssVCtenacanthiformes
p5191
(dp5192
VCtenacanthidae
p5193
(dp5194
VCarcharopsis
p5195
(lp5196
Vwortheni
p5197
asssVEugeneodontida
p5198
(dp5199
VEdestidae
p5200
(dp5201
VEdestus
p5202
(lp5203
Vheinrichi
p5204
assssVTherapsida
p5205
(dp5206
VCynodontia
p5207
(dp5208
ssS'Aves (and fossil outgroups)'
p5209
(dp5210
VColumbiformes
p5211
(dp5212
VColumbidae
p5213
(dp5214
VColumba
p5215
(lp5216
Vlivia
p5217
asVPtilinopus
p5218
(lp5219
Vsuperbus
p5220
asssVApodiformes
p5221
(dp5222
VTrochilidae
p5223
(dp5224
VSelasphorus
p5225
(lp5226
Vrufus
p5227
asVPhaethornis
p5228
(lp5229
Vsuperciliosus
p5230
asVEutoxeres
p5231
(lp5232
Vcondamini
p5233
assVApodidae
p5234
(dp5235
VApus
p5236
(lp5237
Vapus
p5238
asssVFalconiformes
p5239
(dp5240
VFalconidae
p5241
(dp5242
VFalco
p5243
(lp5244
Vperegrinus
p5245
aVcenchroides
p5246
aVsubbuteo
p5247
aVtinnunculus
p5248
asssVPasseriformes
p5249
(dp5250
VCorvidae
p5251
(dp5252
VCorvus
p5253
(lp5254
Vcorax
p5255
assVMuscicapidae
p5256
(dp5257
VLuscinia
p5258
(lp5259
Vmegarhynchos
p5260
assVDicruridae
p5261
(dp5262
VDicrurus
p5263
(lp5264
Vparadiseus
p5265
assVEstrildidae
p5266
(dp5267
VTaeniopygia
p5268
(lp5269
Vguttata
p5270
assVPasseridae
p5271
(dp5272
VPasser
p5273
(lp5274
Vdomesticus
p5275
assVMeliphagidae
p5276
(dp5277
VAcanthorhynchus
p5278
(lp5279
Vsuperciliosus
p5280
assVParulidae
p5281
(dp5282
VSeiurus
p5283
(lp5284
Vaurocapilla
p5285
asssVCiconiiformes
p5286
(dp5287
VCiconiidae
p5288
(dp5289
VCiconia
p5290
(lp5291
Vciconia
p5292
aVnigra
p5293
asssVCasuariiformes
p5294
(dp5295
VCasuariidae
p5296
(dp5297
VCasuarius
p5298
(lp5299
VCasuarius
p5300
aVunappendiculatus
p5301
asssVGaviiformes
p5302
(dp5303
VGaviidae
p5304
(dp5305
VGavia
p5306
(lp5307
Vimmer
p5308
asssS'Apterygiformes'
p5309
(dp5310
S'Apterygidae'
p5311
(dp5312
VApteryx
p5313
(lp5314
Vhaastii
p5315
asssVStrigiformes
p5316
(dp5317
VStrigidae
p5318
(dp5319
VAthene
p5320
(lp5321
Vcunicularia
p5322
asssVGruiformes
p5323
(dp5324
VGruidae
p5325
(dp5326
VGrus
p5327
(lp5328
Vgrus
p5329
asssVPhoenicopteriformes
p5330
(dp5331
VPhoenicopteridae
p5332
(dp5333
VPhoenicopterus
p5334
(lp5335
Vruber
p5336
asssVCharadriiformes
p5337
(dp5338
VCharadriidae
p5339
(dp5340
VVanellus
p5341
(lp5342
Vmiles
p5343
assVScolopacidae
p5344
(dp5345
VScolopax
p5346
(lp5347
Vrusticola
p5348
asVArenaria
p5349
(lp5350
Vmelanocephala
p5351
asVActitis
p5352
(lp5353
Vhypoleucos
p5354
assVAlcidae
p5355
(dp5356
VUria
p5357
(lp5358
Vlomvia
p5359
asVAlca
p5360
(lp5361
Vtorda
p5362
assVLaridae
p5363
(dp5364
VLarus
p5365
(lp5366
Vphiladelphia
p5367
aVargentatus
p5368
asVSterna
p5369
(lp5370
Vhirundo
p5371
asVCreagrus
p5372
(lp5373
Vfurcatus
p5374
asVGelochelidon
p5375
(lp5376
Vnilotica
p5377
asVChroicocephalus
p5378
(lp5379
Vphiladelphia
p5380
assVHaematopodidae
p5381
(dp5382
VHaematopus
p5383
(lp5384
Vostralegus
p5385
asssVPelecaniformes
p5386
(dp5387
VArdeidae
p5388
(dp5389
VArdea
p5390
(lp5391
Vcinerea
p5392
assVBalaenicipitidae
p5393
(dp5394
VBalaeniceps
p5395
(lp5396
Vrex
p5397
assVPhalacrocoracidae
p5398
(dp5399
VPhalacrocorax
p5400
(lp5401
Vharrisi
p5402
aVcarbo
p5403
asssS'Anseriformes (plus fossil outgroups)'
p5404
(dp5405
V
(dp5406
VVegavis
p5407
(lp5408
Viaai
p5409
assVAnhimidae
p5410
(dp5411
VChauna
p5412
(lp5413
Vtorquata 
p5414
assVAnatidae
p5415
(dp5416
VAix
p5417
(lp5418
Vsponsa
p5419
asVAythya
p5420
(lp5421
Vfuligula
p5422
asVOxyura
p5423
(lp5424
Vjamaicensis
p5425
asVCairina
p5426
(lp5427
V moschata
p5428
asVChen
p5429
(lp5430
Vcaerulescens
p5431
asVTachyeres
p5432
(lp5433
Vbrachypterus
p5434
asVAnas
p5435
(lp5436
Vdiscors
p5437
aVacuta
p5438
aVcrecca
p5439
assVAnseranatidae
p5440
(dp5441
VAnseranas
p5442
(lp5443
Vsemipalmata
p5444
assVPresbyornithidae
p5445
(dp5446
VPresbyornis
p5447
(lp5448
Vsp
p5449
asssVAccipitriformes
p5450
(dp5451
VPandionidae
p5452
(dp5453
VPandion
p5454
(lp5455
Vhaliaetus
p5456
assVSagittariidae
p5457
(dp5458
VSagittarius
p5459
(lp5460
Vserpentarius
p5461
assS'Accipitridae'
p5462
(dp5463
VAquila
p5464
(lp5465
Vchrysaetos
p5466
asVButeo
p5467
(lp5468
Vbuteo
p5469
assVCathartidae
p5470
(dp5471
VVultur
p5472
(lp5473
Vgryphus
p5474
asssVSphenisciformes
p5475
(dp5476
VSpheniscidae
p5477
(dp5478
VSpheniscus
p5479
(lp5480
Vmagellanicus
p5481
asssVCoraciiformes
p5482
(dp5483
VAlcedinidae
p5484
(dp5485
VAlcedo
p5486
(lp5487
Vatthis
p5488
asVDacelo
p5489
(lp5490
Vnovaeguineae
p5491
assVCoraciidae
p5492
(dp5493
VCoracias
p5494
(lp5495
Vgarrulus
p5496
asssVCuculiformes
p5497
(dp5498
S'Cuculidae'
p5499
(dp5500
VCuculus
p5501
(lp5502
Vcanorus
p5503
assVCoccyzidae
p5504
(dp5505
VCoccyzus
p5506
(lp5507
Verythopthalmus
p5508
aVCoccyzus erythropthalmus
p5509
asssVTinamiformes
p5510
(dp5511
VTinamidae
p5512
(dp5513
VRhynchotus
p5514
(lp5515
Vrufescens
p5516
asVNothoprocta
p5517
(lp5518
Vperdicaria
p5519
asssVPodicipediformes
p5520
(dp5521
VPodicipedidae
p5522
(dp5523
VPodilymbus
p5524
(lp5525
Vpodiceps
p5526
asVPodiceps
p5527
(lp5528
Vnigricollis
p5529
aVcristatus
p5530
asssS'Fossil outgroups'
p5531
(dp5532
VHadrosauridae
p5533
(dp5534
VEdmontosaurus
p5535
(lp5536
Vannectens
p5537
asVTelmatosaurus
p5538
(lp5539
Vtranssylvanicus
p5540
assS'Ankylosauridae'
p5541
(dp5542
VAnkylosaurus
p5543
(lp5544
Vmagniventris
p5545
assS'Megalosauridae'
p5546
(dp5547
VMegalosaurus
p5548
(lp5549
Vbucklandii
p5550
asVEustreptospondylus
p5551
(lp5552
Voxoniensis
p5553
assVPachycephalosauridae
p5554
(dp5555
VStegoceras
p5556
(lp5557
Vvalidum
p5558
assVGrallatoridae
p5559
(dp5560
VGrallator
p5561
(lp5562
Vsp.
p5563
assS'Massospondylidae'
p5564
(dp5565
S'Massospondylus'
p5566
(lp5567
Vcarinatus
p5568
asssVPiciformes
p5569
(dp5570
VRamphastidae
p5571
(dp5572
VRamphastos
p5573
(lp5574
Vdicolorus
p5575
assVPicidae
p5576
(dp5577
VDendrocopos
p5578
(lp5579
Vmajor
p5580
asVSphyrapicus
p5581
(lp5582
Vvarius
p5583
asssVCaprimulgiformes
p5584
(dp5585
S'Podargidae'
p5586
(dp5587
VPodargus
p5588
(lp5589
Vstrigoides
p5590
assVCaprimulgidae
p5591
(dp5592
VNyctidromus
p5593
(lp5594
Valbicollis
p5595
asVCaprimulgus
p5596
(lp5597
Veuropaeus
p5598
assS'Steatornithidae'
p5599
(dp5600
VSteatornis
p5601
(lp5602
Vcaripensis
p5603
asssVOpisthocomiformes
p5604
(dp5605
VOpisthocomidae
p5606
(dp5607
VOpisthocomus
p5608
(lp5609
Vhoazin
p5610
asssVPteroclidiformes
p5611
(dp5612
VPteroclididae
p5613
(dp5614
VPterocles
p5615
(lp5616
Vquadricinctus
p5617
asssVProcellariiformes
p5618
(dp5619
VDiomedeidae
p5620
(dp5621
VDiomedea
p5622
(lp5623
Vexulans
p5624
asVPhoebastria
p5625
(lp5626
Vnigripes 
p5627
assVProcellariidae
p5628
(dp5629
VFulmarus
p5630
(lp5631
Vglacialis 
p5632
assVHydrobatidae
p5633
(dp5634
VPelagodroma
p5635
(lp5636
Vmarina
p5637
asssVTrogoniformes
p5638
(dp5639
VTrogonidae
p5640
(dp5641
VTrogon
p5642
(lp5643
Vcurucui
p5644
asssVGalliformes
p5645
(dp5646
VPhasianidae
p5647
(dp5648
VAlectoris
p5649
(lp5650
Vrufa
p5651
asVFalcipennis
p5652
(lp5653
Vcanadensis
p5654
asVPhasianus
p5655
(lp5656
Vcolchicus
p5657
asVDendragapus
p5658
(lp5659
Vobscurus
p5660
asVGallus
p5661
(lp5662
Vgallus
p5663
asVCoturnix
p5664
(lp5665
Vcoturnix
p5666
asVMeleagris
p5667
(lp5668
Vgallopavo
p5669
assVCracidae
p5670
(dp5671
VOrtalis
p5672
(lp5673
Vvetula 
p5674
asssVPsittaciformes
p5675
(dp5676
VPsittacidae
p5677
(dp5678
VTrichoglossus
p5679
(lp5680
Vhaematodus
p5681
asVAra
p5682
(lp5683
Vmacao
p5684
asVMelopsittacus
p5685
(lp5686
Vundulatus
p5687
asVAmazona
p5688
(lp5689
Vviridigenalis
p5690
asVNestor
p5691
(lp5692
Vnotabilis
p5693
asVPsittacus
p5694
(lp5695
Verithacus
p5696
asssVPhaethontiformes
p5697
(dp5698
VPhaethontidae
p5699
(dp5700
VPhaethon
p5701
(lp5702
Vlepturus
p5703
asssVStruthioniformes
p5704
(dp5705
VStruthionidae
p5706
(dp5707
VStruthio
p5708
(lp5709
Vcamelus
p5710
asssVSuliformes
p5711
(dp5712
VFregatidae
p5713
(dp5714
VFregata
p5715
(lp5716
Vmagnificens
p5717
assVSulidae
p5718
(dp5719
VSula
p5720
(lp5721
Vdactylatra
p5722
asssVCariamiformes
p5723
(dp5724
VPhorusrhacidae
p5725
(dp5726
VTitanis
p5727
(lp5728
Vwalleri
p5729
assssS'Myxini'
p5730
(dp5731
VMyxiniformes
p5732
(dp5733
VMyxinidae
p5734
(dp5735
VEptatretus
p5736
(lp5737
Vlopheliae
p5738
assssVReptilia
p5739
(dp5740
V
(dp5741
sVTestudinata
p5742
(dp5743
sS'Younginiformes'
p5744
(dp5745
VGoniopholididae
p5746
(dp5747
VDakotasuchus
p5748
(lp5749
Vkingi
p5750
assV
(dp5751
VOrovenator
p5752
(lp5753
Vmayorum
p5754
asVTriopticus
p5755
(lp5756
Vprimus
p5757
asssVSquamata
p5758
(dp5759
VElapidae
p5760
(dp5761
VDendroaspis
p5762
(lp5763
Vjamesoni
p5764
aVangusticeps
p5765
asVMicrurus
p5766
(lp5767
Vnigrocinctus
p5768
asVNaja
p5769
(lp5770
Vmossambica
p5771
aVnigricollis
p5772
assVUropeltidae
p5773
(dp5774
VUropeltis
p5775
(lp5776
Vmelanogaster
p5777
asVPlectrurus
p5778
(lp5779
Vperroteti
p5780
assVAgamidae
p5781
(dp5782
VBronchocela
p5783
(lp5784
Vcristatella
p5785
asVDraco
p5786
(lp5787
Vblanfordii
p5788
aVdussumieri
p5789
aVmaculatus
p5790
aVmelanopogon
p5791
aVspilopterus
p5792
asVCeratophora
p5793
(lp5794
Vstoddartii
p5795
asVDiporiphora
p5796
(lp5797
Vwinneckei
p5798
asVUromastyx
p5799
(lp5800
Vsp.
p5801
asVCalotes
p5802
(lp5803
Vmystaceus
p5804
asVJapalura
p5805
(lp5806
Vpolygonata
p5807
asVLyriocephalus
p5808
(lp5809
Vscutatus
p5810
asVIntellagama
p5811
(lp5812
Vlesueurii
p5813
asVAgama
p5814
(lp5815
Vplaniceps
p5816
asVSitana
p5817
(lp5818
Vponticeriana
p5819
assVEublepharidae
p5820
(dp5821
VGoniurosaurus
p5822
(lp5823
Vlichtenfelderi
p5824
asVHemitheconyx
p5825
(lp5826
Vcaudicinctus
p5827
assVAcrochordidae
p5828
(dp5829
VAcrochordus
p5830
(lp5831
Vgranulatus
p5832
assVTyphlopidae
p5833
(dp5834
VAnilios
p5835
(lp5836
Vgrypus
p5837
aVleptosoma
p5838
aVaustralis
p5839
aVsp.
p5840
assVTeiidae
p5841
(dp5842
VDracaena
p5843
(lp5844
Vguianensis
p5845
asVKentropyx
p5846
(lp5847
Vpelviceps
p5848
asVTeius
p5849
(lp5850
Vteyou
p5851
asVTupinambis
p5852
(lp5853
Vrufescens
p5854
asVDicrodon
p5855
(lp5856
Vguttulatum
p5857
asVCnemidophorus
p5858
(lp5859
Vmurinus
p5860
assVPhrynosomatidae
p5861
(dp5862
VSceloporus
p5863
(lp5864
Vmagister
p5865
asVUma
p5866
(lp5867
Vscoparia
p5868
assVDibamidae
p5869
(dp5870
VDibamus
p5871
(lp5872
Vbogadeki
p5873
assVLacertidae
p5874
(dp5875
VAcanthodactylus
p5876
(lp5877
Verythrurus
p5878
asVTakydromus
p5879
(lp5880
Vsexlineatus
p5881
assVDiplodactylidae
p5882
(dp5883
VBavayia
p5884
(lp5885
Vrobusta
p5886
asVCorrelophus
p5887
(lp5888
Vciliatus
p5889
asVOedodera
p5890
(lp5891
Vmarmorata
p5892
asVCrenadactylus
p5893
(lp5894
Vocellatus
p5895
assVIguanidae
p5896
(dp5897
VGambelia
p5898
(lp5899
Vsila
p5900
asVBrachylophus
p5901
(lp5902
Vvitiensis
p5903
asVConolophus
p5904
(lp5905
Vsubcristatus
p5906
asVCtenosaura
p5907
(lp5908
Vhemilopha
p5909
asVAnolis
p5910
(lp5911
Vcristitellus
p5912
aVcarolinensis
p5913
aVporcatus
p5914
asVCrotaphytus
p5915
(lp5916
Vbicinctores
p5917
aVcollaris
p5918
asVCyclura
p5919
(lp5920
Vcornuta
p5921
aVpinguis
p5922
asVBasiliscus
p5923
(lp5924
Vbasiliscus
p5925
aVvittatus
p5926
aVplumifrons
p5927
asVMicrolophus
p5928
(lp5929
Vperuvianus
p5930
asVSauromalus
p5931
(lp5932
Vater
p5933
aVobesus
p5934
asVPlica
p5935
(lp5936
Vumbra
p5937
asVPhymaturus
p5938
(lp5939
Vpalluma
p5940
asVLeiocephalus
p5941
(lp5942
Vinaguae
p5943
asVAmblyrhynchus
p5944
(lp5945
Vcristatus
p5946
asVIguana
p5947
(lp5948
Viguana
p5949
assVXenosauridae
p5950
(dp5951
VXenosaurus
p5952
(lp5953
Vrectocollaris
p5954
asVShinisaurus
p5955
(lp5956
Vcrocodilurus
p5957
assVDipsadidae
p5958
(dp5959
VCubophis
p5960
(lp5961
Vcantherigerus
p5962
aVvudii
p5963
asVOxyrhopus
p5964
(lp5965
Vguibei
p5966
asVOmoadiphas
p5967
(lp5968
Vaurula
p5969
assVHelodermatidae
p5970
(dp5971
VHeloderma
p5972
(lp5973
Vsuspectum
p5974
aVhorridum
p5975
assVMosasauridae
p5976
(dp5977
VPlatecarpus
p5978
(lp5979
Vtympaniticus
p5980
assVLanthanotidae
p5981
(dp5982
VLanthanotus
p5983
(lp5984
Vborneensis
p5985
assVCarphodactylidae
p5986
(dp5987
VNephrurus
p5988
(lp5989
Vasper
p5990
asVPhyllurus
p5991
(lp5992
Vplaturus
p5993
assVCorytophanidae
p5994
(dp5995
VLaemanctus
p5996
(lp5997
Vlongipes
p5998
asVCorytophanes
p5999
(lp6000
Vpercarinatus
p6001
assVGekkonidae
p6002
(dp6003
VDixonius
p6004
(lp6005
Vsiamensis
p6006
asVGeckolepis
p6007
(lp6008
Vhumbloti
p6009
aVmaculata
p6010
aVmegalepis
p6011
asVChondrodactylus
p6012
(lp6013
Vangulifer
p6014
asVGekko
p6015
(lp6016
Vgecko
p6017
aVsmithii
p6018
asVStenodactylus
p6019
(lp6020
Varabicus
p6021
asVTropiocolotes
p6022
(lp6023
Vtripolitanus
p6024
asVUnknown
p6025
(lp6026
Vsp.
p6027
asVCyrtodactylus
p6028
(lp6029
Vfraenatus
p6030
asVUroplatus
p6031
(lp6032
Vebenaui
p6033
aVphantasticus
p6034
aVfimbriatus
p6035
asVPachydactylus
p6036
(lp6037
V
aVscutatus
p6038
asVPristurus
p6039
(lp6040
Vcrucifer
p6041
asVHemidactylus
p6042
(lp6043
Vturcicus
p6044
aVlavadeserticus
p6045
asVTeratoscincus
p6046
(lp6047
Vprzewalskii 
p6048
asVRhoptropus
p6049
(lp6050
V
aVbarnardi
p6051
aVboltoni
p6052
asVCyrtopodion
p6053
(lp6054
Vheterocercus
p6055
assVScincidae
p6056
(dp6057
VTrachylepis
p6058
(lp6059
Vlaevis
p6060
aVsulcata
p6061
aVgonwouoi
p6062
aVacutilabrus
p6063
asVTiliqua
p6064
(lp6065
Vrugosa
p6066
asVAcontias
p6067
(lp6068
Vmeleagris
p6069
asVLerista
p6070
(lp6071
Vbipes
p6072
asVCorucia
p6073
(lp6074
Vzebrata
p6075
asVEgernia
p6076
(lp6077
Vstokesii
p6078
aVstriolata
p6079
aVwhitii
p6080
aVcunninghami
p6081
assVColubridae
p6082
(dp6083
VGyalopion
p6084
(lp6085
Vcanum
p6086
asVTrimorphodon
p6087
(lp6088
Vvilkinsonii
p6089
asVConopsis
p6090
(lp6091
Vbiserialis
p6092
asVLeptophis
p6093
(lp6094
Vdepressirostris
p6095
aVahaetulla
p6096
aVdiplotropis
p6097
aVmexicanus
p6098
asVXenopholis
p6099
(lp6100
Vscalaris
p6101
asVHeterodon
p6102
(lp6103
Vplatirhinos
p6104
asVHypsiglena
p6105
(lp6106
Vaffinis
p6107
asVClelia
p6108
(lp6109
Vclelia
p6110
asVErpeton
p6111
(lp6112
Vtentaculatum
p6113
asVThelotornis
p6114
(lp6115
Vkirtlandii
p6116
asVProsymna
p6117
(lp6118
Vambigua
p6119
aVstuhlmanni 
p6120
aVbivitata
p6121
aVruspoli
p6122
aVsundevalli
p6123
aVvisseri
p6124
aVlineata
p6125
asVOxybelis
p6126
(lp6127
Vaeneus
p6128
aVargenteus
p6129
asVLiophidium
p6130
(lp6131
Vapperti
p6132
aVrhodogaster
p6133
aVtorquatum
p6134
asVDrymobius
p6135
(lp6136
Vchloroticus
p6137
asVLamprophis
p6138
(lp6139
Vfuliginosus
p6140
asVTaeniophallus
p6141
(lp6142
Voccipitalis
p6143
asVDasypeltis
p6144
(lp6145
Vscabra
p6146
asVSpilotes
p6147
(lp6148
Vpullatus
p6149
asVOrthriophis
p6150
(lp6151
Vtaeniurus
p6152
asVImantodes
p6153
(lp6154
Vcenchoa
p6155
asVSibon
p6156
(lp6157
Vdimidiatus
p6158
asVAhaetulla
p6159
(lp6160
Vnasuta
p6161
asVDromicodryas
p6162
(lp6163
Vquadrilineatus
p6164
asVFicimia
p6165
(lp6166
Vpublia
p6167
asVPsomophis
p6168
(lp6169
Vgenimaculatus
p6170
asVLampropeltis
p6171
(lp6172
Vpyromelana
p6173
asVTantilla
p6174
(lp6175
Vvermiformis
p6176
aVschistosa
p6177
aVcucullata
p6178
aVrelicta
p6179
aVmoesta
p6180
aVhobartsmithi
p6181
aVgracilis
p6182
aVcoronata
p6183
aVbocourti
p6184
aVatriceps
p6185
aVcalamarina
p6186
aVnigriceps
p6187
aVwilcoxi
p6188
asVDispholidus
p6189
(lp6190
Vtypus
p6191
asVMasticophis
p6192
(lp6193
Vflagellum
p6194
aVlateralis
p6195
aVbilineatus
p6196
asVMastigodryas
p6197
(lp6198
Vmelanolomus
p6199
asVPsammodynastes
p6200
(lp6201
Vpulverulentus
p6202
asVLeioheterodon
p6203
(lp6204
Vgeayi
p6205
aVmodestus
p6206
asVIthycyphus
p6207
(lp6208
Voursi
p6209
asVElaphe
p6210
(lp6211
Vvulpina
p6212
aVobsoleta
p6213
aVtriaspis
p6214
aVradiata
p6215
asVDipsas
p6216
(lp6217
Vcatesbyi
p6218
asVDrymarchon
p6219
(lp6220
Vmelanurus
p6221
aVcorais
p6222
asVAparallactus
p6223
(lp6224
Vcapensis 
p6225
aVlineatus
p6226
asVAmblyodipsas
p6227
(lp6228
Vpolylepis
p6229
assVVaranidae
p6230
(dp6231
VVaranus
p6232
(lp6233
Volivaceus
p6234
aVniloticus
p6235
aVrudicollis
p6236
aVvarius
p6237
aVprasinus
p6238
assS'Lamprophiidae'
p6239
(dp6240
VSibynophis
p6241
(lp6242
Vcollaris
p6243
asVAparallactus
p6244
(lp6245
Vniger
p6246
aVmodestus
p6247
assVSphaerodactylidae
p6248
(dp6249
VLepidoblepharis
p6250
(lp6251
Vsanctaemartae
p6252
asVPseudogonatodes
p6253
(lp6254
Vbarbouri
p6255
asVSphaerodactylus
p6256
(lp6257
Vcaicosensis
p6258
asVSaurodactylus
p6259
(lp6260
Vmauritanicus
p6261
assVChamaeleonidae
p6262
(dp6263
VKinyongia
p6264
(lp6265
Vtavetana
p6266
aVtenue
p6267
aVtenuis
p6268
aVmatschiei
p6269
asVChamaeleo
p6270
(lp6271
Vzeylanicus
p6272
aVafricanus
p6273
aVcalcaricarens
p6274
aVnamaquensis
p6275
asVTrioceros
p6276
(lp6277
Vfeae
p6278
aVrudis
p6279
aVsternfeldi
p6280
aVserratus
p6281
asVFurcifer
p6282
(lp6283
Voustaleti
p6284
aVbifidus
p6285
aVbalteatus
p6286
aVrhinoceratus
p6287
asVCalumma
p6288
(lp6289
Vparsonii
p6290
aVtigris
p6291
asVRieppeleon
p6292
(lp6293
Vbrevicaudatus
p6294
asVBradypodion
p6295
(lp6296
Vpumilum
p6297
aVdracomontanum
p6298
aVsetaroi
p6299
aVoccidentale
p6300
aVgutturale
p6301
aVventrale
p6302
asVRhampholeon
p6303
(lp6304
Vbrevicaudatus
p6305
asVBrookesia
p6306
(lp6307
Vsuperciliaris
p6308
aVperarmata
p6309
assVPhyllodactylidae
p6310
(dp6311
VThecadactylus
p6312
(lp6313
Vrapicauda
p6314
asVTarentola
p6315
(lp6316
Vmauritanica 
p6317
assVBoidae
p6318
(dp6319
VTitanoboa
p6320
(lp6321
Vcerrejonensis
p6322
asVBoa
p6323
(lp6324
Vconstrictor
p6325
asVEunectes
p6326
(lp6327
Vmurinus
p6328
assVViperidae
p6329
(dp6330
VAtheris
p6331
(lp6332
Vceratophora
p6333
asVGloydius
p6334
(lp6335
Vussuriensis
p6336
asVCrotalus
p6337
(lp6338
Vdurissus
p6339
aVviridis
p6340
asVLachesis
p6341
(lp6342
Vstenophrys
p6343
asVAgkistrodon
p6344
(lp6345
Vcaliginosus
p6346
asVBothrops
p6347
(lp6348
Vsp
p6349
aVatrox
p6350
aVmoojeni
p6351
aVasper
p6352
asVAzemiops
p6353
(lp6354
Vfeae
p6355
asVCerastes
p6356
(lp6357
Vcerastes
p6358
assVAtractaspidae
p6359
(dp6360
VAtractaspis
p6361
(lp6362
Vbibroni
p6363
aVaterrima
p6364
aVbibronii
p6365
assVGerrhosauridae
p6366
(dp6367
VGerrhosaurus
p6368
(lp6369
Vmajor
p6370
aVvalidus
p6371
assVRhineuridae
p6372
(dp6373
VRhineura
p6374
(lp6375
Vfloridana
p6376
assVCordylidae
p6377
(dp6378
VSmaug
p6379
(lp6380
Vgiganteus
p6381
aVwarreni
p6382
aVdepressus
p6383
aVbarbertonensis
p6384
asVPlatysaurus
p6385
(lp6386
Vguttatus
p6387
asVCordylus
p6388
(lp6389
Vmarunguensis
p6390
aVangolensis
p6391
aVnamakuiyus
p6392
aVcordylus
p6393
assVAnguidae
p6394
(dp6395
VElgaria
p6396
(lp6397
Vcoerulea
p6398
aVpanamintina
p6399
aVmulticarinata
p6400
assVAtractaspididae
p6401
(dp6402
VHomoroselaps
p6403
(lp6404
Vlacteus
p6405
asVMacrelaps
p6406
(lp6407
Vmicrolepidotus
p6408
asVXenocalamus
p6409
(lp6410
Vbicolor
p6411
asVPolemon
p6412
(lp6413
Vchristyi
p6414
asssVCrocodylia
p6415
(dp6416
VCrocodylidae
p6417
(dp6418
VCrocodylus
p6419
(lp6420
Vjohnsoni
p6421
aVsiamensis
p6422
aVmindorensis
p6423
assVGavialidae
p6424
(dp6425
VTomistoma
p6426
(lp6427
Vschlegelii
p6428
asVGavialis
p6429
(lp6430
Vgangeticus
p6431
assVAlligatoridae
p6432
(dp6433
VAlligator
p6434
(lp6435
Vmississippiensis
p6436
asVPaleosuchus
p6437
(lp6438
Vtrigonatus
p6439
asssS'Phytosauria'
p6440
(dp6441
S'Parasuchidae'
p6442
(dp6443
VWannia
p6444
(lp6445
Vscurriensis
p6446
asssVProsauropoda
p6447
(dp6448
V
(dp6449
ssVSauria
p6450
(dp6451
sS'Testudines (and fossil outgroups)'
p6452
(dp6453
VKinosternidae
p6454
(dp6455
VKinosternon
p6456
(lp6457
Vhirtipes
p6458
aVintegrum
p6459
assS'Pelomedusidae'
p6460
(dp6461
VPelomedusa
p6462
(lp6463
Vsubrufa
p6464
assVChelidae
p6465
(dp6466
VPhrynops
p6467
(lp6468
Vhilarii
p6469
assVGeoemydidae
p6470
(dp6471
VMelanochelys
p6472
(lp6473
Vtrijuga
p6474
asVCuora
p6475
(lp6476
Vflavomarginata
p6477
aVamboinensis
p6478
assVChelydridae
p6479
(dp6480
VMacrochelys
p6481
(lp6482
Vtemminckii
p6483
asVChelydra
p6484
(lp6485
Vserpentina
p6486
assVEmydidae
p6487
(dp6488
VTrachemys
p6489
(lp6490
Vinflata
p6491
asssVRhynchocephalia
p6492
(dp6493
VSphenodontidae
p6494
(dp6495
VSphenodon
p6496
(lp6497
Vpunctatus
p6498
assssVAmphibia
p6499
(dp6500
VAnura
p6501
(dp6502
VSooglossidae
p6503
(dp6504
VSooglossus
p6505
(lp6506
Vsechellensis
p6507
assVHyperolidae
p6508
(dp6509
VCallixalus
p6510
(lp6511
Vpictus
p6512
assVBrachycephalidae
p6513
(dp6514
VBrachycephalus
p6515
(lp6516
Vephippium
p6517
aVsp
p6518
aVnodoterga
p6519
aValbolineatus
p6520
aVcoloratus
p6521
aVcurupira
p6522
asVIschnocnema
p6523
(lp6524
Vgualteri
p6525
aVguentheri
p6526
assVRhinophrynidae
p6527
(dp6528
VRhinophrynus
p6529
(lp6530
Vdorsalis
p6531
assVRhinodermatidae
p6532
(dp6533
VRhinoderma
p6534
(lp6535
Vdarwinii
p6536
assVAromobatidae
p6537
(dp6538
VAromobates
p6539
(lp6540
Vmayorgai
p6541
assVCalyptocephalellidae
p6542
(dp6543
VCalyptocephalella
p6544
(lp6545
Vgayi
p6546
assVConrauidae
p6547
(dp6548
VConraua
p6549
(lp6550
Vcrassipes
p6551
aVgoliath
p6552
assVLeptodactylidae
p6553
(dp6554
VAdenomera
p6555
(lp6556
Vandreae
p6557
asVLeptodactylus
p6558
(lp6559
Vvalidus
p6560
assV
(dp6561
sVCentrolenidae
p6562
(dp6563
VHyalinobatrachium
p6564
(lp6565
Vfleischmanni
p6566
asVCentrolene
p6567
(lp6568
Vbuckleyi
p6569
asVCochranella
p6570
(lp6571
Vgranulosa
p6572
assVPetropedetidae
p6573
(dp6574
VPetropedetes
p6575
(lp6576
Vsp
p6577
aVpalmipes
p6578
aVcf. vulpiae
p6579
assVOdontophrynidae
p6580
(dp6581
VOdontophrynus
p6582
(lp6583
Vamericanus
p6584
asVMacrogenioglottus
p6585
(lp6586
Valipioi
p6587
asVProceratophrys
p6588
(lp6589
Vboiei
p6590
assVAllophrynidae
p6591
(dp6592
VAllophryne
p6593
(lp6594
Vruthveni
p6595
assVBrevicipitidae
p6596
(dp6597
S'Balebreviceps'
p6598
(lp6599
Vhillmani
p6600
asVSpelaeophryne
p6601
(lp6602
Vmethneri
p6603
asVBreviceps
p6604
(lp6605
Vpoweri
p6606
asS'Callulina'
p6607
(lp6608
Vkisiwamsitu
p6609
asVProbreviceps
p6610
(lp6611
Vmacrodactylus
p6612
assVHyperoliidae
p6613
(dp6614
VAfrixalus
p6615
(lp6616
Vorophilus
p6617
asVAcanthixalus
p6618
(lp6619
Vspinosus
p6620
asVChrysobatrachus
p6621
(lp6622
Vcupreonitens
p6623
asVKassina
p6624
(lp6625
Vsenegalensis
p6626
assVMyobatrachidae
p6627
(dp6628
VLechriodus
p6629
(lp6630
Vmelanopyga
p6631
asVNeobatrachus
p6632
(lp6633
Vpictus
p6634
assVLeiopelmatidae
p6635
(dp6636
VAscaphus
p6637
(lp6638
Vtruei
p6639
aVmontanus
p6640
asVLeiopelma
p6641
(lp6642
Vhamiltoni
p6643
assVMegophryidae
p6644
(dp6645
VLeptolalax
p6646
(lp6647
Vaereus
p6648
asVOphryophryne
p6649
(lp6650
Vpachyproctus
p6651
asS'Leptobrachium'
p6652
(lp6653
Vhasseltii
p6654
asVBrachytarsophrys
p6655
(lp6656
Vcarinensis
p6657
asVXenophrys
p6658
(lp6659
Vmajor
p6660
assVCycloramphidae
p6661
(dp6662
VThoropa
p6663
(lp6664
Vtaophora
p6665
asVCycloramphus
p6666
(lp6667
Vasper
p6668
asVZachaenus
p6669
(lp6670
Vparvulus
p6671
assVCeratophryidae
p6672
(dp6673
S'Beelzebufo'
p6674
(lp6675
Vampinga
p6676
asVLepidobatrachus
p6677
(lp6678
Vlaevis
p6679
asVCeratophrys
p6680
(lp6681
Vaurita
p6682
asS'Telmatobius'
p6683
(lp6684
Vthompsoni
p6685
asS'Chacophrys'
p6686
(lp6687
Vpierottii
p6688
asS'Atelognathus'
p6689
(lp6690
Vpatagonicus
p6691
assVAlytidae
p6692
(dp6693
VAlytes
p6694
(lp6695
Vobstetricans
p6696
asVDiscoglossus
p6697
(lp6698
Vpictus
p6699
aVsardus
p6700
assVDicroglossidae
p6701
(dp6702
VLimnonectes
p6703
(lp6704
Vmacrocephalus
p6705
aVblythii
p6706
asVQuasipaa
p6707
(lp6708
Vboulengeri
p6709
asVHoplobatrachus
p6710
(lp6711
Voccipitalis
p6712
assVScaphiopodidae
p6713
(dp6714
S'Scaphiopus'
p6715
(lp6716
Vholbrookii
p6717
asVSpea
p6718
(lp6719
Vmultiplicata
p6720
assVPyxicephalidae
p6721
(dp6722
VNothophryne
p6723
(lp6724
Vbroadleyi
p6725
asVAnhydrophryne
p6726
(lp6727
Vrattrayi
p6728
asVPyxicephalus
p6729
(lp6730
Vadspersus
p6731
asVMicrobatrachella
p6732
(lp6733
Vcapensis
p6734
asVPoyntonia
p6735
(lp6736
Vpaludicola
p6737
asS'Natalobatrachus'
p6738
(lp6739
Vbonebergi
p6740
assVPtychadenidae
p6741
(dp6742
VHildebrandtia
p6743
(lp6744
Vornata
p6745
assVHylodidae
p6746
(dp6747
VHylodes
p6748
(lp6749
Vasper
p6750
asVCrossodactylus
p6751
(lp6752
Vgaudichaudii
p6753
assVArthroleptidae
p6754
(dp6755
VCardioglossa
p6756
(lp6757
Vcyaneospila
p6758
asVLeptopelis
p6759
(lp6760
Vnotatus
p6761
asVLeptodactylodon
p6762
(lp6763
Vovatus
p6764
asVTrichobatrachus
p6765
(lp6766
Vrobustus
p6767
asVArthroleptis
p6768
(lp6769
Vbioko
p6770
aVtanneri
p6771
aVbivittatus
p6772
aVlonnbergi
p6773
asVAstylosternus
p6774
(lp6775
Vdiadematus
p6776
asVNyctibates
p6777
(lp6778
Vcorrugatus
p6779
assVPipidae
p6780
(dp6781
VPipa
p6782
(lp6783
Vparva
p6784
asVXenopus
p6785
(lp6786
Vclivii
p6787
assVMicrohylidae
p6788
(dp6789
VXenorhina
p6790
(lp6791
Vmehelyi
p6792
asVGastrophryne
p6793
(lp6794
Vcarolinensis
p6795
asVElachistocleis
p6796
(lp6797
Vbicolor
p6798
asVChaperina
p6799
(lp6800
Vfusca
p6801
asVPaedophryne
p6802
(lp6803
Vswiftorum
p6804
aVkathismaphlox
p6805
aVsp.
p6806
aVtitan
p6807
asVChiasmocleis
p6808
(lp6809
Valtomontana
p6810
aVcapixaba
p6811
aVgnoma 
p6812
aValbopunctata
p6813
aVmantiqueira
p6814
aVroyi
p6815
aVcrucis
p6816
asVMelanobatrachus
p6817
(lp6818
Vindicus
p6819
asVPlethodontohyla
p6820
(lp6821
Valluaudi
p6822
aVlaevis
p6823
asVUperodon
p6824
(lp6825
Vmontanus
p6826
aVsystoma
p6827
asVSyncope
p6828
(lp6829
Vantenori
p6830
asVRhombophryne
p6831
(lp6832
Vcoronata
p6833
aVguentherpetersi
p6834
aVornata
p6835
aVtany
p6836
aVvaventy
p6837
aVserratopalpebrosa
p6838
aValluaudi
p6839
asVStumpffia
p6840
(lp6841
Vpygmaea
p6842
assVPelobatidae
p6843
(dp6844
VPelobates
p6845
(lp6846
Vfuscus
p6847
aVvaraldii
p6848
assVHeleophrynidae
p6849
(dp6850
VHeleophryne
p6851
(lp6852
Vnatalensis
p6853
aVpurcelli
p6854
asVHadromophryne
p6855
(lp6856
Vnatalensis
p6857
assVBatrachylidae
p6858
(dp6859
VHylorina
p6860
(lp6861
Vsylvatica
p6862
asVBatrachyla
p6863
(lp6864
Vtaeniata
p6865
assVHemiphractidae
p6866
(dp6867
VCryptobatrachus
p6868
(lp6869
Vboulengeri
p6870
asS'Stefania'
p6871
(lp6872
Vscalae
p6873
asVHemiphractus
p6874
(lp6875
Vfasciatus
p6876
aVproboscideus
p6877
aVelioti
p6878
aVkaylockae
p6879
asVGastrotheca
p6880
(lp6881
Vperuana
p6882
assVPelodytidae
p6883
(dp6884
VPelodytes
p6885
(lp6886
Vcaucasicus
p6887
assVEleutherodactylidae
p6888
(dp6889
VPhyzelaphryne
p6890
(lp6891
Vmiriamae
p6892
asVEleutherodactylus
p6893
(lp6894
Vorientalis
p6895
aVdimidiatus
p6896
aVglaphycompus
p6897
aVjohnstonei
p6898
aVkarlschmidti
p6899
aVatkinsi
p6900
assVDendrobatidae
p6901
(dp6902
VOophaga
p6903
(lp6904
Vpumilio
p6905
asVAmeerega
p6906
(lp6907
Vtrivittata
p6908
asVMannophryne
p6909
(lp6910
Volmonae
p6911
aVtrinitatis
p6912
asVColostethus
p6913
(lp6914
Vsylvaticus
p6915
asVPhyllobates
p6916
(lp6917
Vbicolor
p6918
asVAllobates
p6919
(lp6920
Vkingsburyi
p6921
asVRheobates
p6922
(lp6923
Vpalmatus
p6924
assVAlsodidae
p6925
(dp6926
VAlsodes
p6927
(lp6928
Vnodosus
p6929
asVEupsophus
p6930
(lp6931
Vroseus
p6932
asVLimnomedusa
p6933
(lp6934
Vmacroglossa
p6935
assVRanixalidae
p6936
(dp6937
VIndirana
p6938
(lp6939
Vphrynoderma
p6940
assVNasikabatrachidae
p6941
(dp6942
VNasikabatrachus
p6943
(lp6944
Vsahyadrensis
p6945
assVHylidae
p6946
(dp6947
VPhyllodytes
p6948
(lp6949
Vluteolus
p6950
asVNyctimantis
p6951
(lp6952
Vrugiceps
p6953
asVPseudacris
p6954
(lp6955
Vornata
p6956
asVPhyllomedusa
p6957
(lp6958
Vbicolor
p6959
asVHyla
p6960
(lp6961
Vfemoralis
p6962
aVavivoca
p6963
aVandersonii
p6964
aVboans
p6965
aVchrysoscelis
p6966
aVcinerea
p6967
asVAnotheca
p6968
(lp6969
Vspinosa
p6970
asVAcris
p6971
(lp6972
Vcrepitans
p6973
aVgryllus
p6974
asVLitoria
p6975
(lp6976
Vaurea
p6977
asVTepuihyla
p6978
(lp6979
Vrodriguezi
p6980
asVArgenteohyla
p6981
(lp6982
Vsiemersi
p6983
asVCorythomantis
p6984
(lp6985
Vgreeningi
p6986
asVAgalychnis
p6987
(lp6988
Vcalcarifer
p6989
asVTriprion
p6990
(lp6991
Vpetasatus
p6992
asVAparasphenodon
p6993
(lp6994
Vbrunoi
p6995
assVRhacophoridae
p6996
(dp6997
VRaorchestes
p6998
(lp6999
Vmanohari
p7000
aVprimarrumpfi
p7001
aVflaviocularas
p7002
aVnerostegona
p7003
aVochlandrae
p7004
aVresplendens
p7005
aVparvulus
p7006
aVchalazodes
p7007
asVTheloderma
p7008
(lp7009
Vphrynoderma
p7010
asVNyctixalus
p7011
(lp7012
Vpictus
p7013
aVspinosus
p7014
asVRhacophorus
p7015
(lp7016
Vschlegeli
p7017
aVnigripunctatus
p7018
aVappendiculatus
p7019
aVcatamitus
p7020
aVbatakensis
p7021
aVfeae
p7022
asVFeihyla
p7023
(lp7024
Vpalpebralis
p7025
asVPolypedates
p7026
(lp7027
Vmacrotis
p7028
asVPhilautus
p7029
(lp7030
Vpetersi
p7031
aVsurdus
p7032
aVworcesteri
p7033
asVChiromantis
p7034
(lp7035
Vrufescens
p7036
asVBuergeria
p7037
(lp7038
Vjaponica
p7039
assVCraugastoridae
p7040
(dp7041
VCraugastor
p7042
(lp7043
Vlaticeps
p7044
assVBufonidae
p7045
(dp7046
VNectophryne
p7047
(lp7048
Vafra
p7049
asVAnaxyrus
p7050
(lp7051
Vfowleri
p7052
aVquercicus
p7053
aVterrestris
p7054
asVMelanophryniscus
p7055
(lp7056
Vstelzneri
p7057
asVNectophrynoides
p7058
(lp7059
Vviviparus
p7060
asVAtelopus
p7061
(lp7062
Voxyrhynchus
p7063
aVignescens
p7064
asVAnsonia
p7065
(lp7066
Vmcgregori
p7067
asVFrostius
p7068
(lp7069
Vpernambucensis
p7070
asVDidynamipus
p7071
(lp7072
Vsjostedti
p7073
asVAltiphrynoides
p7074
(lp7075
Vmalcomi
p7076
asVAdenomus
p7077
(lp7078
Vkelaartii
p7079
asVMertensophryne
p7080
(lp7081
Vmicranotis
p7082
asVPeltophryne
p7083
(lp7084
Vguentheri
p7085
asVTruebella
p7086
(lp7087
Vtothastes
p7088
aVskoptes
p7089
asVSchismaderma
p7090
(lp7091
Vcarens
p7092
asVLaurentophryne
p7093
(lp7094
Vparkeri
p7095
asVWolterstorffina
p7096
(lp7097
Vparvipalmata
p7098
assVStrabomantidae
p7099
(dp7100
S'Barycholos'
p7101
(lp7102
Vpulcher
p7103
asVOreobates
p7104
(lp7105
Vquixensis
p7106
asVStrabomantis
p7107
(lp7108
Vanomalus
p7109
assVHemisotidae
p7110
(dp7111
VHemisus
p7112
(lp7113
Vguineensis
p7114
assVBombinatoridae
p7115
(dp7116
VBombina
p7117
(lp7118
Vmaxima
p7119
asVBarbourula
p7120
(lp7121
Vbusuangensis
p7122
assVCeratobatrachidae
p7123
(dp7124
VAlcalus
p7125
(lp7126
Vmariae
p7127
asVPlatymantis
p7128
(lp7129
Vpolillensis
p7130
asVCornufer
p7131
(lp7132
Vguppyi
p7133
aVguentheri
p7134
assVRanidae
p7135
(dp7136
VOccidozyga
p7137
(lp7138
Vlaevis
p7139
asVRana
p7140
(lp7141
Vclamitans
p7142
aVcapito
p7143
asVTomopterna
p7144
(lp7145
Vdelandii
p7146
aVmarmorata
p7147
aVtuberculosa
p7148
asVNyctibatrachus
p7149
(lp7150
Valiciae
p7151
aVmajor
p7152
asVCacosternum
p7153
(lp7154
Vboettgeri
p7155
aVnamaquense
p7156
asVAmnirana
p7157
(lp7158
Valbolabris
p7159
asVLithobates
p7160
(lp7161
Vgrylio
p7162
asVAmolops
p7163
(lp7164
Vcompotrix
p7165
aVspinapectoralis
p7166
asVOdorrana
p7167
(lp7168
Vchapaensis
p7169
asVArthroleptella
p7170
(lp7171
Vlightfooti
p7172
asVPhrynobatrachus
p7173
(lp7174
Vkrefftii
p7175
asVMicrixalus
p7176
(lp7177
Vadonis
p7178
aVherrei
p7179
asVHylarana
p7180
(lp7181
Verythraea
p7182
asVFejervarya
p7183
(lp7184
Vlimnocharis
p7185
asssVCaudata
p7186
(dp7187
VProteidae
p7188
(dp7189
VNecturus
p7190
(lp7191
Vlewisi
p7192
aVbeyeri
p7193
assVSalamandridae
p7194
(dp7195
VTriturus
p7196
(lp7197
Vcristatus
p7198
asVIchthyosaura
p7199
(lp7200
Valpestris
p7201
asVCalotriton
p7202
(lp7203
Varnoldi
p7204
asVPachytriton
p7205
(lp7206
Vlabiatus
p7207
asVPleurodeles
p7208
(lp7209
Vwaltl
p7210
asVNotophthalmus
p7211
(lp7212
Vviridescens
p7213
aVmeridionalis
p7214
asVCynops
p7215
(lp7216
Vpyrrhogaster
p7217
asVTylototriton
p7218
(lp7219
Vpanhai
p7220
asVLissotriton
p7221
(lp7222
Vhelviticus
p7223
aVvulgaris
p7224
assVAmphiumidae
p7225
(dp7226
VAmphiuma
p7227
(lp7228
Vmeans
p7229
assVCryptobranchidae
p7230
(dp7231
VCryptobranchus
p7232
(lp7233
Valleganiensis
p7234
assVAmbystomatidae
p7235
(dp7236
VAmbystoma
p7237
(lp7238
Vmavortium
p7239
aVmaculatum
p7240
assVPlethodontidae
p7241
(dp7242
VDesmognathus
p7243
(lp7244
Vauriculatus
p7245
aVapalachicolae
p7246
aVsp
p7247
aVfloridanus 
p7248
aVconanti
p7249
aVvalentinei
p7250
asVBolitoglossa
p7251
(lp7252
Vfranklini
p7253
aVmexicana
p7254
asVGyrinophilus
p7255
(lp7256
Vporphyriticus
p7257
assVSirenidae
p7258
(dp7259
VSiren
p7260
(lp7261
Vintermedia
p7262
assssVChondrichthys
p7263
(dp7264
sss.